
AVR_LAB.elf:     file format elf32-avr

Sections:
Idx Name          Size      VMA       LMA       File off  Algn
  0 .text         00007a1e  00000000  00000000  00000094  2**1
                  CONTENTS, ALLOC, LOAD, READONLY, CODE
  1 .data         0000041c  00800060  00007a1e  00007ab2  2**0
                  CONTENTS, ALLOC, LOAD, DATA
  2 .bss          00000010  0080047c  0080047c  00007ece  2**0
                  ALLOC
  3 .stab         00007e18  00000000  00000000  00007ed0  2**2
                  CONTENTS, READONLY, DEBUGGING
  4 .stabstr      00004500  00000000  00000000  0000fce8  2**0
                  CONTENTS, READONLY, DEBUGGING
  5 .debug_aranges 000001c0  00000000  00000000  000141e8  2**0
                  CONTENTS, READONLY, DEBUGGING
  6 .debug_pubnames 00000214  00000000  00000000  000143a8  2**0
                  CONTENTS, READONLY, DEBUGGING
  7 .debug_info   00002612  00000000  00000000  000145bc  2**0
                  CONTENTS, READONLY, DEBUGGING
  8 .debug_abbrev 000014ce  00000000  00000000  00016bce  2**0
                  CONTENTS, READONLY, DEBUGGING
  9 .debug_line   0000130b  00000000  00000000  0001809c  2**0
                  CONTENTS, READONLY, DEBUGGING
 10 .debug_frame  000001e0  00000000  00000000  000193a8  2**2
                  CONTENTS, READONLY, DEBUGGING
 11 .debug_str    00000307  00000000  00000000  00019588  2**0
                  CONTENTS, READONLY, DEBUGGING
 12 .debug_loc    00000a1a  00000000  00000000  0001988f  2**0
                  CONTENTS, READONLY, DEBUGGING
 13 .debug_ranges 00000050  00000000  00000000  0001a2a9  2**0
                  CONTENTS, READONLY, DEBUGGING

Disassembly of section .text:

00000000 <__vectors>:
       0:	0c 94 2a 00 	jmp	0x54	; 0x54 <__ctors_end>
       4:	0c 94 8c 3c 	jmp	0x7918	; 0x7918 <__vector_1>
       8:	0c 94 47 00 	jmp	0x8e	; 0x8e <__bad_interrupt>
       c:	0c 94 47 00 	jmp	0x8e	; 0x8e <__bad_interrupt>
      10:	0c 94 47 00 	jmp	0x8e	; 0x8e <__bad_interrupt>
      14:	0c 94 47 00 	jmp	0x8e	; 0x8e <__bad_interrupt>
      18:	0c 94 47 00 	jmp	0x8e	; 0x8e <__bad_interrupt>
      1c:	0c 94 47 00 	jmp	0x8e	; 0x8e <__bad_interrupt>
      20:	0c 94 47 00 	jmp	0x8e	; 0x8e <__bad_interrupt>
      24:	0c 94 47 00 	jmp	0x8e	; 0x8e <__bad_interrupt>
      28:	0c 94 47 00 	jmp	0x8e	; 0x8e <__bad_interrupt>
      2c:	0c 94 47 00 	jmp	0x8e	; 0x8e <__bad_interrupt>
      30:	0c 94 47 00 	jmp	0x8e	; 0x8e <__bad_interrupt>
      34:	0c 94 47 00 	jmp	0x8e	; 0x8e <__bad_interrupt>
      38:	0c 94 47 00 	jmp	0x8e	; 0x8e <__bad_interrupt>
      3c:	0c 94 47 00 	jmp	0x8e	; 0x8e <__bad_interrupt>
      40:	0c 94 47 00 	jmp	0x8e	; 0x8e <__bad_interrupt>
      44:	0c 94 47 00 	jmp	0x8e	; 0x8e <__bad_interrupt>
      48:	0c 94 47 00 	jmp	0x8e	; 0x8e <__bad_interrupt>
      4c:	0c 94 47 00 	jmp	0x8e	; 0x8e <__bad_interrupt>
      50:	0c 94 47 00 	jmp	0x8e	; 0x8e <__bad_interrupt>

00000054 <__ctors_end>:
      54:	11 24       	eor	r1, r1
      56:	1f be       	out	0x3f, r1	; 63
      58:	cf e5       	ldi	r28, 0x5F	; 95
      5a:	d8 e0       	ldi	r29, 0x08	; 8
      5c:	de bf       	out	0x3e, r29	; 62
      5e:	cd bf       	out	0x3d, r28	; 61

00000060 <__do_copy_data>:
      60:	14 e0       	ldi	r17, 0x04	; 4
      62:	a0 e6       	ldi	r26, 0x60	; 96
      64:	b0 e0       	ldi	r27, 0x00	; 0
      66:	ee e1       	ldi	r30, 0x1E	; 30
      68:	fa e7       	ldi	r31, 0x7A	; 122
      6a:	02 c0       	rjmp	.+4      	; 0x70 <.do_copy_data_start>

0000006c <.do_copy_data_loop>:
      6c:	05 90       	lpm	r0, Z+
      6e:	0d 92       	st	X+, r0

00000070 <.do_copy_data_start>:
      70:	ac 37       	cpi	r26, 0x7C	; 124
      72:	b1 07       	cpc	r27, r17
      74:	d9 f7       	brne	.-10     	; 0x6c <.do_copy_data_loop>

00000076 <__do_clear_bss>:
      76:	14 e0       	ldi	r17, 0x04	; 4
      78:	ac e7       	ldi	r26, 0x7C	; 124
      7a:	b4 e0       	ldi	r27, 0x04	; 4
      7c:	01 c0       	rjmp	.+2      	; 0x80 <.do_clear_bss_start>

0000007e <.do_clear_bss_loop>:
      7e:	1d 92       	st	X+, r1

00000080 <.do_clear_bss_start>:
      80:	ac 38       	cpi	r26, 0x8C	; 140
      82:	b1 07       	cpc	r27, r17
      84:	e1 f7       	brne	.-8      	; 0x7e <.do_clear_bss_loop>
      86:	0e 94 83 3c 	call	0x7906	; 0x7906 <main>
      8a:	0c 94 0d 3d 	jmp	0x7a1a	; 0x7a1a <_exit>

0000008e <__bad_interrupt>:
      8e:	0c 94 00 00 	jmp	0	; 0x0 <__vectors>

00000092 <__fixunssfsi>:
      92:	ef 92       	push	r14
      94:	ff 92       	push	r15
      96:	0f 93       	push	r16
      98:	1f 93       	push	r17
      9a:	7b 01       	movw	r14, r22
      9c:	8c 01       	movw	r16, r24
      9e:	20 e0       	ldi	r18, 0x00	; 0
      a0:	30 e0       	ldi	r19, 0x00	; 0
      a2:	40 e0       	ldi	r20, 0x00	; 0
      a4:	5f e4       	ldi	r21, 0x4F	; 79
      a6:	0e 94 f5 03 	call	0x7ea	; 0x7ea <__gesf2>
      aa:	88 23       	and	r24, r24
      ac:	8c f0       	brlt	.+34     	; 0xd0 <__fixunssfsi+0x3e>
      ae:	c8 01       	movw	r24, r16
      b0:	b7 01       	movw	r22, r14
      b2:	20 e0       	ldi	r18, 0x00	; 0
      b4:	30 e0       	ldi	r19, 0x00	; 0
      b6:	40 e0       	ldi	r20, 0x00	; 0
      b8:	5f e4       	ldi	r21, 0x4F	; 79
      ba:	0e 94 c1 01 	call	0x382	; 0x382 <__subsf3>
      be:	0e 94 b3 04 	call	0x966	; 0x966 <__fixsfsi>
      c2:	9b 01       	movw	r18, r22
      c4:	ac 01       	movw	r20, r24
      c6:	20 50       	subi	r18, 0x00	; 0
      c8:	30 40       	sbci	r19, 0x00	; 0
      ca:	40 40       	sbci	r20, 0x00	; 0
      cc:	50 48       	sbci	r21, 0x80	; 128
      ce:	06 c0       	rjmp	.+12     	; 0xdc <__fixunssfsi+0x4a>
      d0:	c8 01       	movw	r24, r16
      d2:	b7 01       	movw	r22, r14
      d4:	0e 94 b3 04 	call	0x966	; 0x966 <__fixsfsi>
      d8:	9b 01       	movw	r18, r22
      da:	ac 01       	movw	r20, r24
      dc:	b9 01       	movw	r22, r18
      de:	ca 01       	movw	r24, r20
      e0:	1f 91       	pop	r17
      e2:	0f 91       	pop	r16
      e4:	ff 90       	pop	r15
      e6:	ef 90       	pop	r14
      e8:	08 95       	ret

000000ea <_fpadd_parts>:
      ea:	a0 e0       	ldi	r26, 0x00	; 0
      ec:	b0 e0       	ldi	r27, 0x00	; 0
      ee:	eb e7       	ldi	r30, 0x7B	; 123
      f0:	f0 e0       	ldi	r31, 0x00	; 0
      f2:	0c 94 d6 3c 	jmp	0x79ac	; 0x79ac <__prologue_saves__>
      f6:	dc 01       	movw	r26, r24
      f8:	2b 01       	movw	r4, r22
      fa:	fa 01       	movw	r30, r20
      fc:	9c 91       	ld	r25, X
      fe:	92 30       	cpi	r25, 0x02	; 2
     100:	08 f4       	brcc	.+2      	; 0x104 <_fpadd_parts+0x1a>
     102:	39 c1       	rjmp	.+626    	; 0x376 <_fpadd_parts+0x28c>
     104:	eb 01       	movw	r28, r22
     106:	88 81       	ld	r24, Y
     108:	82 30       	cpi	r24, 0x02	; 2
     10a:	08 f4       	brcc	.+2      	; 0x10e <_fpadd_parts+0x24>
     10c:	33 c1       	rjmp	.+614    	; 0x374 <_fpadd_parts+0x28a>
     10e:	94 30       	cpi	r25, 0x04	; 4
     110:	69 f4       	brne	.+26     	; 0x12c <_fpadd_parts+0x42>
     112:	84 30       	cpi	r24, 0x04	; 4
     114:	09 f0       	breq	.+2      	; 0x118 <_fpadd_parts+0x2e>
     116:	2f c1       	rjmp	.+606    	; 0x376 <_fpadd_parts+0x28c>
     118:	11 96       	adiw	r26, 0x01	; 1
     11a:	9c 91       	ld	r25, X
     11c:	11 97       	sbiw	r26, 0x01	; 1
     11e:	89 81       	ldd	r24, Y+1	; 0x01
     120:	98 17       	cp	r25, r24
     122:	09 f4       	brne	.+2      	; 0x126 <_fpadd_parts+0x3c>
     124:	28 c1       	rjmp	.+592    	; 0x376 <_fpadd_parts+0x28c>
     126:	ab e8       	ldi	r26, 0x8B	; 139
     128:	b2 e0       	ldi	r27, 0x02	; 2
     12a:	25 c1       	rjmp	.+586    	; 0x376 <_fpadd_parts+0x28c>
     12c:	84 30       	cpi	r24, 0x04	; 4
     12e:	09 f4       	brne	.+2      	; 0x132 <_fpadd_parts+0x48>
     130:	21 c1       	rjmp	.+578    	; 0x374 <_fpadd_parts+0x28a>
     132:	82 30       	cpi	r24, 0x02	; 2
     134:	a9 f4       	brne	.+42     	; 0x160 <_fpadd_parts+0x76>
     136:	92 30       	cpi	r25, 0x02	; 2
     138:	09 f0       	breq	.+2      	; 0x13c <_fpadd_parts+0x52>
     13a:	1d c1       	rjmp	.+570    	; 0x376 <_fpadd_parts+0x28c>
     13c:	9a 01       	movw	r18, r20
     13e:	ad 01       	movw	r20, r26
     140:	88 e0       	ldi	r24, 0x08	; 8
     142:	ea 01       	movw	r28, r20
     144:	09 90       	ld	r0, Y+
     146:	ae 01       	movw	r20, r28
     148:	e9 01       	movw	r28, r18
     14a:	09 92       	st	Y+, r0
     14c:	9e 01       	movw	r18, r28
     14e:	81 50       	subi	r24, 0x01	; 1
     150:	c1 f7       	brne	.-16     	; 0x142 <_fpadd_parts+0x58>
     152:	e2 01       	movw	r28, r4
     154:	89 81       	ldd	r24, Y+1	; 0x01
     156:	11 96       	adiw	r26, 0x01	; 1
     158:	9c 91       	ld	r25, X
     15a:	89 23       	and	r24, r25
     15c:	81 83       	std	Z+1, r24	; 0x01
     15e:	08 c1       	rjmp	.+528    	; 0x370 <_fpadd_parts+0x286>
     160:	92 30       	cpi	r25, 0x02	; 2
     162:	09 f4       	brne	.+2      	; 0x166 <_fpadd_parts+0x7c>
     164:	07 c1       	rjmp	.+526    	; 0x374 <_fpadd_parts+0x28a>
     166:	12 96       	adiw	r26, 0x02	; 2
     168:	2d 90       	ld	r2, X+
     16a:	3c 90       	ld	r3, X
     16c:	13 97       	sbiw	r26, 0x03	; 3
     16e:	eb 01       	movw	r28, r22
     170:	8a 81       	ldd	r24, Y+2	; 0x02
     172:	9b 81       	ldd	r25, Y+3	; 0x03
     174:	14 96       	adiw	r26, 0x04	; 4
     176:	ad 90       	ld	r10, X+
     178:	bd 90       	ld	r11, X+
     17a:	cd 90       	ld	r12, X+
     17c:	dc 90       	ld	r13, X
     17e:	17 97       	sbiw	r26, 0x07	; 7
     180:	ec 80       	ldd	r14, Y+4	; 0x04
     182:	fd 80       	ldd	r15, Y+5	; 0x05
     184:	0e 81       	ldd	r16, Y+6	; 0x06
     186:	1f 81       	ldd	r17, Y+7	; 0x07
     188:	91 01       	movw	r18, r2
     18a:	28 1b       	sub	r18, r24
     18c:	39 0b       	sbc	r19, r25
     18e:	b9 01       	movw	r22, r18
     190:	37 ff       	sbrs	r19, 7
     192:	04 c0       	rjmp	.+8      	; 0x19c <_fpadd_parts+0xb2>
     194:	66 27       	eor	r22, r22
     196:	77 27       	eor	r23, r23
     198:	62 1b       	sub	r22, r18
     19a:	73 0b       	sbc	r23, r19
     19c:	60 32       	cpi	r22, 0x20	; 32
     19e:	71 05       	cpc	r23, r1
     1a0:	0c f0       	brlt	.+2      	; 0x1a4 <_fpadd_parts+0xba>
     1a2:	61 c0       	rjmp	.+194    	; 0x266 <_fpadd_parts+0x17c>
     1a4:	12 16       	cp	r1, r18
     1a6:	13 06       	cpc	r1, r19
     1a8:	6c f5       	brge	.+90     	; 0x204 <_fpadd_parts+0x11a>
     1aa:	37 01       	movw	r6, r14
     1ac:	48 01       	movw	r8, r16
     1ae:	06 2e       	mov	r0, r22
     1b0:	04 c0       	rjmp	.+8      	; 0x1ba <_fpadd_parts+0xd0>
     1b2:	96 94       	lsr	r9
     1b4:	87 94       	ror	r8
     1b6:	77 94       	ror	r7
     1b8:	67 94       	ror	r6
     1ba:	0a 94       	dec	r0
     1bc:	d2 f7       	brpl	.-12     	; 0x1b2 <_fpadd_parts+0xc8>
     1be:	21 e0       	ldi	r18, 0x01	; 1
     1c0:	30 e0       	ldi	r19, 0x00	; 0
     1c2:	40 e0       	ldi	r20, 0x00	; 0
     1c4:	50 e0       	ldi	r21, 0x00	; 0
     1c6:	04 c0       	rjmp	.+8      	; 0x1d0 <_fpadd_parts+0xe6>
     1c8:	22 0f       	add	r18, r18
     1ca:	33 1f       	adc	r19, r19
     1cc:	44 1f       	adc	r20, r20
     1ce:	55 1f       	adc	r21, r21
     1d0:	6a 95       	dec	r22
     1d2:	d2 f7       	brpl	.-12     	; 0x1c8 <_fpadd_parts+0xde>
     1d4:	21 50       	subi	r18, 0x01	; 1
     1d6:	30 40       	sbci	r19, 0x00	; 0
     1d8:	40 40       	sbci	r20, 0x00	; 0
     1da:	50 40       	sbci	r21, 0x00	; 0
     1dc:	2e 21       	and	r18, r14
     1de:	3f 21       	and	r19, r15
     1e0:	40 23       	and	r20, r16
     1e2:	51 23       	and	r21, r17
     1e4:	21 15       	cp	r18, r1
     1e6:	31 05       	cpc	r19, r1
     1e8:	41 05       	cpc	r20, r1
     1ea:	51 05       	cpc	r21, r1
     1ec:	21 f0       	breq	.+8      	; 0x1f6 <_fpadd_parts+0x10c>
     1ee:	21 e0       	ldi	r18, 0x01	; 1
     1f0:	30 e0       	ldi	r19, 0x00	; 0
     1f2:	40 e0       	ldi	r20, 0x00	; 0
     1f4:	50 e0       	ldi	r21, 0x00	; 0
     1f6:	79 01       	movw	r14, r18
     1f8:	8a 01       	movw	r16, r20
     1fa:	e6 28       	or	r14, r6
     1fc:	f7 28       	or	r15, r7
     1fe:	08 29       	or	r16, r8
     200:	19 29       	or	r17, r9
     202:	3c c0       	rjmp	.+120    	; 0x27c <_fpadd_parts+0x192>
     204:	23 2b       	or	r18, r19
     206:	d1 f1       	breq	.+116    	; 0x27c <_fpadd_parts+0x192>
     208:	26 0e       	add	r2, r22
     20a:	37 1e       	adc	r3, r23
     20c:	35 01       	movw	r6, r10
     20e:	46 01       	movw	r8, r12
     210:	06 2e       	mov	r0, r22
     212:	04 c0       	rjmp	.+8      	; 0x21c <_fpadd_parts+0x132>
     214:	96 94       	lsr	r9
     216:	87 94       	ror	r8
     218:	77 94       	ror	r7
     21a:	67 94       	ror	r6
     21c:	0a 94       	dec	r0
     21e:	d2 f7       	brpl	.-12     	; 0x214 <_fpadd_parts+0x12a>
     220:	21 e0       	ldi	r18, 0x01	; 1
     222:	30 e0       	ldi	r19, 0x00	; 0
     224:	40 e0       	ldi	r20, 0x00	; 0
     226:	50 e0       	ldi	r21, 0x00	; 0
     228:	04 c0       	rjmp	.+8      	; 0x232 <_fpadd_parts+0x148>
     22a:	22 0f       	add	r18, r18
     22c:	33 1f       	adc	r19, r19
     22e:	44 1f       	adc	r20, r20
     230:	55 1f       	adc	r21, r21
     232:	6a 95       	dec	r22
     234:	d2 f7       	brpl	.-12     	; 0x22a <_fpadd_parts+0x140>
     236:	21 50       	subi	r18, 0x01	; 1
     238:	30 40       	sbci	r19, 0x00	; 0
     23a:	40 40       	sbci	r20, 0x00	; 0
     23c:	50 40       	sbci	r21, 0x00	; 0
     23e:	2a 21       	and	r18, r10
     240:	3b 21       	and	r19, r11
     242:	4c 21       	and	r20, r12
     244:	5d 21       	and	r21, r13
     246:	21 15       	cp	r18, r1
     248:	31 05       	cpc	r19, r1
     24a:	41 05       	cpc	r20, r1
     24c:	51 05       	cpc	r21, r1
     24e:	21 f0       	breq	.+8      	; 0x258 <_fpadd_parts+0x16e>
     250:	21 e0       	ldi	r18, 0x01	; 1
     252:	30 e0       	ldi	r19, 0x00	; 0
     254:	40 e0       	ldi	r20, 0x00	; 0
     256:	50 e0       	ldi	r21, 0x00	; 0
     258:	59 01       	movw	r10, r18
     25a:	6a 01       	movw	r12, r20
     25c:	a6 28       	or	r10, r6
     25e:	b7 28       	or	r11, r7
     260:	c8 28       	or	r12, r8
     262:	d9 28       	or	r13, r9
     264:	0b c0       	rjmp	.+22     	; 0x27c <_fpadd_parts+0x192>
     266:	82 15       	cp	r24, r2
     268:	93 05       	cpc	r25, r3
     26a:	2c f0       	brlt	.+10     	; 0x276 <_fpadd_parts+0x18c>
     26c:	1c 01       	movw	r2, r24
     26e:	aa 24       	eor	r10, r10
     270:	bb 24       	eor	r11, r11
     272:	65 01       	movw	r12, r10
     274:	03 c0       	rjmp	.+6      	; 0x27c <_fpadd_parts+0x192>
     276:	ee 24       	eor	r14, r14
     278:	ff 24       	eor	r15, r15
     27a:	87 01       	movw	r16, r14
     27c:	11 96       	adiw	r26, 0x01	; 1
     27e:	9c 91       	ld	r25, X
     280:	d2 01       	movw	r26, r4
     282:	11 96       	adiw	r26, 0x01	; 1
     284:	8c 91       	ld	r24, X
     286:	98 17       	cp	r25, r24
     288:	09 f4       	brne	.+2      	; 0x28c <_fpadd_parts+0x1a2>
     28a:	45 c0       	rjmp	.+138    	; 0x316 <_fpadd_parts+0x22c>
     28c:	99 23       	and	r25, r25
     28e:	39 f0       	breq	.+14     	; 0x29e <_fpadd_parts+0x1b4>
     290:	a8 01       	movw	r20, r16
     292:	97 01       	movw	r18, r14
     294:	2a 19       	sub	r18, r10
     296:	3b 09       	sbc	r19, r11
     298:	4c 09       	sbc	r20, r12
     29a:	5d 09       	sbc	r21, r13
     29c:	06 c0       	rjmp	.+12     	; 0x2aa <_fpadd_parts+0x1c0>
     29e:	a6 01       	movw	r20, r12
     2a0:	95 01       	movw	r18, r10
     2a2:	2e 19       	sub	r18, r14
     2a4:	3f 09       	sbc	r19, r15
     2a6:	40 0b       	sbc	r20, r16
     2a8:	51 0b       	sbc	r21, r17
     2aa:	57 fd       	sbrc	r21, 7
     2ac:	08 c0       	rjmp	.+16     	; 0x2be <_fpadd_parts+0x1d4>
     2ae:	11 82       	std	Z+1, r1	; 0x01
     2b0:	33 82       	std	Z+3, r3	; 0x03
     2b2:	22 82       	std	Z+2, r2	; 0x02
     2b4:	24 83       	std	Z+4, r18	; 0x04
     2b6:	35 83       	std	Z+5, r19	; 0x05
     2b8:	46 83       	std	Z+6, r20	; 0x06
     2ba:	57 83       	std	Z+7, r21	; 0x07
     2bc:	1d c0       	rjmp	.+58     	; 0x2f8 <_fpadd_parts+0x20e>
     2be:	81 e0       	ldi	r24, 0x01	; 1
     2c0:	81 83       	std	Z+1, r24	; 0x01
     2c2:	33 82       	std	Z+3, r3	; 0x03
     2c4:	22 82       	std	Z+2, r2	; 0x02
     2c6:	88 27       	eor	r24, r24
     2c8:	99 27       	eor	r25, r25
     2ca:	dc 01       	movw	r26, r24
     2cc:	82 1b       	sub	r24, r18
     2ce:	93 0b       	sbc	r25, r19
     2d0:	a4 0b       	sbc	r26, r20
     2d2:	b5 0b       	sbc	r27, r21
     2d4:	84 83       	std	Z+4, r24	; 0x04
     2d6:	95 83       	std	Z+5, r25	; 0x05
     2d8:	a6 83       	std	Z+6, r26	; 0x06
     2da:	b7 83       	std	Z+7, r27	; 0x07
     2dc:	0d c0       	rjmp	.+26     	; 0x2f8 <_fpadd_parts+0x20e>
     2de:	22 0f       	add	r18, r18
     2e0:	33 1f       	adc	r19, r19
     2e2:	44 1f       	adc	r20, r20
     2e4:	55 1f       	adc	r21, r21
     2e6:	24 83       	std	Z+4, r18	; 0x04
     2e8:	35 83       	std	Z+5, r19	; 0x05
     2ea:	46 83       	std	Z+6, r20	; 0x06
     2ec:	57 83       	std	Z+7, r21	; 0x07
     2ee:	82 81       	ldd	r24, Z+2	; 0x02
     2f0:	93 81       	ldd	r25, Z+3	; 0x03
     2f2:	01 97       	sbiw	r24, 0x01	; 1
     2f4:	93 83       	std	Z+3, r25	; 0x03
     2f6:	82 83       	std	Z+2, r24	; 0x02
     2f8:	24 81       	ldd	r18, Z+4	; 0x04
     2fa:	35 81       	ldd	r19, Z+5	; 0x05
     2fc:	46 81       	ldd	r20, Z+6	; 0x06
     2fe:	57 81       	ldd	r21, Z+7	; 0x07
     300:	da 01       	movw	r26, r20
     302:	c9 01       	movw	r24, r18
     304:	01 97       	sbiw	r24, 0x01	; 1
     306:	a1 09       	sbc	r26, r1
     308:	b1 09       	sbc	r27, r1
     30a:	8f 5f       	subi	r24, 0xFF	; 255
     30c:	9f 4f       	sbci	r25, 0xFF	; 255
     30e:	af 4f       	sbci	r26, 0xFF	; 255
     310:	bf 43       	sbci	r27, 0x3F	; 63
     312:	28 f3       	brcs	.-54     	; 0x2de <_fpadd_parts+0x1f4>
     314:	0b c0       	rjmp	.+22     	; 0x32c <_fpadd_parts+0x242>
     316:	91 83       	std	Z+1, r25	; 0x01
     318:	33 82       	std	Z+3, r3	; 0x03
     31a:	22 82       	std	Z+2, r2	; 0x02
     31c:	ea 0c       	add	r14, r10
     31e:	fb 1c       	adc	r15, r11
     320:	0c 1d       	adc	r16, r12
     322:	1d 1d       	adc	r17, r13
     324:	e4 82       	std	Z+4, r14	; 0x04
     326:	f5 82       	std	Z+5, r15	; 0x05
     328:	06 83       	std	Z+6, r16	; 0x06
     32a:	17 83       	std	Z+7, r17	; 0x07
     32c:	83 e0       	ldi	r24, 0x03	; 3
     32e:	80 83       	st	Z, r24
     330:	24 81       	ldd	r18, Z+4	; 0x04
     332:	35 81       	ldd	r19, Z+5	; 0x05
     334:	46 81       	ldd	r20, Z+6	; 0x06
     336:	57 81       	ldd	r21, Z+7	; 0x07
     338:	57 ff       	sbrs	r21, 7
     33a:	1a c0       	rjmp	.+52     	; 0x370 <_fpadd_parts+0x286>
     33c:	c9 01       	movw	r24, r18
     33e:	aa 27       	eor	r26, r26
     340:	97 fd       	sbrc	r25, 7
     342:	a0 95       	com	r26
     344:	ba 2f       	mov	r27, r26
     346:	81 70       	andi	r24, 0x01	; 1
     348:	90 70       	andi	r25, 0x00	; 0
     34a:	a0 70       	andi	r26, 0x00	; 0
     34c:	b0 70       	andi	r27, 0x00	; 0
     34e:	56 95       	lsr	r21
     350:	47 95       	ror	r20
     352:	37 95       	ror	r19
     354:	27 95       	ror	r18
     356:	82 2b       	or	r24, r18
     358:	93 2b       	or	r25, r19
     35a:	a4 2b       	or	r26, r20
     35c:	b5 2b       	or	r27, r21
     35e:	84 83       	std	Z+4, r24	; 0x04
     360:	95 83       	std	Z+5, r25	; 0x05
     362:	a6 83       	std	Z+6, r26	; 0x06
     364:	b7 83       	std	Z+7, r27	; 0x07
     366:	82 81       	ldd	r24, Z+2	; 0x02
     368:	93 81       	ldd	r25, Z+3	; 0x03
     36a:	01 96       	adiw	r24, 0x01	; 1
     36c:	93 83       	std	Z+3, r25	; 0x03
     36e:	82 83       	std	Z+2, r24	; 0x02
     370:	df 01       	movw	r26, r30
     372:	01 c0       	rjmp	.+2      	; 0x376 <_fpadd_parts+0x28c>
     374:	d2 01       	movw	r26, r4
     376:	cd 01       	movw	r24, r26
     378:	cd b7       	in	r28, 0x3d	; 61
     37a:	de b7       	in	r29, 0x3e	; 62
     37c:	e2 e1       	ldi	r30, 0x12	; 18
     37e:	0c 94 f2 3c 	jmp	0x79e4	; 0x79e4 <__epilogue_restores__>

00000382 <__subsf3>:
     382:	a0 e2       	ldi	r26, 0x20	; 32
     384:	b0 e0       	ldi	r27, 0x00	; 0
     386:	e7 ec       	ldi	r30, 0xC7	; 199
     388:	f1 e0       	ldi	r31, 0x01	; 1
     38a:	0c 94 e2 3c 	jmp	0x79c4	; 0x79c4 <__prologue_saves__+0x18>
     38e:	69 83       	std	Y+1, r22	; 0x01
     390:	7a 83       	std	Y+2, r23	; 0x02
     392:	8b 83       	std	Y+3, r24	; 0x03
     394:	9c 83       	std	Y+4, r25	; 0x04
     396:	2d 83       	std	Y+5, r18	; 0x05
     398:	3e 83       	std	Y+6, r19	; 0x06
     39a:	4f 83       	std	Y+7, r20	; 0x07
     39c:	58 87       	std	Y+8, r21	; 0x08
     39e:	e9 e0       	ldi	r30, 0x09	; 9
     3a0:	ee 2e       	mov	r14, r30
     3a2:	f1 2c       	mov	r15, r1
     3a4:	ec 0e       	add	r14, r28
     3a6:	fd 1e       	adc	r15, r29
     3a8:	ce 01       	movw	r24, r28
     3aa:	01 96       	adiw	r24, 0x01	; 1
     3ac:	b7 01       	movw	r22, r14
     3ae:	0e 94 a4 06 	call	0xd48	; 0xd48 <__unpack_f>
     3b2:	8e 01       	movw	r16, r28
     3b4:	0f 5e       	subi	r16, 0xEF	; 239
     3b6:	1f 4f       	sbci	r17, 0xFF	; 255
     3b8:	ce 01       	movw	r24, r28
     3ba:	05 96       	adiw	r24, 0x05	; 5
     3bc:	b8 01       	movw	r22, r16
     3be:	0e 94 a4 06 	call	0xd48	; 0xd48 <__unpack_f>
     3c2:	8a 89       	ldd	r24, Y+18	; 0x12
     3c4:	91 e0       	ldi	r25, 0x01	; 1
     3c6:	89 27       	eor	r24, r25
     3c8:	8a 8b       	std	Y+18, r24	; 0x12
     3ca:	c7 01       	movw	r24, r14
     3cc:	b8 01       	movw	r22, r16
     3ce:	ae 01       	movw	r20, r28
     3d0:	47 5e       	subi	r20, 0xE7	; 231
     3d2:	5f 4f       	sbci	r21, 0xFF	; 255
     3d4:	0e 94 75 00 	call	0xea	; 0xea <_fpadd_parts>
     3d8:	0e 94 cf 05 	call	0xb9e	; 0xb9e <__pack_f>
     3dc:	a0 96       	adiw	r28, 0x20	; 32
     3de:	e6 e0       	ldi	r30, 0x06	; 6
     3e0:	0c 94 fe 3c 	jmp	0x79fc	; 0x79fc <__epilogue_restores__+0x18>

000003e4 <__addsf3>:
     3e4:	a0 e2       	ldi	r26, 0x20	; 32
     3e6:	b0 e0       	ldi	r27, 0x00	; 0
     3e8:	e8 ef       	ldi	r30, 0xF8	; 248
     3ea:	f1 e0       	ldi	r31, 0x01	; 1
     3ec:	0c 94 e2 3c 	jmp	0x79c4	; 0x79c4 <__prologue_saves__+0x18>
     3f0:	69 83       	std	Y+1, r22	; 0x01
     3f2:	7a 83       	std	Y+2, r23	; 0x02
     3f4:	8b 83       	std	Y+3, r24	; 0x03
     3f6:	9c 83       	std	Y+4, r25	; 0x04
     3f8:	2d 83       	std	Y+5, r18	; 0x05
     3fa:	3e 83       	std	Y+6, r19	; 0x06
     3fc:	4f 83       	std	Y+7, r20	; 0x07
     3fe:	58 87       	std	Y+8, r21	; 0x08
     400:	f9 e0       	ldi	r31, 0x09	; 9
     402:	ef 2e       	mov	r14, r31
     404:	f1 2c       	mov	r15, r1
     406:	ec 0e       	add	r14, r28
     408:	fd 1e       	adc	r15, r29
     40a:	ce 01       	movw	r24, r28
     40c:	01 96       	adiw	r24, 0x01	; 1
     40e:	b7 01       	movw	r22, r14
     410:	0e 94 a4 06 	call	0xd48	; 0xd48 <__unpack_f>
     414:	8e 01       	movw	r16, r28
     416:	0f 5e       	subi	r16, 0xEF	; 239
     418:	1f 4f       	sbci	r17, 0xFF	; 255
     41a:	ce 01       	movw	r24, r28
     41c:	05 96       	adiw	r24, 0x05	; 5
     41e:	b8 01       	movw	r22, r16
     420:	0e 94 a4 06 	call	0xd48	; 0xd48 <__unpack_f>
     424:	c7 01       	movw	r24, r14
     426:	b8 01       	movw	r22, r16
     428:	ae 01       	movw	r20, r28
     42a:	47 5e       	subi	r20, 0xE7	; 231
     42c:	5f 4f       	sbci	r21, 0xFF	; 255
     42e:	0e 94 75 00 	call	0xea	; 0xea <_fpadd_parts>
     432:	0e 94 cf 05 	call	0xb9e	; 0xb9e <__pack_f>
     436:	a0 96       	adiw	r28, 0x20	; 32
     438:	e6 e0       	ldi	r30, 0x06	; 6
     43a:	0c 94 fe 3c 	jmp	0x79fc	; 0x79fc <__epilogue_restores__+0x18>

0000043e <__mulsf3>:
     43e:	a0 e2       	ldi	r26, 0x20	; 32
     440:	b0 e0       	ldi	r27, 0x00	; 0
     442:	e5 e2       	ldi	r30, 0x25	; 37
     444:	f2 e0       	ldi	r31, 0x02	; 2
     446:	0c 94 d6 3c 	jmp	0x79ac	; 0x79ac <__prologue_saves__>
     44a:	69 83       	std	Y+1, r22	; 0x01
     44c:	7a 83       	std	Y+2, r23	; 0x02
     44e:	8b 83       	std	Y+3, r24	; 0x03
     450:	9c 83       	std	Y+4, r25	; 0x04
     452:	2d 83       	std	Y+5, r18	; 0x05
     454:	3e 83       	std	Y+6, r19	; 0x06
     456:	4f 83       	std	Y+7, r20	; 0x07
     458:	58 87       	std	Y+8, r21	; 0x08
     45a:	ce 01       	movw	r24, r28
     45c:	01 96       	adiw	r24, 0x01	; 1
     45e:	be 01       	movw	r22, r28
     460:	67 5f       	subi	r22, 0xF7	; 247
     462:	7f 4f       	sbci	r23, 0xFF	; 255
     464:	0e 94 a4 06 	call	0xd48	; 0xd48 <__unpack_f>
     468:	ce 01       	movw	r24, r28
     46a:	05 96       	adiw	r24, 0x05	; 5
     46c:	be 01       	movw	r22, r28
     46e:	6f 5e       	subi	r22, 0xEF	; 239
     470:	7f 4f       	sbci	r23, 0xFF	; 255
     472:	0e 94 a4 06 	call	0xd48	; 0xd48 <__unpack_f>
     476:	99 85       	ldd	r25, Y+9	; 0x09
     478:	92 30       	cpi	r25, 0x02	; 2
     47a:	88 f0       	brcs	.+34     	; 0x49e <__mulsf3+0x60>
     47c:	89 89       	ldd	r24, Y+17	; 0x11
     47e:	82 30       	cpi	r24, 0x02	; 2
     480:	c8 f0       	brcs	.+50     	; 0x4b4 <__mulsf3+0x76>
     482:	94 30       	cpi	r25, 0x04	; 4
     484:	19 f4       	brne	.+6      	; 0x48c <__mulsf3+0x4e>
     486:	82 30       	cpi	r24, 0x02	; 2
     488:	51 f4       	brne	.+20     	; 0x49e <__mulsf3+0x60>
     48a:	04 c0       	rjmp	.+8      	; 0x494 <__mulsf3+0x56>
     48c:	84 30       	cpi	r24, 0x04	; 4
     48e:	29 f4       	brne	.+10     	; 0x49a <__mulsf3+0x5c>
     490:	92 30       	cpi	r25, 0x02	; 2
     492:	81 f4       	brne	.+32     	; 0x4b4 <__mulsf3+0x76>
     494:	8b e8       	ldi	r24, 0x8B	; 139
     496:	92 e0       	ldi	r25, 0x02	; 2
     498:	c6 c0       	rjmp	.+396    	; 0x626 <__mulsf3+0x1e8>
     49a:	92 30       	cpi	r25, 0x02	; 2
     49c:	49 f4       	brne	.+18     	; 0x4b0 <__mulsf3+0x72>
     49e:	20 e0       	ldi	r18, 0x00	; 0
     4a0:	9a 85       	ldd	r25, Y+10	; 0x0a
     4a2:	8a 89       	ldd	r24, Y+18	; 0x12
     4a4:	98 13       	cpse	r25, r24
     4a6:	21 e0       	ldi	r18, 0x01	; 1
     4a8:	2a 87       	std	Y+10, r18	; 0x0a
     4aa:	ce 01       	movw	r24, r28
     4ac:	09 96       	adiw	r24, 0x09	; 9
     4ae:	bb c0       	rjmp	.+374    	; 0x626 <__mulsf3+0x1e8>
     4b0:	82 30       	cpi	r24, 0x02	; 2
     4b2:	49 f4       	brne	.+18     	; 0x4c6 <__mulsf3+0x88>
     4b4:	20 e0       	ldi	r18, 0x00	; 0
     4b6:	9a 85       	ldd	r25, Y+10	; 0x0a
     4b8:	8a 89       	ldd	r24, Y+18	; 0x12
     4ba:	98 13       	cpse	r25, r24
     4bc:	21 e0       	ldi	r18, 0x01	; 1
     4be:	2a 8b       	std	Y+18, r18	; 0x12
     4c0:	ce 01       	movw	r24, r28
     4c2:	41 96       	adiw	r24, 0x11	; 17
     4c4:	b0 c0       	rjmp	.+352    	; 0x626 <__mulsf3+0x1e8>
     4c6:	2d 84       	ldd	r2, Y+13	; 0x0d
     4c8:	3e 84       	ldd	r3, Y+14	; 0x0e
     4ca:	4f 84       	ldd	r4, Y+15	; 0x0f
     4cc:	58 88       	ldd	r5, Y+16	; 0x10
     4ce:	6d 88       	ldd	r6, Y+21	; 0x15
     4d0:	7e 88       	ldd	r7, Y+22	; 0x16
     4d2:	8f 88       	ldd	r8, Y+23	; 0x17
     4d4:	98 8c       	ldd	r9, Y+24	; 0x18
     4d6:	ee 24       	eor	r14, r14
     4d8:	ff 24       	eor	r15, r15
     4da:	87 01       	movw	r16, r14
     4dc:	aa 24       	eor	r10, r10
     4de:	bb 24       	eor	r11, r11
     4e0:	65 01       	movw	r12, r10
     4e2:	40 e0       	ldi	r20, 0x00	; 0
     4e4:	50 e0       	ldi	r21, 0x00	; 0
     4e6:	60 e0       	ldi	r22, 0x00	; 0
     4e8:	70 e0       	ldi	r23, 0x00	; 0
     4ea:	e0 e0       	ldi	r30, 0x00	; 0
     4ec:	f0 e0       	ldi	r31, 0x00	; 0
     4ee:	c1 01       	movw	r24, r2
     4f0:	81 70       	andi	r24, 0x01	; 1
     4f2:	90 70       	andi	r25, 0x00	; 0
     4f4:	89 2b       	or	r24, r25
     4f6:	e9 f0       	breq	.+58     	; 0x532 <__mulsf3+0xf4>
     4f8:	e6 0c       	add	r14, r6
     4fa:	f7 1c       	adc	r15, r7
     4fc:	08 1d       	adc	r16, r8
     4fe:	19 1d       	adc	r17, r9
     500:	9a 01       	movw	r18, r20
     502:	ab 01       	movw	r20, r22
     504:	2a 0d       	add	r18, r10
     506:	3b 1d       	adc	r19, r11
     508:	4c 1d       	adc	r20, r12
     50a:	5d 1d       	adc	r21, r13
     50c:	80 e0       	ldi	r24, 0x00	; 0
     50e:	90 e0       	ldi	r25, 0x00	; 0
     510:	a0 e0       	ldi	r26, 0x00	; 0
     512:	b0 e0       	ldi	r27, 0x00	; 0
     514:	e6 14       	cp	r14, r6
     516:	f7 04       	cpc	r15, r7
     518:	08 05       	cpc	r16, r8
     51a:	19 05       	cpc	r17, r9
     51c:	20 f4       	brcc	.+8      	; 0x526 <__mulsf3+0xe8>
     51e:	81 e0       	ldi	r24, 0x01	; 1
     520:	90 e0       	ldi	r25, 0x00	; 0
     522:	a0 e0       	ldi	r26, 0x00	; 0
     524:	b0 e0       	ldi	r27, 0x00	; 0
     526:	ba 01       	movw	r22, r20
     528:	a9 01       	movw	r20, r18
     52a:	48 0f       	add	r20, r24
     52c:	59 1f       	adc	r21, r25
     52e:	6a 1f       	adc	r22, r26
     530:	7b 1f       	adc	r23, r27
     532:	aa 0c       	add	r10, r10
     534:	bb 1c       	adc	r11, r11
     536:	cc 1c       	adc	r12, r12
     538:	dd 1c       	adc	r13, r13
     53a:	97 fe       	sbrs	r9, 7
     53c:	08 c0       	rjmp	.+16     	; 0x54e <__mulsf3+0x110>
     53e:	81 e0       	ldi	r24, 0x01	; 1
     540:	90 e0       	ldi	r25, 0x00	; 0
     542:	a0 e0       	ldi	r26, 0x00	; 0
     544:	b0 e0       	ldi	r27, 0x00	; 0
     546:	a8 2a       	or	r10, r24
     548:	b9 2a       	or	r11, r25
     54a:	ca 2a       	or	r12, r26
     54c:	db 2a       	or	r13, r27
     54e:	31 96       	adiw	r30, 0x01	; 1
     550:	e0 32       	cpi	r30, 0x20	; 32
     552:	f1 05       	cpc	r31, r1
     554:	49 f0       	breq	.+18     	; 0x568 <__mulsf3+0x12a>
     556:	66 0c       	add	r6, r6
     558:	77 1c       	adc	r7, r7
     55a:	88 1c       	adc	r8, r8
     55c:	99 1c       	adc	r9, r9
     55e:	56 94       	lsr	r5
     560:	47 94       	ror	r4
     562:	37 94       	ror	r3
     564:	27 94       	ror	r2
     566:	c3 cf       	rjmp	.-122    	; 0x4ee <__mulsf3+0xb0>
     568:	fa 85       	ldd	r31, Y+10	; 0x0a
     56a:	ea 89       	ldd	r30, Y+18	; 0x12
     56c:	2b 89       	ldd	r18, Y+19	; 0x13
     56e:	3c 89       	ldd	r19, Y+20	; 0x14
     570:	8b 85       	ldd	r24, Y+11	; 0x0b
     572:	9c 85       	ldd	r25, Y+12	; 0x0c
     574:	28 0f       	add	r18, r24
     576:	39 1f       	adc	r19, r25
     578:	2e 5f       	subi	r18, 0xFE	; 254
     57a:	3f 4f       	sbci	r19, 0xFF	; 255
     57c:	17 c0       	rjmp	.+46     	; 0x5ac <__mulsf3+0x16e>
     57e:	ca 01       	movw	r24, r20
     580:	81 70       	andi	r24, 0x01	; 1
     582:	90 70       	andi	r25, 0x00	; 0
     584:	89 2b       	or	r24, r25
     586:	61 f0       	breq	.+24     	; 0x5a0 <__mulsf3+0x162>
     588:	16 95       	lsr	r17
     58a:	07 95       	ror	r16
     58c:	f7 94       	ror	r15
     58e:	e7 94       	ror	r14
     590:	80 e0       	ldi	r24, 0x00	; 0
     592:	90 e0       	ldi	r25, 0x00	; 0
     594:	a0 e0       	ldi	r26, 0x00	; 0
     596:	b0 e8       	ldi	r27, 0x80	; 128
     598:	e8 2a       	or	r14, r24
     59a:	f9 2a       	or	r15, r25
     59c:	0a 2b       	or	r16, r26
     59e:	1b 2b       	or	r17, r27
     5a0:	76 95       	lsr	r23
     5a2:	67 95       	ror	r22
     5a4:	57 95       	ror	r21
     5a6:	47 95       	ror	r20
     5a8:	2f 5f       	subi	r18, 0xFF	; 255
     5aa:	3f 4f       	sbci	r19, 0xFF	; 255
     5ac:	77 fd       	sbrc	r23, 7
     5ae:	e7 cf       	rjmp	.-50     	; 0x57e <__mulsf3+0x140>
     5b0:	0c c0       	rjmp	.+24     	; 0x5ca <__mulsf3+0x18c>
     5b2:	44 0f       	add	r20, r20
     5b4:	55 1f       	adc	r21, r21
     5b6:	66 1f       	adc	r22, r22
     5b8:	77 1f       	adc	r23, r23
     5ba:	17 fd       	sbrc	r17, 7
     5bc:	41 60       	ori	r20, 0x01	; 1
     5be:	ee 0c       	add	r14, r14
     5c0:	ff 1c       	adc	r15, r15
     5c2:	00 1f       	adc	r16, r16
     5c4:	11 1f       	adc	r17, r17
     5c6:	21 50       	subi	r18, 0x01	; 1
     5c8:	30 40       	sbci	r19, 0x00	; 0
     5ca:	40 30       	cpi	r20, 0x00	; 0
     5cc:	90 e0       	ldi	r25, 0x00	; 0
     5ce:	59 07       	cpc	r21, r25
     5d0:	90 e0       	ldi	r25, 0x00	; 0
     5d2:	69 07       	cpc	r22, r25
     5d4:	90 e4       	ldi	r25, 0x40	; 64
     5d6:	79 07       	cpc	r23, r25
     5d8:	60 f3       	brcs	.-40     	; 0x5b2 <__mulsf3+0x174>
     5da:	2b 8f       	std	Y+27, r18	; 0x1b
     5dc:	3c 8f       	std	Y+28, r19	; 0x1c
     5de:	db 01       	movw	r26, r22
     5e0:	ca 01       	movw	r24, r20
     5e2:	8f 77       	andi	r24, 0x7F	; 127
     5e4:	90 70       	andi	r25, 0x00	; 0
     5e6:	a0 70       	andi	r26, 0x00	; 0
     5e8:	b0 70       	andi	r27, 0x00	; 0
     5ea:	80 34       	cpi	r24, 0x40	; 64
     5ec:	91 05       	cpc	r25, r1
     5ee:	a1 05       	cpc	r26, r1
     5f0:	b1 05       	cpc	r27, r1
     5f2:	61 f4       	brne	.+24     	; 0x60c <__mulsf3+0x1ce>
     5f4:	47 fd       	sbrc	r20, 7
     5f6:	0a c0       	rjmp	.+20     	; 0x60c <__mulsf3+0x1ce>
     5f8:	e1 14       	cp	r14, r1
     5fa:	f1 04       	cpc	r15, r1
     5fc:	01 05       	cpc	r16, r1
     5fe:	11 05       	cpc	r17, r1
     600:	29 f0       	breq	.+10     	; 0x60c <__mulsf3+0x1ce>
     602:	40 5c       	subi	r20, 0xC0	; 192
     604:	5f 4f       	sbci	r21, 0xFF	; 255
     606:	6f 4f       	sbci	r22, 0xFF	; 255
     608:	7f 4f       	sbci	r23, 0xFF	; 255
     60a:	40 78       	andi	r20, 0x80	; 128
     60c:	1a 8e       	std	Y+26, r1	; 0x1a
     60e:	fe 17       	cp	r31, r30
     610:	11 f0       	breq	.+4      	; 0x616 <__mulsf3+0x1d8>
     612:	81 e0       	ldi	r24, 0x01	; 1
     614:	8a 8f       	std	Y+26, r24	; 0x1a
     616:	4d 8f       	std	Y+29, r20	; 0x1d
     618:	5e 8f       	std	Y+30, r21	; 0x1e
     61a:	6f 8f       	std	Y+31, r22	; 0x1f
     61c:	78 a3       	std	Y+32, r23	; 0x20
     61e:	83 e0       	ldi	r24, 0x03	; 3
     620:	89 8f       	std	Y+25, r24	; 0x19
     622:	ce 01       	movw	r24, r28
     624:	49 96       	adiw	r24, 0x19	; 25
     626:	0e 94 cf 05 	call	0xb9e	; 0xb9e <__pack_f>
     62a:	a0 96       	adiw	r28, 0x20	; 32
     62c:	e2 e1       	ldi	r30, 0x12	; 18
     62e:	0c 94 f2 3c 	jmp	0x79e4	; 0x79e4 <__epilogue_restores__>

00000632 <__divsf3>:
     632:	a8 e1       	ldi	r26, 0x18	; 24
     634:	b0 e0       	ldi	r27, 0x00	; 0
     636:	ef e1       	ldi	r30, 0x1F	; 31
     638:	f3 e0       	ldi	r31, 0x03	; 3
     63a:	0c 94 de 3c 	jmp	0x79bc	; 0x79bc <__prologue_saves__+0x10>
     63e:	69 83       	std	Y+1, r22	; 0x01
     640:	7a 83       	std	Y+2, r23	; 0x02
     642:	8b 83       	std	Y+3, r24	; 0x03
     644:	9c 83       	std	Y+4, r25	; 0x04
     646:	2d 83       	std	Y+5, r18	; 0x05
     648:	3e 83       	std	Y+6, r19	; 0x06
     64a:	4f 83       	std	Y+7, r20	; 0x07
     64c:	58 87       	std	Y+8, r21	; 0x08
     64e:	b9 e0       	ldi	r27, 0x09	; 9
     650:	eb 2e       	mov	r14, r27
     652:	f1 2c       	mov	r15, r1
     654:	ec 0e       	add	r14, r28
     656:	fd 1e       	adc	r15, r29
     658:	ce 01       	movw	r24, r28
     65a:	01 96       	adiw	r24, 0x01	; 1
     65c:	b7 01       	movw	r22, r14
     65e:	0e 94 a4 06 	call	0xd48	; 0xd48 <__unpack_f>
     662:	8e 01       	movw	r16, r28
     664:	0f 5e       	subi	r16, 0xEF	; 239
     666:	1f 4f       	sbci	r17, 0xFF	; 255
     668:	ce 01       	movw	r24, r28
     66a:	05 96       	adiw	r24, 0x05	; 5
     66c:	b8 01       	movw	r22, r16
     66e:	0e 94 a4 06 	call	0xd48	; 0xd48 <__unpack_f>
     672:	29 85       	ldd	r18, Y+9	; 0x09
     674:	22 30       	cpi	r18, 0x02	; 2
     676:	08 f4       	brcc	.+2      	; 0x67a <__divsf3+0x48>
     678:	7e c0       	rjmp	.+252    	; 0x776 <__divsf3+0x144>
     67a:	39 89       	ldd	r19, Y+17	; 0x11
     67c:	32 30       	cpi	r19, 0x02	; 2
     67e:	10 f4       	brcc	.+4      	; 0x684 <__divsf3+0x52>
     680:	b8 01       	movw	r22, r16
     682:	7c c0       	rjmp	.+248    	; 0x77c <__divsf3+0x14a>
     684:	8a 85       	ldd	r24, Y+10	; 0x0a
     686:	9a 89       	ldd	r25, Y+18	; 0x12
     688:	89 27       	eor	r24, r25
     68a:	8a 87       	std	Y+10, r24	; 0x0a
     68c:	24 30       	cpi	r18, 0x04	; 4
     68e:	11 f0       	breq	.+4      	; 0x694 <__divsf3+0x62>
     690:	22 30       	cpi	r18, 0x02	; 2
     692:	31 f4       	brne	.+12     	; 0x6a0 <__divsf3+0x6e>
     694:	23 17       	cp	r18, r19
     696:	09 f0       	breq	.+2      	; 0x69a <__divsf3+0x68>
     698:	6e c0       	rjmp	.+220    	; 0x776 <__divsf3+0x144>
     69a:	6b e8       	ldi	r22, 0x8B	; 139
     69c:	72 e0       	ldi	r23, 0x02	; 2
     69e:	6e c0       	rjmp	.+220    	; 0x77c <__divsf3+0x14a>
     6a0:	34 30       	cpi	r19, 0x04	; 4
     6a2:	39 f4       	brne	.+14     	; 0x6b2 <__divsf3+0x80>
     6a4:	1d 86       	std	Y+13, r1	; 0x0d
     6a6:	1e 86       	std	Y+14, r1	; 0x0e
     6a8:	1f 86       	std	Y+15, r1	; 0x0f
     6aa:	18 8a       	std	Y+16, r1	; 0x10
     6ac:	1c 86       	std	Y+12, r1	; 0x0c
     6ae:	1b 86       	std	Y+11, r1	; 0x0b
     6b0:	04 c0       	rjmp	.+8      	; 0x6ba <__divsf3+0x88>
     6b2:	32 30       	cpi	r19, 0x02	; 2
     6b4:	21 f4       	brne	.+8      	; 0x6be <__divsf3+0x8c>
     6b6:	84 e0       	ldi	r24, 0x04	; 4
     6b8:	89 87       	std	Y+9, r24	; 0x09
     6ba:	b7 01       	movw	r22, r14
     6bc:	5f c0       	rjmp	.+190    	; 0x77c <__divsf3+0x14a>
     6be:	2b 85       	ldd	r18, Y+11	; 0x0b
     6c0:	3c 85       	ldd	r19, Y+12	; 0x0c
     6c2:	8b 89       	ldd	r24, Y+19	; 0x13
     6c4:	9c 89       	ldd	r25, Y+20	; 0x14
     6c6:	28 1b       	sub	r18, r24
     6c8:	39 0b       	sbc	r19, r25
     6ca:	3c 87       	std	Y+12, r19	; 0x0c
     6cc:	2b 87       	std	Y+11, r18	; 0x0b
     6ce:	ed 84       	ldd	r14, Y+13	; 0x0d
     6d0:	fe 84       	ldd	r15, Y+14	; 0x0e
     6d2:	0f 85       	ldd	r16, Y+15	; 0x0f
     6d4:	18 89       	ldd	r17, Y+16	; 0x10
     6d6:	ad 88       	ldd	r10, Y+21	; 0x15
     6d8:	be 88       	ldd	r11, Y+22	; 0x16
     6da:	cf 88       	ldd	r12, Y+23	; 0x17
     6dc:	d8 8c       	ldd	r13, Y+24	; 0x18
     6de:	ea 14       	cp	r14, r10
     6e0:	fb 04       	cpc	r15, r11
     6e2:	0c 05       	cpc	r16, r12
     6e4:	1d 05       	cpc	r17, r13
     6e6:	40 f4       	brcc	.+16     	; 0x6f8 <__divsf3+0xc6>
     6e8:	ee 0c       	add	r14, r14
     6ea:	ff 1c       	adc	r15, r15
     6ec:	00 1f       	adc	r16, r16
     6ee:	11 1f       	adc	r17, r17
     6f0:	21 50       	subi	r18, 0x01	; 1
     6f2:	30 40       	sbci	r19, 0x00	; 0
     6f4:	3c 87       	std	Y+12, r19	; 0x0c
     6f6:	2b 87       	std	Y+11, r18	; 0x0b
     6f8:	20 e0       	ldi	r18, 0x00	; 0
     6fa:	30 e0       	ldi	r19, 0x00	; 0
     6fc:	40 e0       	ldi	r20, 0x00	; 0
     6fe:	50 e0       	ldi	r21, 0x00	; 0
     700:	80 e0       	ldi	r24, 0x00	; 0
     702:	90 e0       	ldi	r25, 0x00	; 0
     704:	a0 e0       	ldi	r26, 0x00	; 0
     706:	b0 e4       	ldi	r27, 0x40	; 64
     708:	60 e0       	ldi	r22, 0x00	; 0
     70a:	70 e0       	ldi	r23, 0x00	; 0
     70c:	ea 14       	cp	r14, r10
     70e:	fb 04       	cpc	r15, r11
     710:	0c 05       	cpc	r16, r12
     712:	1d 05       	cpc	r17, r13
     714:	40 f0       	brcs	.+16     	; 0x726 <__divsf3+0xf4>
     716:	28 2b       	or	r18, r24
     718:	39 2b       	or	r19, r25
     71a:	4a 2b       	or	r20, r26
     71c:	5b 2b       	or	r21, r27
     71e:	ea 18       	sub	r14, r10
     720:	fb 08       	sbc	r15, r11
     722:	0c 09       	sbc	r16, r12
     724:	1d 09       	sbc	r17, r13
     726:	b6 95       	lsr	r27
     728:	a7 95       	ror	r26
     72a:	97 95       	ror	r25
     72c:	87 95       	ror	r24
     72e:	ee 0c       	add	r14, r14
     730:	ff 1c       	adc	r15, r15
     732:	00 1f       	adc	r16, r16
     734:	11 1f       	adc	r17, r17
     736:	6f 5f       	subi	r22, 0xFF	; 255
     738:	7f 4f       	sbci	r23, 0xFF	; 255
     73a:	6f 31       	cpi	r22, 0x1F	; 31
     73c:	71 05       	cpc	r23, r1
     73e:	31 f7       	brne	.-52     	; 0x70c <__divsf3+0xda>
     740:	da 01       	movw	r26, r20
     742:	c9 01       	movw	r24, r18
     744:	8f 77       	andi	r24, 0x7F	; 127
     746:	90 70       	andi	r25, 0x00	; 0
     748:	a0 70       	andi	r26, 0x00	; 0
     74a:	b0 70       	andi	r27, 0x00	; 0
     74c:	80 34       	cpi	r24, 0x40	; 64
     74e:	91 05       	cpc	r25, r1
     750:	a1 05       	cpc	r26, r1
     752:	b1 05       	cpc	r27, r1
     754:	61 f4       	brne	.+24     	; 0x76e <__divsf3+0x13c>
     756:	27 fd       	sbrc	r18, 7
     758:	0a c0       	rjmp	.+20     	; 0x76e <__divsf3+0x13c>
     75a:	e1 14       	cp	r14, r1
     75c:	f1 04       	cpc	r15, r1
     75e:	01 05       	cpc	r16, r1
     760:	11 05       	cpc	r17, r1
     762:	29 f0       	breq	.+10     	; 0x76e <__divsf3+0x13c>
     764:	20 5c       	subi	r18, 0xC0	; 192
     766:	3f 4f       	sbci	r19, 0xFF	; 255
     768:	4f 4f       	sbci	r20, 0xFF	; 255
     76a:	5f 4f       	sbci	r21, 0xFF	; 255
     76c:	20 78       	andi	r18, 0x80	; 128
     76e:	2d 87       	std	Y+13, r18	; 0x0d
     770:	3e 87       	std	Y+14, r19	; 0x0e
     772:	4f 87       	std	Y+15, r20	; 0x0f
     774:	58 8b       	std	Y+16, r21	; 0x10
     776:	be 01       	movw	r22, r28
     778:	67 5f       	subi	r22, 0xF7	; 247
     77a:	7f 4f       	sbci	r23, 0xFF	; 255
     77c:	cb 01       	movw	r24, r22
     77e:	0e 94 cf 05 	call	0xb9e	; 0xb9e <__pack_f>
     782:	68 96       	adiw	r28, 0x18	; 24
     784:	ea e0       	ldi	r30, 0x0A	; 10
     786:	0c 94 fa 3c 	jmp	0x79f4	; 0x79f4 <__epilogue_restores__+0x10>

0000078a <__gtsf2>:
     78a:	a8 e1       	ldi	r26, 0x18	; 24
     78c:	b0 e0       	ldi	r27, 0x00	; 0
     78e:	eb ec       	ldi	r30, 0xCB	; 203
     790:	f3 e0       	ldi	r31, 0x03	; 3
     792:	0c 94 e2 3c 	jmp	0x79c4	; 0x79c4 <__prologue_saves__+0x18>
     796:	69 83       	std	Y+1, r22	; 0x01
     798:	7a 83       	std	Y+2, r23	; 0x02
     79a:	8b 83       	std	Y+3, r24	; 0x03
     79c:	9c 83       	std	Y+4, r25	; 0x04
     79e:	2d 83       	std	Y+5, r18	; 0x05
     7a0:	3e 83       	std	Y+6, r19	; 0x06
     7a2:	4f 83       	std	Y+7, r20	; 0x07
     7a4:	58 87       	std	Y+8, r21	; 0x08
     7a6:	89 e0       	ldi	r24, 0x09	; 9
     7a8:	e8 2e       	mov	r14, r24
     7aa:	f1 2c       	mov	r15, r1
     7ac:	ec 0e       	add	r14, r28
     7ae:	fd 1e       	adc	r15, r29
     7b0:	ce 01       	movw	r24, r28
     7b2:	01 96       	adiw	r24, 0x01	; 1
     7b4:	b7 01       	movw	r22, r14
     7b6:	0e 94 a4 06 	call	0xd48	; 0xd48 <__unpack_f>
     7ba:	8e 01       	movw	r16, r28
     7bc:	0f 5e       	subi	r16, 0xEF	; 239
     7be:	1f 4f       	sbci	r17, 0xFF	; 255
     7c0:	ce 01       	movw	r24, r28
     7c2:	05 96       	adiw	r24, 0x05	; 5
     7c4:	b8 01       	movw	r22, r16
     7c6:	0e 94 a4 06 	call	0xd48	; 0xd48 <__unpack_f>
     7ca:	89 85       	ldd	r24, Y+9	; 0x09
     7cc:	82 30       	cpi	r24, 0x02	; 2
     7ce:	40 f0       	brcs	.+16     	; 0x7e0 <__gtsf2+0x56>
     7d0:	89 89       	ldd	r24, Y+17	; 0x11
     7d2:	82 30       	cpi	r24, 0x02	; 2
     7d4:	28 f0       	brcs	.+10     	; 0x7e0 <__gtsf2+0x56>
     7d6:	c7 01       	movw	r24, r14
     7d8:	b8 01       	movw	r22, r16
     7da:	0e 94 1c 07 	call	0xe38	; 0xe38 <__fpcmp_parts_f>
     7de:	01 c0       	rjmp	.+2      	; 0x7e2 <__gtsf2+0x58>
     7e0:	8f ef       	ldi	r24, 0xFF	; 255
     7e2:	68 96       	adiw	r28, 0x18	; 24
     7e4:	e6 e0       	ldi	r30, 0x06	; 6
     7e6:	0c 94 fe 3c 	jmp	0x79fc	; 0x79fc <__epilogue_restores__+0x18>

000007ea <__gesf2>:
     7ea:	a8 e1       	ldi	r26, 0x18	; 24
     7ec:	b0 e0       	ldi	r27, 0x00	; 0
     7ee:	eb ef       	ldi	r30, 0xFB	; 251
     7f0:	f3 e0       	ldi	r31, 0x03	; 3
     7f2:	0c 94 e2 3c 	jmp	0x79c4	; 0x79c4 <__prologue_saves__+0x18>
     7f6:	69 83       	std	Y+1, r22	; 0x01
     7f8:	7a 83       	std	Y+2, r23	; 0x02
     7fa:	8b 83       	std	Y+3, r24	; 0x03
     7fc:	9c 83       	std	Y+4, r25	; 0x04
     7fe:	2d 83       	std	Y+5, r18	; 0x05
     800:	3e 83       	std	Y+6, r19	; 0x06
     802:	4f 83       	std	Y+7, r20	; 0x07
     804:	58 87       	std	Y+8, r21	; 0x08
     806:	89 e0       	ldi	r24, 0x09	; 9
     808:	e8 2e       	mov	r14, r24
     80a:	f1 2c       	mov	r15, r1
     80c:	ec 0e       	add	r14, r28
     80e:	fd 1e       	adc	r15, r29
     810:	ce 01       	movw	r24, r28
     812:	01 96       	adiw	r24, 0x01	; 1
     814:	b7 01       	movw	r22, r14
     816:	0e 94 a4 06 	call	0xd48	; 0xd48 <__unpack_f>
     81a:	8e 01       	movw	r16, r28
     81c:	0f 5e       	subi	r16, 0xEF	; 239
     81e:	1f 4f       	sbci	r17, 0xFF	; 255
     820:	ce 01       	movw	r24, r28
     822:	05 96       	adiw	r24, 0x05	; 5
     824:	b8 01       	movw	r22, r16
     826:	0e 94 a4 06 	call	0xd48	; 0xd48 <__unpack_f>
     82a:	89 85       	ldd	r24, Y+9	; 0x09
     82c:	82 30       	cpi	r24, 0x02	; 2
     82e:	40 f0       	brcs	.+16     	; 0x840 <__gesf2+0x56>
     830:	89 89       	ldd	r24, Y+17	; 0x11
     832:	82 30       	cpi	r24, 0x02	; 2
     834:	28 f0       	brcs	.+10     	; 0x840 <__gesf2+0x56>
     836:	c7 01       	movw	r24, r14
     838:	b8 01       	movw	r22, r16
     83a:	0e 94 1c 07 	call	0xe38	; 0xe38 <__fpcmp_parts_f>
     83e:	01 c0       	rjmp	.+2      	; 0x842 <__gesf2+0x58>
     840:	8f ef       	ldi	r24, 0xFF	; 255
     842:	68 96       	adiw	r28, 0x18	; 24
     844:	e6 e0       	ldi	r30, 0x06	; 6
     846:	0c 94 fe 3c 	jmp	0x79fc	; 0x79fc <__epilogue_restores__+0x18>

0000084a <__ltsf2>:
     84a:	a8 e1       	ldi	r26, 0x18	; 24
     84c:	b0 e0       	ldi	r27, 0x00	; 0
     84e:	eb e2       	ldi	r30, 0x2B	; 43
     850:	f4 e0       	ldi	r31, 0x04	; 4
     852:	0c 94 e2 3c 	jmp	0x79c4	; 0x79c4 <__prologue_saves__+0x18>
     856:	69 83       	std	Y+1, r22	; 0x01
     858:	7a 83       	std	Y+2, r23	; 0x02
     85a:	8b 83       	std	Y+3, r24	; 0x03
     85c:	9c 83       	std	Y+4, r25	; 0x04
     85e:	2d 83       	std	Y+5, r18	; 0x05
     860:	3e 83       	std	Y+6, r19	; 0x06
     862:	4f 83       	std	Y+7, r20	; 0x07
     864:	58 87       	std	Y+8, r21	; 0x08
     866:	89 e0       	ldi	r24, 0x09	; 9
     868:	e8 2e       	mov	r14, r24
     86a:	f1 2c       	mov	r15, r1
     86c:	ec 0e       	add	r14, r28
     86e:	fd 1e       	adc	r15, r29
     870:	ce 01       	movw	r24, r28
     872:	01 96       	adiw	r24, 0x01	; 1
     874:	b7 01       	movw	r22, r14
     876:	0e 94 a4 06 	call	0xd48	; 0xd48 <__unpack_f>
     87a:	8e 01       	movw	r16, r28
     87c:	0f 5e       	subi	r16, 0xEF	; 239
     87e:	1f 4f       	sbci	r17, 0xFF	; 255
     880:	ce 01       	movw	r24, r28
     882:	05 96       	adiw	r24, 0x05	; 5
     884:	b8 01       	movw	r22, r16
     886:	0e 94 a4 06 	call	0xd48	; 0xd48 <__unpack_f>
     88a:	89 85       	ldd	r24, Y+9	; 0x09
     88c:	82 30       	cpi	r24, 0x02	; 2
     88e:	40 f0       	brcs	.+16     	; 0x8a0 <__stack+0x41>
     890:	89 89       	ldd	r24, Y+17	; 0x11
     892:	82 30       	cpi	r24, 0x02	; 2
     894:	28 f0       	brcs	.+10     	; 0x8a0 <__stack+0x41>
     896:	c7 01       	movw	r24, r14
     898:	b8 01       	movw	r22, r16
     89a:	0e 94 1c 07 	call	0xe38	; 0xe38 <__fpcmp_parts_f>
     89e:	01 c0       	rjmp	.+2      	; 0x8a2 <__stack+0x43>
     8a0:	81 e0       	ldi	r24, 0x01	; 1
     8a2:	68 96       	adiw	r28, 0x18	; 24
     8a4:	e6 e0       	ldi	r30, 0x06	; 6
     8a6:	0c 94 fe 3c 	jmp	0x79fc	; 0x79fc <__epilogue_restores__+0x18>

000008aa <__floatsisf>:
     8aa:	a8 e0       	ldi	r26, 0x08	; 8
     8ac:	b0 e0       	ldi	r27, 0x00	; 0
     8ae:	eb e5       	ldi	r30, 0x5B	; 91
     8b0:	f4 e0       	ldi	r31, 0x04	; 4
     8b2:	0c 94 df 3c 	jmp	0x79be	; 0x79be <__prologue_saves__+0x12>
     8b6:	9b 01       	movw	r18, r22
     8b8:	ac 01       	movw	r20, r24
     8ba:	83 e0       	ldi	r24, 0x03	; 3
     8bc:	89 83       	std	Y+1, r24	; 0x01
     8be:	da 01       	movw	r26, r20
     8c0:	c9 01       	movw	r24, r18
     8c2:	88 27       	eor	r24, r24
     8c4:	b7 fd       	sbrc	r27, 7
     8c6:	83 95       	inc	r24
     8c8:	99 27       	eor	r25, r25
     8ca:	aa 27       	eor	r26, r26
     8cc:	bb 27       	eor	r27, r27
     8ce:	b8 2e       	mov	r11, r24
     8d0:	21 15       	cp	r18, r1
     8d2:	31 05       	cpc	r19, r1
     8d4:	41 05       	cpc	r20, r1
     8d6:	51 05       	cpc	r21, r1
     8d8:	19 f4       	brne	.+6      	; 0x8e0 <__floatsisf+0x36>
     8da:	82 e0       	ldi	r24, 0x02	; 2
     8dc:	89 83       	std	Y+1, r24	; 0x01
     8de:	3a c0       	rjmp	.+116    	; 0x954 <__floatsisf+0xaa>
     8e0:	88 23       	and	r24, r24
     8e2:	a9 f0       	breq	.+42     	; 0x90e <__floatsisf+0x64>
     8e4:	20 30       	cpi	r18, 0x00	; 0
     8e6:	80 e0       	ldi	r24, 0x00	; 0
     8e8:	38 07       	cpc	r19, r24
     8ea:	80 e0       	ldi	r24, 0x00	; 0
     8ec:	48 07       	cpc	r20, r24
     8ee:	80 e8       	ldi	r24, 0x80	; 128
     8f0:	58 07       	cpc	r21, r24
     8f2:	29 f4       	brne	.+10     	; 0x8fe <__floatsisf+0x54>
     8f4:	60 e0       	ldi	r22, 0x00	; 0
     8f6:	70 e0       	ldi	r23, 0x00	; 0
     8f8:	80 e0       	ldi	r24, 0x00	; 0
     8fa:	9f ec       	ldi	r25, 0xCF	; 207
     8fc:	30 c0       	rjmp	.+96     	; 0x95e <__floatsisf+0xb4>
     8fe:	ee 24       	eor	r14, r14
     900:	ff 24       	eor	r15, r15
     902:	87 01       	movw	r16, r14
     904:	e2 1a       	sub	r14, r18
     906:	f3 0a       	sbc	r15, r19
     908:	04 0b       	sbc	r16, r20
     90a:	15 0b       	sbc	r17, r21
     90c:	02 c0       	rjmp	.+4      	; 0x912 <__floatsisf+0x68>
     90e:	79 01       	movw	r14, r18
     910:	8a 01       	movw	r16, r20
     912:	8e e1       	ldi	r24, 0x1E	; 30
     914:	c8 2e       	mov	r12, r24
     916:	d1 2c       	mov	r13, r1
     918:	dc 82       	std	Y+4, r13	; 0x04
     91a:	cb 82       	std	Y+3, r12	; 0x03
     91c:	ed 82       	std	Y+5, r14	; 0x05
     91e:	fe 82       	std	Y+6, r15	; 0x06
     920:	0f 83       	std	Y+7, r16	; 0x07
     922:	18 87       	std	Y+8, r17	; 0x08
     924:	c8 01       	movw	r24, r16
     926:	b7 01       	movw	r22, r14
     928:	0e 94 80 05 	call	0xb00	; 0xb00 <__clzsi2>
     92c:	01 97       	sbiw	r24, 0x01	; 1
     92e:	18 16       	cp	r1, r24
     930:	19 06       	cpc	r1, r25
     932:	84 f4       	brge	.+32     	; 0x954 <__floatsisf+0xaa>
     934:	08 2e       	mov	r0, r24
     936:	04 c0       	rjmp	.+8      	; 0x940 <__floatsisf+0x96>
     938:	ee 0c       	add	r14, r14
     93a:	ff 1c       	adc	r15, r15
     93c:	00 1f       	adc	r16, r16
     93e:	11 1f       	adc	r17, r17
     940:	0a 94       	dec	r0
     942:	d2 f7       	brpl	.-12     	; 0x938 <__floatsisf+0x8e>
     944:	ed 82       	std	Y+5, r14	; 0x05
     946:	fe 82       	std	Y+6, r15	; 0x06
     948:	0f 83       	std	Y+7, r16	; 0x07
     94a:	18 87       	std	Y+8, r17	; 0x08
     94c:	c8 1a       	sub	r12, r24
     94e:	d9 0a       	sbc	r13, r25
     950:	dc 82       	std	Y+4, r13	; 0x04
     952:	cb 82       	std	Y+3, r12	; 0x03
     954:	ba 82       	std	Y+2, r11	; 0x02
     956:	ce 01       	movw	r24, r28
     958:	01 96       	adiw	r24, 0x01	; 1
     95a:	0e 94 cf 05 	call	0xb9e	; 0xb9e <__pack_f>
     95e:	28 96       	adiw	r28, 0x08	; 8
     960:	e9 e0       	ldi	r30, 0x09	; 9
     962:	0c 94 fb 3c 	jmp	0x79f6	; 0x79f6 <__epilogue_restores__+0x12>

00000966 <__fixsfsi>:
     966:	ac e0       	ldi	r26, 0x0C	; 12
     968:	b0 e0       	ldi	r27, 0x00	; 0
     96a:	e9 eb       	ldi	r30, 0xB9	; 185
     96c:	f4 e0       	ldi	r31, 0x04	; 4
     96e:	0c 94 e6 3c 	jmp	0x79cc	; 0x79cc <__prologue_saves__+0x20>
     972:	69 83       	std	Y+1, r22	; 0x01
     974:	7a 83       	std	Y+2, r23	; 0x02
     976:	8b 83       	std	Y+3, r24	; 0x03
     978:	9c 83       	std	Y+4, r25	; 0x04
     97a:	ce 01       	movw	r24, r28
     97c:	01 96       	adiw	r24, 0x01	; 1
     97e:	be 01       	movw	r22, r28
     980:	6b 5f       	subi	r22, 0xFB	; 251
     982:	7f 4f       	sbci	r23, 0xFF	; 255
     984:	0e 94 a4 06 	call	0xd48	; 0xd48 <__unpack_f>
     988:	8d 81       	ldd	r24, Y+5	; 0x05
     98a:	82 30       	cpi	r24, 0x02	; 2
     98c:	61 f1       	breq	.+88     	; 0x9e6 <__fixsfsi+0x80>
     98e:	82 30       	cpi	r24, 0x02	; 2
     990:	50 f1       	brcs	.+84     	; 0x9e6 <__fixsfsi+0x80>
     992:	84 30       	cpi	r24, 0x04	; 4
     994:	21 f4       	brne	.+8      	; 0x99e <__fixsfsi+0x38>
     996:	8e 81       	ldd	r24, Y+6	; 0x06
     998:	88 23       	and	r24, r24
     99a:	51 f1       	breq	.+84     	; 0x9f0 <__fixsfsi+0x8a>
     99c:	2e c0       	rjmp	.+92     	; 0x9fa <__fixsfsi+0x94>
     99e:	2f 81       	ldd	r18, Y+7	; 0x07
     9a0:	38 85       	ldd	r19, Y+8	; 0x08
     9a2:	37 fd       	sbrc	r19, 7
     9a4:	20 c0       	rjmp	.+64     	; 0x9e6 <__fixsfsi+0x80>
     9a6:	6e 81       	ldd	r22, Y+6	; 0x06
     9a8:	2f 31       	cpi	r18, 0x1F	; 31
     9aa:	31 05       	cpc	r19, r1
     9ac:	1c f0       	brlt	.+6      	; 0x9b4 <__fixsfsi+0x4e>
     9ae:	66 23       	and	r22, r22
     9b0:	f9 f0       	breq	.+62     	; 0x9f0 <__fixsfsi+0x8a>
     9b2:	23 c0       	rjmp	.+70     	; 0x9fa <__fixsfsi+0x94>
     9b4:	8e e1       	ldi	r24, 0x1E	; 30
     9b6:	90 e0       	ldi	r25, 0x00	; 0
     9b8:	82 1b       	sub	r24, r18
     9ba:	93 0b       	sbc	r25, r19
     9bc:	29 85       	ldd	r18, Y+9	; 0x09
     9be:	3a 85       	ldd	r19, Y+10	; 0x0a
     9c0:	4b 85       	ldd	r20, Y+11	; 0x0b
     9c2:	5c 85       	ldd	r21, Y+12	; 0x0c
     9c4:	04 c0       	rjmp	.+8      	; 0x9ce <__fixsfsi+0x68>
     9c6:	56 95       	lsr	r21
     9c8:	47 95       	ror	r20
     9ca:	37 95       	ror	r19
     9cc:	27 95       	ror	r18
     9ce:	8a 95       	dec	r24
     9d0:	d2 f7       	brpl	.-12     	; 0x9c6 <__fixsfsi+0x60>
     9d2:	66 23       	and	r22, r22
     9d4:	b1 f0       	breq	.+44     	; 0xa02 <__fixsfsi+0x9c>
     9d6:	50 95       	com	r21
     9d8:	40 95       	com	r20
     9da:	30 95       	com	r19
     9dc:	21 95       	neg	r18
     9de:	3f 4f       	sbci	r19, 0xFF	; 255
     9e0:	4f 4f       	sbci	r20, 0xFF	; 255
     9e2:	5f 4f       	sbci	r21, 0xFF	; 255
     9e4:	0e c0       	rjmp	.+28     	; 0xa02 <__fixsfsi+0x9c>
     9e6:	20 e0       	ldi	r18, 0x00	; 0
     9e8:	30 e0       	ldi	r19, 0x00	; 0
     9ea:	40 e0       	ldi	r20, 0x00	; 0
     9ec:	50 e0       	ldi	r21, 0x00	; 0
     9ee:	09 c0       	rjmp	.+18     	; 0xa02 <__fixsfsi+0x9c>
     9f0:	2f ef       	ldi	r18, 0xFF	; 255
     9f2:	3f ef       	ldi	r19, 0xFF	; 255
     9f4:	4f ef       	ldi	r20, 0xFF	; 255
     9f6:	5f e7       	ldi	r21, 0x7F	; 127
     9f8:	04 c0       	rjmp	.+8      	; 0xa02 <__fixsfsi+0x9c>
     9fa:	20 e0       	ldi	r18, 0x00	; 0
     9fc:	30 e0       	ldi	r19, 0x00	; 0
     9fe:	40 e0       	ldi	r20, 0x00	; 0
     a00:	50 e8       	ldi	r21, 0x80	; 128
     a02:	b9 01       	movw	r22, r18
     a04:	ca 01       	movw	r24, r20
     a06:	2c 96       	adiw	r28, 0x0c	; 12
     a08:	e2 e0       	ldi	r30, 0x02	; 2
     a0a:	0c 94 02 3d 	jmp	0x7a04	; 0x7a04 <__epilogue_restores__+0x20>

00000a0e <__floatunsisf>:
     a0e:	a8 e0       	ldi	r26, 0x08	; 8
     a10:	b0 e0       	ldi	r27, 0x00	; 0
     a12:	ed e0       	ldi	r30, 0x0D	; 13
     a14:	f5 e0       	ldi	r31, 0x05	; 5
     a16:	0c 94 de 3c 	jmp	0x79bc	; 0x79bc <__prologue_saves__+0x10>
     a1a:	7b 01       	movw	r14, r22
     a1c:	8c 01       	movw	r16, r24
     a1e:	61 15       	cp	r22, r1
     a20:	71 05       	cpc	r23, r1
     a22:	81 05       	cpc	r24, r1
     a24:	91 05       	cpc	r25, r1
     a26:	19 f4       	brne	.+6      	; 0xa2e <__floatunsisf+0x20>
     a28:	82 e0       	ldi	r24, 0x02	; 2
     a2a:	89 83       	std	Y+1, r24	; 0x01
     a2c:	60 c0       	rjmp	.+192    	; 0xaee <__floatunsisf+0xe0>
     a2e:	83 e0       	ldi	r24, 0x03	; 3
     a30:	89 83       	std	Y+1, r24	; 0x01
     a32:	8e e1       	ldi	r24, 0x1E	; 30
     a34:	c8 2e       	mov	r12, r24
     a36:	d1 2c       	mov	r13, r1
     a38:	dc 82       	std	Y+4, r13	; 0x04
     a3a:	cb 82       	std	Y+3, r12	; 0x03
     a3c:	ed 82       	std	Y+5, r14	; 0x05
     a3e:	fe 82       	std	Y+6, r15	; 0x06
     a40:	0f 83       	std	Y+7, r16	; 0x07
     a42:	18 87       	std	Y+8, r17	; 0x08
     a44:	c8 01       	movw	r24, r16
     a46:	b7 01       	movw	r22, r14
     a48:	0e 94 80 05 	call	0xb00	; 0xb00 <__clzsi2>
     a4c:	fc 01       	movw	r30, r24
     a4e:	31 97       	sbiw	r30, 0x01	; 1
     a50:	f7 ff       	sbrs	r31, 7
     a52:	3b c0       	rjmp	.+118    	; 0xaca <__floatunsisf+0xbc>
     a54:	22 27       	eor	r18, r18
     a56:	33 27       	eor	r19, r19
     a58:	2e 1b       	sub	r18, r30
     a5a:	3f 0b       	sbc	r19, r31
     a5c:	57 01       	movw	r10, r14
     a5e:	68 01       	movw	r12, r16
     a60:	02 2e       	mov	r0, r18
     a62:	04 c0       	rjmp	.+8      	; 0xa6c <__floatunsisf+0x5e>
     a64:	d6 94       	lsr	r13
     a66:	c7 94       	ror	r12
     a68:	b7 94       	ror	r11
     a6a:	a7 94       	ror	r10
     a6c:	0a 94       	dec	r0
     a6e:	d2 f7       	brpl	.-12     	; 0xa64 <__floatunsisf+0x56>
     a70:	40 e0       	ldi	r20, 0x00	; 0
     a72:	50 e0       	ldi	r21, 0x00	; 0
     a74:	60 e0       	ldi	r22, 0x00	; 0
     a76:	70 e0       	ldi	r23, 0x00	; 0
     a78:	81 e0       	ldi	r24, 0x01	; 1
     a7a:	90 e0       	ldi	r25, 0x00	; 0
     a7c:	a0 e0       	ldi	r26, 0x00	; 0
     a7e:	b0 e0       	ldi	r27, 0x00	; 0
     a80:	04 c0       	rjmp	.+8      	; 0xa8a <__floatunsisf+0x7c>
     a82:	88 0f       	add	r24, r24
     a84:	99 1f       	adc	r25, r25
     a86:	aa 1f       	adc	r26, r26
     a88:	bb 1f       	adc	r27, r27
     a8a:	2a 95       	dec	r18
     a8c:	d2 f7       	brpl	.-12     	; 0xa82 <__floatunsisf+0x74>
     a8e:	01 97       	sbiw	r24, 0x01	; 1
     a90:	a1 09       	sbc	r26, r1
     a92:	b1 09       	sbc	r27, r1
     a94:	8e 21       	and	r24, r14
     a96:	9f 21       	and	r25, r15
     a98:	a0 23       	and	r26, r16
     a9a:	b1 23       	and	r27, r17
     a9c:	00 97       	sbiw	r24, 0x00	; 0
     a9e:	a1 05       	cpc	r26, r1
     aa0:	b1 05       	cpc	r27, r1
     aa2:	21 f0       	breq	.+8      	; 0xaac <__floatunsisf+0x9e>
     aa4:	41 e0       	ldi	r20, 0x01	; 1
     aa6:	50 e0       	ldi	r21, 0x00	; 0
     aa8:	60 e0       	ldi	r22, 0x00	; 0
     aaa:	70 e0       	ldi	r23, 0x00	; 0
     aac:	4a 29       	or	r20, r10
     aae:	5b 29       	or	r21, r11
     ab0:	6c 29       	or	r22, r12
     ab2:	7d 29       	or	r23, r13
     ab4:	4d 83       	std	Y+5, r20	; 0x05
     ab6:	5e 83       	std	Y+6, r21	; 0x06
     ab8:	6f 83       	std	Y+7, r22	; 0x07
     aba:	78 87       	std	Y+8, r23	; 0x08
     abc:	8e e1       	ldi	r24, 0x1E	; 30
     abe:	90 e0       	ldi	r25, 0x00	; 0
     ac0:	8e 1b       	sub	r24, r30
     ac2:	9f 0b       	sbc	r25, r31
     ac4:	9c 83       	std	Y+4, r25	; 0x04
     ac6:	8b 83       	std	Y+3, r24	; 0x03
     ac8:	12 c0       	rjmp	.+36     	; 0xaee <__floatunsisf+0xe0>
     aca:	30 97       	sbiw	r30, 0x00	; 0
     acc:	81 f0       	breq	.+32     	; 0xaee <__floatunsisf+0xe0>
     ace:	0e 2e       	mov	r0, r30
     ad0:	04 c0       	rjmp	.+8      	; 0xada <__floatunsisf+0xcc>
     ad2:	ee 0c       	add	r14, r14
     ad4:	ff 1c       	adc	r15, r15
     ad6:	00 1f       	adc	r16, r16
     ad8:	11 1f       	adc	r17, r17
     ada:	0a 94       	dec	r0
     adc:	d2 f7       	brpl	.-12     	; 0xad2 <__floatunsisf+0xc4>
     ade:	ed 82       	std	Y+5, r14	; 0x05
     ae0:	fe 82       	std	Y+6, r15	; 0x06
     ae2:	0f 83       	std	Y+7, r16	; 0x07
     ae4:	18 87       	std	Y+8, r17	; 0x08
     ae6:	ce 1a       	sub	r12, r30
     ae8:	df 0a       	sbc	r13, r31
     aea:	dc 82       	std	Y+4, r13	; 0x04
     aec:	cb 82       	std	Y+3, r12	; 0x03
     aee:	1a 82       	std	Y+2, r1	; 0x02
     af0:	ce 01       	movw	r24, r28
     af2:	01 96       	adiw	r24, 0x01	; 1
     af4:	0e 94 cf 05 	call	0xb9e	; 0xb9e <__pack_f>
     af8:	28 96       	adiw	r28, 0x08	; 8
     afa:	ea e0       	ldi	r30, 0x0A	; 10
     afc:	0c 94 fa 3c 	jmp	0x79f4	; 0x79f4 <__epilogue_restores__+0x10>

00000b00 <__clzsi2>:
     b00:	ef 92       	push	r14
     b02:	ff 92       	push	r15
     b04:	0f 93       	push	r16
     b06:	1f 93       	push	r17
     b08:	7b 01       	movw	r14, r22
     b0a:	8c 01       	movw	r16, r24
     b0c:	80 e0       	ldi	r24, 0x00	; 0
     b0e:	e8 16       	cp	r14, r24
     b10:	80 e0       	ldi	r24, 0x00	; 0
     b12:	f8 06       	cpc	r15, r24
     b14:	81 e0       	ldi	r24, 0x01	; 1
     b16:	08 07       	cpc	r16, r24
     b18:	80 e0       	ldi	r24, 0x00	; 0
     b1a:	18 07       	cpc	r17, r24
     b1c:	88 f4       	brcc	.+34     	; 0xb40 <__clzsi2+0x40>
     b1e:	8f ef       	ldi	r24, 0xFF	; 255
     b20:	e8 16       	cp	r14, r24
     b22:	f1 04       	cpc	r15, r1
     b24:	01 05       	cpc	r16, r1
     b26:	11 05       	cpc	r17, r1
     b28:	31 f0       	breq	.+12     	; 0xb36 <__clzsi2+0x36>
     b2a:	28 f0       	brcs	.+10     	; 0xb36 <__clzsi2+0x36>
     b2c:	88 e0       	ldi	r24, 0x08	; 8
     b2e:	90 e0       	ldi	r25, 0x00	; 0
     b30:	a0 e0       	ldi	r26, 0x00	; 0
     b32:	b0 e0       	ldi	r27, 0x00	; 0
     b34:	17 c0       	rjmp	.+46     	; 0xb64 <__clzsi2+0x64>
     b36:	80 e0       	ldi	r24, 0x00	; 0
     b38:	90 e0       	ldi	r25, 0x00	; 0
     b3a:	a0 e0       	ldi	r26, 0x00	; 0
     b3c:	b0 e0       	ldi	r27, 0x00	; 0
     b3e:	12 c0       	rjmp	.+36     	; 0xb64 <__clzsi2+0x64>
     b40:	80 e0       	ldi	r24, 0x00	; 0
     b42:	e8 16       	cp	r14, r24
     b44:	80 e0       	ldi	r24, 0x00	; 0
     b46:	f8 06       	cpc	r15, r24
     b48:	80 e0       	ldi	r24, 0x00	; 0
     b4a:	08 07       	cpc	r16, r24
     b4c:	81 e0       	ldi	r24, 0x01	; 1
     b4e:	18 07       	cpc	r17, r24
     b50:	28 f0       	brcs	.+10     	; 0xb5c <__clzsi2+0x5c>
     b52:	88 e1       	ldi	r24, 0x18	; 24
     b54:	90 e0       	ldi	r25, 0x00	; 0
     b56:	a0 e0       	ldi	r26, 0x00	; 0
     b58:	b0 e0       	ldi	r27, 0x00	; 0
     b5a:	04 c0       	rjmp	.+8      	; 0xb64 <__clzsi2+0x64>
     b5c:	80 e1       	ldi	r24, 0x10	; 16
     b5e:	90 e0       	ldi	r25, 0x00	; 0
     b60:	a0 e0       	ldi	r26, 0x00	; 0
     b62:	b0 e0       	ldi	r27, 0x00	; 0
     b64:	20 e2       	ldi	r18, 0x20	; 32
     b66:	30 e0       	ldi	r19, 0x00	; 0
     b68:	40 e0       	ldi	r20, 0x00	; 0
     b6a:	50 e0       	ldi	r21, 0x00	; 0
     b6c:	28 1b       	sub	r18, r24
     b6e:	39 0b       	sbc	r19, r25
     b70:	4a 0b       	sbc	r20, r26
     b72:	5b 0b       	sbc	r21, r27
     b74:	04 c0       	rjmp	.+8      	; 0xb7e <__clzsi2+0x7e>
     b76:	16 95       	lsr	r17
     b78:	07 95       	ror	r16
     b7a:	f7 94       	ror	r15
     b7c:	e7 94       	ror	r14
     b7e:	8a 95       	dec	r24
     b80:	d2 f7       	brpl	.-12     	; 0xb76 <__clzsi2+0x76>
     b82:	f7 01       	movw	r30, r14
     b84:	ed 56       	subi	r30, 0x6D	; 109
     b86:	fd 4f       	sbci	r31, 0xFD	; 253
     b88:	80 81       	ld	r24, Z
     b8a:	28 1b       	sub	r18, r24
     b8c:	31 09       	sbc	r19, r1
     b8e:	41 09       	sbc	r20, r1
     b90:	51 09       	sbc	r21, r1
     b92:	c9 01       	movw	r24, r18
     b94:	1f 91       	pop	r17
     b96:	0f 91       	pop	r16
     b98:	ff 90       	pop	r15
     b9a:	ef 90       	pop	r14
     b9c:	08 95       	ret

00000b9e <__pack_f>:
     b9e:	df 92       	push	r13
     ba0:	ef 92       	push	r14
     ba2:	ff 92       	push	r15
     ba4:	0f 93       	push	r16
     ba6:	1f 93       	push	r17
     ba8:	fc 01       	movw	r30, r24
     baa:	e4 80       	ldd	r14, Z+4	; 0x04
     bac:	f5 80       	ldd	r15, Z+5	; 0x05
     bae:	06 81       	ldd	r16, Z+6	; 0x06
     bb0:	17 81       	ldd	r17, Z+7	; 0x07
     bb2:	d1 80       	ldd	r13, Z+1	; 0x01
     bb4:	80 81       	ld	r24, Z
     bb6:	82 30       	cpi	r24, 0x02	; 2
     bb8:	48 f4       	brcc	.+18     	; 0xbcc <__pack_f+0x2e>
     bba:	80 e0       	ldi	r24, 0x00	; 0
     bbc:	90 e0       	ldi	r25, 0x00	; 0
     bbe:	a0 e1       	ldi	r26, 0x10	; 16
     bc0:	b0 e0       	ldi	r27, 0x00	; 0
     bc2:	e8 2a       	or	r14, r24
     bc4:	f9 2a       	or	r15, r25
     bc6:	0a 2b       	or	r16, r26
     bc8:	1b 2b       	or	r17, r27
     bca:	a5 c0       	rjmp	.+330    	; 0xd16 <__pack_f+0x178>
     bcc:	84 30       	cpi	r24, 0x04	; 4
     bce:	09 f4       	brne	.+2      	; 0xbd2 <__pack_f+0x34>
     bd0:	9f c0       	rjmp	.+318    	; 0xd10 <__pack_f+0x172>
     bd2:	82 30       	cpi	r24, 0x02	; 2
     bd4:	21 f4       	brne	.+8      	; 0xbde <__pack_f+0x40>
     bd6:	ee 24       	eor	r14, r14
     bd8:	ff 24       	eor	r15, r15
     bda:	87 01       	movw	r16, r14
     bdc:	05 c0       	rjmp	.+10     	; 0xbe8 <__pack_f+0x4a>
     bde:	e1 14       	cp	r14, r1
     be0:	f1 04       	cpc	r15, r1
     be2:	01 05       	cpc	r16, r1
     be4:	11 05       	cpc	r17, r1
     be6:	19 f4       	brne	.+6      	; 0xbee <__pack_f+0x50>
     be8:	e0 e0       	ldi	r30, 0x00	; 0
     bea:	f0 e0       	ldi	r31, 0x00	; 0
     bec:	96 c0       	rjmp	.+300    	; 0xd1a <__pack_f+0x17c>
     bee:	62 81       	ldd	r22, Z+2	; 0x02
     bf0:	73 81       	ldd	r23, Z+3	; 0x03
     bf2:	9f ef       	ldi	r25, 0xFF	; 255
     bf4:	62 38       	cpi	r22, 0x82	; 130
     bf6:	79 07       	cpc	r23, r25
     bf8:	0c f0       	brlt	.+2      	; 0xbfc <__pack_f+0x5e>
     bfa:	5b c0       	rjmp	.+182    	; 0xcb2 <__pack_f+0x114>
     bfc:	22 e8       	ldi	r18, 0x82	; 130
     bfe:	3f ef       	ldi	r19, 0xFF	; 255
     c00:	26 1b       	sub	r18, r22
     c02:	37 0b       	sbc	r19, r23
     c04:	2a 31       	cpi	r18, 0x1A	; 26
     c06:	31 05       	cpc	r19, r1
     c08:	2c f0       	brlt	.+10     	; 0xc14 <__pack_f+0x76>
     c0a:	20 e0       	ldi	r18, 0x00	; 0
     c0c:	30 e0       	ldi	r19, 0x00	; 0
     c0e:	40 e0       	ldi	r20, 0x00	; 0
     c10:	50 e0       	ldi	r21, 0x00	; 0
     c12:	2a c0       	rjmp	.+84     	; 0xc68 <__pack_f+0xca>
     c14:	b8 01       	movw	r22, r16
     c16:	a7 01       	movw	r20, r14
     c18:	02 2e       	mov	r0, r18
     c1a:	04 c0       	rjmp	.+8      	; 0xc24 <__pack_f+0x86>
     c1c:	76 95       	lsr	r23
     c1e:	67 95       	ror	r22
     c20:	57 95       	ror	r21
     c22:	47 95       	ror	r20
     c24:	0a 94       	dec	r0
     c26:	d2 f7       	brpl	.-12     	; 0xc1c <__pack_f+0x7e>
     c28:	81 e0       	ldi	r24, 0x01	; 1
     c2a:	90 e0       	ldi	r25, 0x00	; 0
     c2c:	a0 e0       	ldi	r26, 0x00	; 0
     c2e:	b0 e0       	ldi	r27, 0x00	; 0
     c30:	04 c0       	rjmp	.+8      	; 0xc3a <__pack_f+0x9c>
     c32:	88 0f       	add	r24, r24
     c34:	99 1f       	adc	r25, r25
     c36:	aa 1f       	adc	r26, r26
     c38:	bb 1f       	adc	r27, r27
     c3a:	2a 95       	dec	r18
     c3c:	d2 f7       	brpl	.-12     	; 0xc32 <__pack_f+0x94>
     c3e:	01 97       	sbiw	r24, 0x01	; 1
     c40:	a1 09       	sbc	r26, r1
     c42:	b1 09       	sbc	r27, r1
     c44:	8e 21       	and	r24, r14
     c46:	9f 21       	and	r25, r15
     c48:	a0 23       	and	r26, r16
     c4a:	b1 23       	and	r27, r17
     c4c:	00 97       	sbiw	r24, 0x00	; 0
     c4e:	a1 05       	cpc	r26, r1
     c50:	b1 05       	cpc	r27, r1
     c52:	21 f0       	breq	.+8      	; 0xc5c <__pack_f+0xbe>
     c54:	81 e0       	ldi	r24, 0x01	; 1
     c56:	90 e0       	ldi	r25, 0x00	; 0
     c58:	a0 e0       	ldi	r26, 0x00	; 0
     c5a:	b0 e0       	ldi	r27, 0x00	; 0
     c5c:	9a 01       	movw	r18, r20
     c5e:	ab 01       	movw	r20, r22
     c60:	28 2b       	or	r18, r24
     c62:	39 2b       	or	r19, r25
     c64:	4a 2b       	or	r20, r26
     c66:	5b 2b       	or	r21, r27
     c68:	da 01       	movw	r26, r20
     c6a:	c9 01       	movw	r24, r18
     c6c:	8f 77       	andi	r24, 0x7F	; 127
     c6e:	90 70       	andi	r25, 0x00	; 0
     c70:	a0 70       	andi	r26, 0x00	; 0
     c72:	b0 70       	andi	r27, 0x00	; 0
     c74:	80 34       	cpi	r24, 0x40	; 64
     c76:	91 05       	cpc	r25, r1
     c78:	a1 05       	cpc	r26, r1
     c7a:	b1 05       	cpc	r27, r1
     c7c:	39 f4       	brne	.+14     	; 0xc8c <__pack_f+0xee>
     c7e:	27 ff       	sbrs	r18, 7
     c80:	09 c0       	rjmp	.+18     	; 0xc94 <__pack_f+0xf6>
     c82:	20 5c       	subi	r18, 0xC0	; 192
     c84:	3f 4f       	sbci	r19, 0xFF	; 255
     c86:	4f 4f       	sbci	r20, 0xFF	; 255
     c88:	5f 4f       	sbci	r21, 0xFF	; 255
     c8a:	04 c0       	rjmp	.+8      	; 0xc94 <__pack_f+0xf6>
     c8c:	21 5c       	subi	r18, 0xC1	; 193
     c8e:	3f 4f       	sbci	r19, 0xFF	; 255
     c90:	4f 4f       	sbci	r20, 0xFF	; 255
     c92:	5f 4f       	sbci	r21, 0xFF	; 255
     c94:	e0 e0       	ldi	r30, 0x00	; 0
     c96:	f0 e0       	ldi	r31, 0x00	; 0
     c98:	20 30       	cpi	r18, 0x00	; 0
     c9a:	a0 e0       	ldi	r26, 0x00	; 0
     c9c:	3a 07       	cpc	r19, r26
     c9e:	a0 e0       	ldi	r26, 0x00	; 0
     ca0:	4a 07       	cpc	r20, r26
     ca2:	a0 e4       	ldi	r26, 0x40	; 64
     ca4:	5a 07       	cpc	r21, r26
     ca6:	10 f0       	brcs	.+4      	; 0xcac <__pack_f+0x10e>
     ca8:	e1 e0       	ldi	r30, 0x01	; 1
     caa:	f0 e0       	ldi	r31, 0x00	; 0
     cac:	79 01       	movw	r14, r18
     cae:	8a 01       	movw	r16, r20
     cb0:	27 c0       	rjmp	.+78     	; 0xd00 <__pack_f+0x162>
     cb2:	60 38       	cpi	r22, 0x80	; 128
     cb4:	71 05       	cpc	r23, r1
     cb6:	64 f5       	brge	.+88     	; 0xd10 <__pack_f+0x172>
     cb8:	fb 01       	movw	r30, r22
     cba:	e1 58       	subi	r30, 0x81	; 129
     cbc:	ff 4f       	sbci	r31, 0xFF	; 255
     cbe:	d8 01       	movw	r26, r16
     cc0:	c7 01       	movw	r24, r14
     cc2:	8f 77       	andi	r24, 0x7F	; 127
     cc4:	90 70       	andi	r25, 0x00	; 0
     cc6:	a0 70       	andi	r26, 0x00	; 0
     cc8:	b0 70       	andi	r27, 0x00	; 0
     cca:	80 34       	cpi	r24, 0x40	; 64
     ccc:	91 05       	cpc	r25, r1
     cce:	a1 05       	cpc	r26, r1
     cd0:	b1 05       	cpc	r27, r1
     cd2:	39 f4       	brne	.+14     	; 0xce2 <__pack_f+0x144>
     cd4:	e7 fe       	sbrs	r14, 7
     cd6:	0d c0       	rjmp	.+26     	; 0xcf2 <__pack_f+0x154>
     cd8:	80 e4       	ldi	r24, 0x40	; 64
     cda:	90 e0       	ldi	r25, 0x00	; 0
     cdc:	a0 e0       	ldi	r26, 0x00	; 0
     cde:	b0 e0       	ldi	r27, 0x00	; 0
     ce0:	04 c0       	rjmp	.+8      	; 0xcea <__pack_f+0x14c>
     ce2:	8f e3       	ldi	r24, 0x3F	; 63
     ce4:	90 e0       	ldi	r25, 0x00	; 0
     ce6:	a0 e0       	ldi	r26, 0x00	; 0
     ce8:	b0 e0       	ldi	r27, 0x00	; 0
     cea:	e8 0e       	add	r14, r24
     cec:	f9 1e       	adc	r15, r25
     cee:	0a 1f       	adc	r16, r26
     cf0:	1b 1f       	adc	r17, r27
     cf2:	17 ff       	sbrs	r17, 7
     cf4:	05 c0       	rjmp	.+10     	; 0xd00 <__pack_f+0x162>
     cf6:	16 95       	lsr	r17
     cf8:	07 95       	ror	r16
     cfa:	f7 94       	ror	r15
     cfc:	e7 94       	ror	r14
     cfe:	31 96       	adiw	r30, 0x01	; 1
     d00:	87 e0       	ldi	r24, 0x07	; 7
     d02:	16 95       	lsr	r17
     d04:	07 95       	ror	r16
     d06:	f7 94       	ror	r15
     d08:	e7 94       	ror	r14
     d0a:	8a 95       	dec	r24
     d0c:	d1 f7       	brne	.-12     	; 0xd02 <__pack_f+0x164>
     d0e:	05 c0       	rjmp	.+10     	; 0xd1a <__pack_f+0x17c>
     d10:	ee 24       	eor	r14, r14
     d12:	ff 24       	eor	r15, r15
     d14:	87 01       	movw	r16, r14
     d16:	ef ef       	ldi	r30, 0xFF	; 255
     d18:	f0 e0       	ldi	r31, 0x00	; 0
     d1a:	6e 2f       	mov	r22, r30
     d1c:	67 95       	ror	r22
     d1e:	66 27       	eor	r22, r22
     d20:	67 95       	ror	r22
     d22:	90 2f       	mov	r25, r16
     d24:	9f 77       	andi	r25, 0x7F	; 127
     d26:	d7 94       	ror	r13
     d28:	dd 24       	eor	r13, r13
     d2a:	d7 94       	ror	r13
     d2c:	8e 2f       	mov	r24, r30
     d2e:	86 95       	lsr	r24
     d30:	49 2f       	mov	r20, r25
     d32:	46 2b       	or	r20, r22
     d34:	58 2f       	mov	r21, r24
     d36:	5d 29       	or	r21, r13
     d38:	b7 01       	movw	r22, r14
     d3a:	ca 01       	movw	r24, r20
     d3c:	1f 91       	pop	r17
     d3e:	0f 91       	pop	r16
     d40:	ff 90       	pop	r15
     d42:	ef 90       	pop	r14
     d44:	df 90       	pop	r13
     d46:	08 95       	ret

00000d48 <__unpack_f>:
     d48:	fc 01       	movw	r30, r24
     d4a:	db 01       	movw	r26, r22
     d4c:	40 81       	ld	r20, Z
     d4e:	51 81       	ldd	r21, Z+1	; 0x01
     d50:	22 81       	ldd	r18, Z+2	; 0x02
     d52:	62 2f       	mov	r22, r18
     d54:	6f 77       	andi	r22, 0x7F	; 127
     d56:	70 e0       	ldi	r23, 0x00	; 0
     d58:	22 1f       	adc	r18, r18
     d5a:	22 27       	eor	r18, r18
     d5c:	22 1f       	adc	r18, r18
     d5e:	93 81       	ldd	r25, Z+3	; 0x03
     d60:	89 2f       	mov	r24, r25
     d62:	88 0f       	add	r24, r24
     d64:	82 2b       	or	r24, r18
     d66:	28 2f       	mov	r18, r24
     d68:	30 e0       	ldi	r19, 0x00	; 0
     d6a:	99 1f       	adc	r25, r25
     d6c:	99 27       	eor	r25, r25
     d6e:	99 1f       	adc	r25, r25
     d70:	11 96       	adiw	r26, 0x01	; 1
     d72:	9c 93       	st	X, r25
     d74:	11 97       	sbiw	r26, 0x01	; 1
     d76:	21 15       	cp	r18, r1
     d78:	31 05       	cpc	r19, r1
     d7a:	a9 f5       	brne	.+106    	; 0xde6 <__unpack_f+0x9e>
     d7c:	41 15       	cp	r20, r1
     d7e:	51 05       	cpc	r21, r1
     d80:	61 05       	cpc	r22, r1
     d82:	71 05       	cpc	r23, r1
     d84:	11 f4       	brne	.+4      	; 0xd8a <__unpack_f+0x42>
     d86:	82 e0       	ldi	r24, 0x02	; 2
     d88:	37 c0       	rjmp	.+110    	; 0xdf8 <__unpack_f+0xb0>
     d8a:	82 e8       	ldi	r24, 0x82	; 130
     d8c:	9f ef       	ldi	r25, 0xFF	; 255
     d8e:	13 96       	adiw	r26, 0x03	; 3
     d90:	9c 93       	st	X, r25
     d92:	8e 93       	st	-X, r24
     d94:	12 97       	sbiw	r26, 0x02	; 2
     d96:	9a 01       	movw	r18, r20
     d98:	ab 01       	movw	r20, r22
     d9a:	67 e0       	ldi	r22, 0x07	; 7
     d9c:	22 0f       	add	r18, r18
     d9e:	33 1f       	adc	r19, r19
     da0:	44 1f       	adc	r20, r20
     da2:	55 1f       	adc	r21, r21
     da4:	6a 95       	dec	r22
     da6:	d1 f7       	brne	.-12     	; 0xd9c <__unpack_f+0x54>
     da8:	83 e0       	ldi	r24, 0x03	; 3
     daa:	8c 93       	st	X, r24
     dac:	0d c0       	rjmp	.+26     	; 0xdc8 <__unpack_f+0x80>
     dae:	22 0f       	add	r18, r18
     db0:	33 1f       	adc	r19, r19
     db2:	44 1f       	adc	r20, r20
     db4:	55 1f       	adc	r21, r21
     db6:	12 96       	adiw	r26, 0x02	; 2
     db8:	8d 91       	ld	r24, X+
     dba:	9c 91       	ld	r25, X
     dbc:	13 97       	sbiw	r26, 0x03	; 3
     dbe:	01 97       	sbiw	r24, 0x01	; 1
     dc0:	13 96       	adiw	r26, 0x03	; 3
     dc2:	9c 93       	st	X, r25
     dc4:	8e 93       	st	-X, r24
     dc6:	12 97       	sbiw	r26, 0x02	; 2
     dc8:	20 30       	cpi	r18, 0x00	; 0
     dca:	80 e0       	ldi	r24, 0x00	; 0
     dcc:	38 07       	cpc	r19, r24
     dce:	80 e0       	ldi	r24, 0x00	; 0
     dd0:	48 07       	cpc	r20, r24
     dd2:	80 e4       	ldi	r24, 0x40	; 64
     dd4:	58 07       	cpc	r21, r24
     dd6:	58 f3       	brcs	.-42     	; 0xdae <__unpack_f+0x66>
     dd8:	14 96       	adiw	r26, 0x04	; 4
     dda:	2d 93       	st	X+, r18
     ddc:	3d 93       	st	X+, r19
     dde:	4d 93       	st	X+, r20
     de0:	5c 93       	st	X, r21
     de2:	17 97       	sbiw	r26, 0x07	; 7
     de4:	08 95       	ret
     de6:	2f 3f       	cpi	r18, 0xFF	; 255
     de8:	31 05       	cpc	r19, r1
     dea:	79 f4       	brne	.+30     	; 0xe0a <__unpack_f+0xc2>
     dec:	41 15       	cp	r20, r1
     dee:	51 05       	cpc	r21, r1
     df0:	61 05       	cpc	r22, r1
     df2:	71 05       	cpc	r23, r1
     df4:	19 f4       	brne	.+6      	; 0xdfc <__unpack_f+0xb4>
     df6:	84 e0       	ldi	r24, 0x04	; 4
     df8:	8c 93       	st	X, r24
     dfa:	08 95       	ret
     dfc:	64 ff       	sbrs	r22, 4
     dfe:	03 c0       	rjmp	.+6      	; 0xe06 <__unpack_f+0xbe>
     e00:	81 e0       	ldi	r24, 0x01	; 1
     e02:	8c 93       	st	X, r24
     e04:	12 c0       	rjmp	.+36     	; 0xe2a <__unpack_f+0xe2>
     e06:	1c 92       	st	X, r1
     e08:	10 c0       	rjmp	.+32     	; 0xe2a <__unpack_f+0xe2>
     e0a:	2f 57       	subi	r18, 0x7F	; 127
     e0c:	30 40       	sbci	r19, 0x00	; 0
     e0e:	13 96       	adiw	r26, 0x03	; 3
     e10:	3c 93       	st	X, r19
     e12:	2e 93       	st	-X, r18
     e14:	12 97       	sbiw	r26, 0x02	; 2
     e16:	83 e0       	ldi	r24, 0x03	; 3
     e18:	8c 93       	st	X, r24
     e1a:	87 e0       	ldi	r24, 0x07	; 7
     e1c:	44 0f       	add	r20, r20
     e1e:	55 1f       	adc	r21, r21
     e20:	66 1f       	adc	r22, r22
     e22:	77 1f       	adc	r23, r23
     e24:	8a 95       	dec	r24
     e26:	d1 f7       	brne	.-12     	; 0xe1c <__unpack_f+0xd4>
     e28:	70 64       	ori	r23, 0x40	; 64
     e2a:	14 96       	adiw	r26, 0x04	; 4
     e2c:	4d 93       	st	X+, r20
     e2e:	5d 93       	st	X+, r21
     e30:	6d 93       	st	X+, r22
     e32:	7c 93       	st	X, r23
     e34:	17 97       	sbiw	r26, 0x07	; 7
     e36:	08 95       	ret

00000e38 <__fpcmp_parts_f>:
     e38:	1f 93       	push	r17
     e3a:	dc 01       	movw	r26, r24
     e3c:	fb 01       	movw	r30, r22
     e3e:	9c 91       	ld	r25, X
     e40:	92 30       	cpi	r25, 0x02	; 2
     e42:	08 f4       	brcc	.+2      	; 0xe46 <__fpcmp_parts_f+0xe>
     e44:	47 c0       	rjmp	.+142    	; 0xed4 <__fpcmp_parts_f+0x9c>
     e46:	80 81       	ld	r24, Z
     e48:	82 30       	cpi	r24, 0x02	; 2
     e4a:	08 f4       	brcc	.+2      	; 0xe4e <__fpcmp_parts_f+0x16>
     e4c:	43 c0       	rjmp	.+134    	; 0xed4 <__fpcmp_parts_f+0x9c>
     e4e:	94 30       	cpi	r25, 0x04	; 4
     e50:	51 f4       	brne	.+20     	; 0xe66 <__fpcmp_parts_f+0x2e>
     e52:	11 96       	adiw	r26, 0x01	; 1
     e54:	1c 91       	ld	r17, X
     e56:	84 30       	cpi	r24, 0x04	; 4
     e58:	99 f5       	brne	.+102    	; 0xec0 <__fpcmp_parts_f+0x88>
     e5a:	81 81       	ldd	r24, Z+1	; 0x01
     e5c:	68 2f       	mov	r22, r24
     e5e:	70 e0       	ldi	r23, 0x00	; 0
     e60:	61 1b       	sub	r22, r17
     e62:	71 09       	sbc	r23, r1
     e64:	3f c0       	rjmp	.+126    	; 0xee4 <__fpcmp_parts_f+0xac>
     e66:	84 30       	cpi	r24, 0x04	; 4
     e68:	21 f0       	breq	.+8      	; 0xe72 <__fpcmp_parts_f+0x3a>
     e6a:	92 30       	cpi	r25, 0x02	; 2
     e6c:	31 f4       	brne	.+12     	; 0xe7a <__fpcmp_parts_f+0x42>
     e6e:	82 30       	cpi	r24, 0x02	; 2
     e70:	b9 f1       	breq	.+110    	; 0xee0 <__fpcmp_parts_f+0xa8>
     e72:	81 81       	ldd	r24, Z+1	; 0x01
     e74:	88 23       	and	r24, r24
     e76:	89 f1       	breq	.+98     	; 0xeda <__fpcmp_parts_f+0xa2>
     e78:	2d c0       	rjmp	.+90     	; 0xed4 <__fpcmp_parts_f+0x9c>
     e7a:	11 96       	adiw	r26, 0x01	; 1
     e7c:	1c 91       	ld	r17, X
     e7e:	11 97       	sbiw	r26, 0x01	; 1
     e80:	82 30       	cpi	r24, 0x02	; 2
     e82:	f1 f0       	breq	.+60     	; 0xec0 <__fpcmp_parts_f+0x88>
     e84:	81 81       	ldd	r24, Z+1	; 0x01
     e86:	18 17       	cp	r17, r24
     e88:	d9 f4       	brne	.+54     	; 0xec0 <__fpcmp_parts_f+0x88>
     e8a:	12 96       	adiw	r26, 0x02	; 2
     e8c:	2d 91       	ld	r18, X+
     e8e:	3c 91       	ld	r19, X
     e90:	13 97       	sbiw	r26, 0x03	; 3
     e92:	82 81       	ldd	r24, Z+2	; 0x02
     e94:	93 81       	ldd	r25, Z+3	; 0x03
     e96:	82 17       	cp	r24, r18
     e98:	93 07       	cpc	r25, r19
     e9a:	94 f0       	brlt	.+36     	; 0xec0 <__fpcmp_parts_f+0x88>
     e9c:	28 17       	cp	r18, r24
     e9e:	39 07       	cpc	r19, r25
     ea0:	bc f0       	brlt	.+46     	; 0xed0 <__fpcmp_parts_f+0x98>
     ea2:	14 96       	adiw	r26, 0x04	; 4
     ea4:	8d 91       	ld	r24, X+
     ea6:	9d 91       	ld	r25, X+
     ea8:	0d 90       	ld	r0, X+
     eaa:	bc 91       	ld	r27, X
     eac:	a0 2d       	mov	r26, r0
     eae:	24 81       	ldd	r18, Z+4	; 0x04
     eb0:	35 81       	ldd	r19, Z+5	; 0x05
     eb2:	46 81       	ldd	r20, Z+6	; 0x06
     eb4:	57 81       	ldd	r21, Z+7	; 0x07
     eb6:	28 17       	cp	r18, r24
     eb8:	39 07       	cpc	r19, r25
     eba:	4a 07       	cpc	r20, r26
     ebc:	5b 07       	cpc	r21, r27
     ebe:	18 f4       	brcc	.+6      	; 0xec6 <__fpcmp_parts_f+0x8e>
     ec0:	11 23       	and	r17, r17
     ec2:	41 f0       	breq	.+16     	; 0xed4 <__fpcmp_parts_f+0x9c>
     ec4:	0a c0       	rjmp	.+20     	; 0xeda <__fpcmp_parts_f+0xa2>
     ec6:	82 17       	cp	r24, r18
     ec8:	93 07       	cpc	r25, r19
     eca:	a4 07       	cpc	r26, r20
     ecc:	b5 07       	cpc	r27, r21
     ece:	40 f4       	brcc	.+16     	; 0xee0 <__fpcmp_parts_f+0xa8>
     ed0:	11 23       	and	r17, r17
     ed2:	19 f0       	breq	.+6      	; 0xeda <__fpcmp_parts_f+0xa2>
     ed4:	61 e0       	ldi	r22, 0x01	; 1
     ed6:	70 e0       	ldi	r23, 0x00	; 0
     ed8:	05 c0       	rjmp	.+10     	; 0xee4 <__fpcmp_parts_f+0xac>
     eda:	6f ef       	ldi	r22, 0xFF	; 255
     edc:	7f ef       	ldi	r23, 0xFF	; 255
     ede:	02 c0       	rjmp	.+4      	; 0xee4 <__fpcmp_parts_f+0xac>
     ee0:	60 e0       	ldi	r22, 0x00	; 0
     ee2:	70 e0       	ldi	r23, 0x00	; 0
     ee4:	cb 01       	movw	r24, r22
     ee6:	1f 91       	pop	r17
     ee8:	08 95       	ret

00000eea <ADC_Init>:
#include "../INC/ADC.h"

ADC_config_t ADC_groups={	ADC_EN , ADC_AVCC , ADC_AUTO_TRIG	,ADC_LEFT_ADJ , ADC_CH_0  , ADC_PRE_64};

void ADC_Init(void)
{
     eea:	df 93       	push	r29
     eec:	cf 93       	push	r28
     eee:	cd b7       	in	r28, 0x3d	; 61
     ef0:	de b7       	in	r29, 0x3e	; 62
     ef2:	2c 97       	sbiw	r28, 0x0c	; 12
     ef4:	0f b6       	in	r0, 0x3f	; 63
     ef6:	f8 94       	cli
     ef8:	de bf       	out	0x3e, r29	; 62
     efa:	0f be       	out	0x3f, r0	; 63
     efc:	cd bf       	out	0x3d, r28	; 61
	u8 ADCSRA_temp=0;
     efe:	1a 82       	std	Y+2, r1	; 0x02
	u8 ADMUX_TEMP=0;
     f00:	19 82       	std	Y+1, r1	; 0x01
	switch (ADC_groups.ADC_Enable)
     f02:	80 91 93 03 	lds	r24, 0x0393
     f06:	28 2f       	mov	r18, r24
     f08:	30 e0       	ldi	r19, 0x00	; 0
     f0a:	3c 87       	std	Y+12, r19	; 0x0c
     f0c:	2b 87       	std	Y+11, r18	; 0x0b
     f0e:	8b 85       	ldd	r24, Y+11	; 0x0b
     f10:	9c 85       	ldd	r25, Y+12	; 0x0c
     f12:	00 97       	sbiw	r24, 0x00	; 0
     f14:	31 f0       	breq	.+12     	; 0xf22 <ADC_Init+0x38>
     f16:	2b 85       	ldd	r18, Y+11	; 0x0b
     f18:	3c 85       	ldd	r19, Y+12	; 0x0c
     f1a:	21 30       	cpi	r18, 0x01	; 1
     f1c:	31 05       	cpc	r19, r1
     f1e:	29 f0       	breq	.+10     	; 0xf2a <ADC_Init+0x40>
     f20:	07 c0       	rjmp	.+14     	; 0xf30 <ADC_Init+0x46>
	{
		case ADC_EN:
		{
			SET_BIT(ADCSRA_temp,ADEN);
     f22:	8a 81       	ldd	r24, Y+2	; 0x02
     f24:	80 68       	ori	r24, 0x80	; 128
     f26:	8a 83       	std	Y+2, r24	; 0x02
     f28:	03 c0       	rjmp	.+6      	; 0xf30 <ADC_Init+0x46>
			break;
		}
		case ADC_DISABLE:
		{
			CLR_BIT(ADCSRA_temp,ADEN);
     f2a:	8a 81       	ldd	r24, Y+2	; 0x02
     f2c:	8f 77       	andi	r24, 0x7F	; 127
     f2e:	8a 83       	std	Y+2, r24	; 0x02
		}
		default:
				break;
	}
	/***************************************************************/
	switch (ADC_groups.ADC_Prescaller)
     f30:	80 91 98 03 	lds	r24, 0x0398
     f34:	28 2f       	mov	r18, r24
     f36:	30 e0       	ldi	r19, 0x00	; 0
     f38:	3a 87       	std	Y+10, r19	; 0x0a
     f3a:	29 87       	std	Y+9, r18	; 0x09
     f3c:	89 85       	ldd	r24, Y+9	; 0x09
     f3e:	9a 85       	ldd	r25, Y+10	; 0x0a
     f40:	83 30       	cpi	r24, 0x03	; 3
     f42:	91 05       	cpc	r25, r1
     f44:	09 f4       	brne	.+2      	; 0xf48 <ADC_Init+0x5e>
     f46:	43 c0       	rjmp	.+134    	; 0xfce <ADC_Init+0xe4>
     f48:	29 85       	ldd	r18, Y+9	; 0x09
     f4a:	3a 85       	ldd	r19, Y+10	; 0x0a
     f4c:	24 30       	cpi	r18, 0x04	; 4
     f4e:	31 05       	cpc	r19, r1
     f50:	7c f4       	brge	.+30     	; 0xf70 <ADC_Init+0x86>
     f52:	89 85       	ldd	r24, Y+9	; 0x09
     f54:	9a 85       	ldd	r25, Y+10	; 0x0a
     f56:	81 30       	cpi	r24, 0x01	; 1
     f58:	91 05       	cpc	r25, r1
     f5a:	29 f1       	breq	.+74     	; 0xfa6 <ADC_Init+0xbc>
     f5c:	29 85       	ldd	r18, Y+9	; 0x09
     f5e:	3a 85       	ldd	r19, Y+10	; 0x0a
     f60:	22 30       	cpi	r18, 0x02	; 2
     f62:	31 05       	cpc	r19, r1
     f64:	54 f5       	brge	.+84     	; 0xfba <ADC_Init+0xd0>
     f66:	89 85       	ldd	r24, Y+9	; 0x09
     f68:	9a 85       	ldd	r25, Y+10	; 0x0a
     f6a:	00 97       	sbiw	r24, 0x00	; 0
     f6c:	91 f0       	breq	.+36     	; 0xf92 <ADC_Init+0xa8>
     f6e:	56 c0       	rjmp	.+172    	; 0x101c <ADC_Init+0x132>
     f70:	29 85       	ldd	r18, Y+9	; 0x09
     f72:	3a 85       	ldd	r19, Y+10	; 0x0a
     f74:	25 30       	cpi	r18, 0x05	; 5
     f76:	31 05       	cpc	r19, r1
     f78:	09 f4       	brne	.+2      	; 0xf7c <ADC_Init+0x92>
     f7a:	3d c0       	rjmp	.+122    	; 0xff6 <ADC_Init+0x10c>
     f7c:	89 85       	ldd	r24, Y+9	; 0x09
     f7e:	9a 85       	ldd	r25, Y+10	; 0x0a
     f80:	85 30       	cpi	r24, 0x05	; 5
     f82:	91 05       	cpc	r25, r1
     f84:	74 f1       	brlt	.+92     	; 0xfe2 <ADC_Init+0xf8>
     f86:	29 85       	ldd	r18, Y+9	; 0x09
     f88:	3a 85       	ldd	r19, Y+10	; 0x0a
     f8a:	26 30       	cpi	r18, 0x06	; 6
     f8c:	31 05       	cpc	r19, r1
     f8e:	e9 f1       	breq	.+122    	; 0x100a <ADC_Init+0x120>
     f90:	45 c0       	rjmp	.+138    	; 0x101c <ADC_Init+0x132>
	{
		case ADC_PRE_2:
		{
			SET_BIT(ADCSRA_temp,ADPS0);
     f92:	8a 81       	ldd	r24, Y+2	; 0x02
     f94:	81 60       	ori	r24, 0x01	; 1
     f96:	8a 83       	std	Y+2, r24	; 0x02
			CLR_BIT(ADCSRA_temp,ADPS1);
     f98:	8a 81       	ldd	r24, Y+2	; 0x02
     f9a:	8d 7f       	andi	r24, 0xFD	; 253
     f9c:	8a 83       	std	Y+2, r24	; 0x02
			CLR_BIT(ADCSRA_temp,ADPS2);
     f9e:	8a 81       	ldd	r24, Y+2	; 0x02
     fa0:	8b 7f       	andi	r24, 0xFB	; 251
     fa2:	8a 83       	std	Y+2, r24	; 0x02
     fa4:	3b c0       	rjmp	.+118    	; 0x101c <ADC_Init+0x132>
			break;
		}
		case ADC_PRE_4:
		{
			CLR_BIT(ADCSRA_temp,ADPS0);
     fa6:	8a 81       	ldd	r24, Y+2	; 0x02
     fa8:	8e 7f       	andi	r24, 0xFE	; 254
     faa:	8a 83       	std	Y+2, r24	; 0x02
			SET_BIT(ADCSRA_temp,ADPS1);
     fac:	8a 81       	ldd	r24, Y+2	; 0x02
     fae:	82 60       	ori	r24, 0x02	; 2
     fb0:	8a 83       	std	Y+2, r24	; 0x02
			CLR_BIT(ADCSRA_temp,ADPS2);
     fb2:	8a 81       	ldd	r24, Y+2	; 0x02
     fb4:	8b 7f       	andi	r24, 0xFB	; 251
     fb6:	8a 83       	std	Y+2, r24	; 0x02
     fb8:	31 c0       	rjmp	.+98     	; 0x101c <ADC_Init+0x132>
			break;
		}
		case ADC_PRE_8:
		{
			SET_BIT(ADCSRA_temp,ADPS0);
     fba:	8a 81       	ldd	r24, Y+2	; 0x02
     fbc:	81 60       	ori	r24, 0x01	; 1
     fbe:	8a 83       	std	Y+2, r24	; 0x02
			SET_BIT(ADCSRA_temp,ADPS1);
     fc0:	8a 81       	ldd	r24, Y+2	; 0x02
     fc2:	82 60       	ori	r24, 0x02	; 2
     fc4:	8a 83       	std	Y+2, r24	; 0x02
			CLR_BIT(ADCSRA_temp,ADPS2);
     fc6:	8a 81       	ldd	r24, Y+2	; 0x02
     fc8:	8b 7f       	andi	r24, 0xFB	; 251
     fca:	8a 83       	std	Y+2, r24	; 0x02
     fcc:	27 c0       	rjmp	.+78     	; 0x101c <ADC_Init+0x132>
			break;
		}
		case ADC_PRE_16:
		{
			CLR_BIT(ADCSRA_temp,ADPS0);
     fce:	8a 81       	ldd	r24, Y+2	; 0x02
     fd0:	8e 7f       	andi	r24, 0xFE	; 254
     fd2:	8a 83       	std	Y+2, r24	; 0x02
			CLR_BIT(ADCSRA_temp,ADPS1);
     fd4:	8a 81       	ldd	r24, Y+2	; 0x02
     fd6:	8d 7f       	andi	r24, 0xFD	; 253
     fd8:	8a 83       	std	Y+2, r24	; 0x02
			SET_BIT(ADCSRA_temp,ADPS2);
     fda:	8a 81       	ldd	r24, Y+2	; 0x02
     fdc:	84 60       	ori	r24, 0x04	; 4
     fde:	8a 83       	std	Y+2, r24	; 0x02
     fe0:	1d c0       	rjmp	.+58     	; 0x101c <ADC_Init+0x132>
			break;
		}
		case ADC_PRE_32:
		{
			SET_BIT(ADCSRA_temp,ADPS0);
     fe2:	8a 81       	ldd	r24, Y+2	; 0x02
     fe4:	81 60       	ori	r24, 0x01	; 1
     fe6:	8a 83       	std	Y+2, r24	; 0x02
			CLR_BIT(ADCSRA_temp,ADPS1);
     fe8:	8a 81       	ldd	r24, Y+2	; 0x02
     fea:	8d 7f       	andi	r24, 0xFD	; 253
     fec:	8a 83       	std	Y+2, r24	; 0x02
			SET_BIT(ADCSRA_temp,ADPS2);
     fee:	8a 81       	ldd	r24, Y+2	; 0x02
     ff0:	84 60       	ori	r24, 0x04	; 4
     ff2:	8a 83       	std	Y+2, r24	; 0x02
     ff4:	13 c0       	rjmp	.+38     	; 0x101c <ADC_Init+0x132>
			break;
		}
		case ADC_PRE_64:
		{
			CLR_BIT(ADCSRA_temp,ADPS0);
     ff6:	8a 81       	ldd	r24, Y+2	; 0x02
     ff8:	8e 7f       	andi	r24, 0xFE	; 254
     ffa:	8a 83       	std	Y+2, r24	; 0x02
			SET_BIT(ADCSRA_temp,ADPS1);
     ffc:	8a 81       	ldd	r24, Y+2	; 0x02
     ffe:	82 60       	ori	r24, 0x02	; 2
    1000:	8a 83       	std	Y+2, r24	; 0x02
			SET_BIT(ADCSRA_temp,ADPS2);
    1002:	8a 81       	ldd	r24, Y+2	; 0x02
    1004:	84 60       	ori	r24, 0x04	; 4
    1006:	8a 83       	std	Y+2, r24	; 0x02
    1008:	09 c0       	rjmp	.+18     	; 0x101c <ADC_Init+0x132>
			break;
		}
		case ADC_PRE_128:
		{
			SET_BIT(ADCSRA_temp,ADPS0);
    100a:	8a 81       	ldd	r24, Y+2	; 0x02
    100c:	81 60       	ori	r24, 0x01	; 1
    100e:	8a 83       	std	Y+2, r24	; 0x02
			SET_BIT(ADCSRA_temp,ADPS1);
    1010:	8a 81       	ldd	r24, Y+2	; 0x02
    1012:	82 60       	ori	r24, 0x02	; 2
    1014:	8a 83       	std	Y+2, r24	; 0x02
			SET_BIT(ADCSRA_temp,ADPS2);
    1016:	8a 81       	ldd	r24, Y+2	; 0x02
    1018:	84 60       	ori	r24, 0x04	; 4
    101a:	8a 83       	std	Y+2, r24	; 0x02
		}
		default:
				break;
	}
	/***************************************************************/
	switch (ADC_groups.ADC_Volt_Ref)
    101c:	80 91 94 03 	lds	r24, 0x0394
    1020:	28 2f       	mov	r18, r24
    1022:	30 e0       	ldi	r19, 0x00	; 0
    1024:	38 87       	std	Y+8, r19	; 0x08
    1026:	2f 83       	std	Y+7, r18	; 0x07
    1028:	8f 81       	ldd	r24, Y+7	; 0x07
    102a:	98 85       	ldd	r25, Y+8	; 0x08
    102c:	81 30       	cpi	r24, 0x01	; 1
    102e:	91 05       	cpc	r25, r1
    1030:	81 f0       	breq	.+32     	; 0x1052 <ADC_Init+0x168>
    1032:	2f 81       	ldd	r18, Y+7	; 0x07
    1034:	38 85       	ldd	r19, Y+8	; 0x08
    1036:	22 30       	cpi	r18, 0x02	; 2
    1038:	31 05       	cpc	r19, r1
    103a:	91 f0       	breq	.+36     	; 0x1060 <ADC_Init+0x176>
    103c:	8f 81       	ldd	r24, Y+7	; 0x07
    103e:	98 85       	ldd	r25, Y+8	; 0x08
    1040:	00 97       	sbiw	r24, 0x00	; 0
    1042:	a1 f4       	brne	.+40     	; 0x106c <ADC_Init+0x182>
	{
		case ADC_REF_DISABLE:
		{
			CLR_BIT(ADMUX_TEMP,REFS0);
    1044:	89 81       	ldd	r24, Y+1	; 0x01
    1046:	8f 7b       	andi	r24, 0xBF	; 191
    1048:	89 83       	std	Y+1, r24	; 0x01
			CLR_BIT(ADMUX_TEMP,REFS1);
    104a:	89 81       	ldd	r24, Y+1	; 0x01
    104c:	8f 77       	andi	r24, 0x7F	; 127
    104e:	89 83       	std	Y+1, r24	; 0x01
    1050:	0d c0       	rjmp	.+26     	; 0x106c <ADC_Init+0x182>
			break;
		}
		case ADC_AVCC:
		{
			SET_BIT(ADMUX_TEMP,REFS0);
    1052:	89 81       	ldd	r24, Y+1	; 0x01
    1054:	80 64       	ori	r24, 0x40	; 64
    1056:	89 83       	std	Y+1, r24	; 0x01
			CLR_BIT(ADMUX_TEMP,REFS1);
    1058:	89 81       	ldd	r24, Y+1	; 0x01
    105a:	8f 77       	andi	r24, 0x7F	; 127
    105c:	89 83       	std	Y+1, r24	; 0x01
    105e:	06 c0       	rjmp	.+12     	; 0x106c <ADC_Init+0x182>
			break;
		}
		case ADC_INTERNAL_2_56_V:
		{
			SET_BIT(ADMUX_TEMP,REFS0);
    1060:	89 81       	ldd	r24, Y+1	; 0x01
    1062:	80 64       	ori	r24, 0x40	; 64
    1064:	89 83       	std	Y+1, r24	; 0x01
			SET_BIT(ADMUX_TEMP,REFS1);
    1066:	89 81       	ldd	r24, Y+1	; 0x01
    1068:	80 68       	ori	r24, 0x80	; 128
    106a:	89 83       	std	Y+1, r24	; 0x01
		}
		default:
				break;
	}
	/***************************************************************/
	switch (ADC_groups.ADC_Data_Adjustment)
    106c:	80 91 96 03 	lds	r24, 0x0396
    1070:	28 2f       	mov	r18, r24
    1072:	30 e0       	ldi	r19, 0x00	; 0
    1074:	3e 83       	std	Y+6, r19	; 0x06
    1076:	2d 83       	std	Y+5, r18	; 0x05
    1078:	8d 81       	ldd	r24, Y+5	; 0x05
    107a:	9e 81       	ldd	r25, Y+6	; 0x06
    107c:	00 97       	sbiw	r24, 0x00	; 0
    107e:	31 f0       	breq	.+12     	; 0x108c <ADC_Init+0x1a2>
    1080:	2d 81       	ldd	r18, Y+5	; 0x05
    1082:	3e 81       	ldd	r19, Y+6	; 0x06
    1084:	21 30       	cpi	r18, 0x01	; 1
    1086:	31 05       	cpc	r19, r1
    1088:	29 f0       	breq	.+10     	; 0x1094 <ADC_Init+0x1aa>
    108a:	07 c0       	rjmp	.+14     	; 0x109a <ADC_Init+0x1b0>
	{
		case ADC_LEFT_ADJ:
		{
			SET_BIT(ADMUX_TEMP,ADLAR);
    108c:	89 81       	ldd	r24, Y+1	; 0x01
    108e:	80 62       	ori	r24, 0x20	; 32
    1090:	89 83       	std	Y+1, r24	; 0x01
    1092:	03 c0       	rjmp	.+6      	; 0x109a <ADC_Init+0x1b0>
			break;
		}
		case ADC_RIGHT_ADJ:
		{
			CLR_BIT(ADMUX_TEMP,ADLAR);
    1094:	89 81       	ldd	r24, Y+1	; 0x01
    1096:	8f 7d       	andi	r24, 0xDF	; 223
    1098:	89 83       	std	Y+1, r24	; 0x01
		}
		default:
				break;
	}
	/***************************************************************/
	switch (ADC_groups.ADC_Channel)
    109a:	80 91 97 03 	lds	r24, 0x0397
    109e:	28 2f       	mov	r18, r24
    10a0:	30 e0       	ldi	r19, 0x00	; 0
    10a2:	3c 83       	std	Y+4, r19	; 0x04
    10a4:	2b 83       	std	Y+3, r18	; 0x03
    10a6:	8b 81       	ldd	r24, Y+3	; 0x03
    10a8:	9c 81       	ldd	r25, Y+4	; 0x04
    10aa:	83 30       	cpi	r24, 0x03	; 3
    10ac:	91 05       	cpc	r25, r1
    10ae:	09 f4       	brne	.+2      	; 0x10b2 <ADC_Init+0x1c8>
    10b0:	5e c0       	rjmp	.+188    	; 0x116e <ADC_Init+0x284>
    10b2:	2b 81       	ldd	r18, Y+3	; 0x03
    10b4:	3c 81       	ldd	r19, Y+4	; 0x04
    10b6:	24 30       	cpi	r18, 0x04	; 4
    10b8:	31 05       	cpc	r19, r1
    10ba:	84 f4       	brge	.+32     	; 0x10dc <ADC_Init+0x1f2>
    10bc:	8b 81       	ldd	r24, Y+3	; 0x03
    10be:	9c 81       	ldd	r25, Y+4	; 0x04
    10c0:	81 30       	cpi	r24, 0x01	; 1
    10c2:	91 05       	cpc	r25, r1
    10c4:	a1 f1       	breq	.+104    	; 0x112e <ADC_Init+0x244>
    10c6:	2b 81       	ldd	r18, Y+3	; 0x03
    10c8:	3c 81       	ldd	r19, Y+4	; 0x04
    10ca:	22 30       	cpi	r18, 0x02	; 2
    10cc:	31 05       	cpc	r19, r1
    10ce:	0c f0       	brlt	.+2      	; 0x10d2 <ADC_Init+0x1e8>
    10d0:	3e c0       	rjmp	.+124    	; 0x114e <ADC_Init+0x264>
    10d2:	8b 81       	ldd	r24, Y+3	; 0x03
    10d4:	9c 81       	ldd	r25, Y+4	; 0x04
    10d6:	00 97       	sbiw	r24, 0x00	; 0
    10d8:	d1 f0       	breq	.+52     	; 0x110e <ADC_Init+0x224>
    10da:	98 c0       	rjmp	.+304    	; 0x120c <ADC_Init+0x322>
    10dc:	2b 81       	ldd	r18, Y+3	; 0x03
    10de:	3c 81       	ldd	r19, Y+4	; 0x04
    10e0:	25 30       	cpi	r18, 0x05	; 5
    10e2:	31 05       	cpc	r19, r1
    10e4:	09 f4       	brne	.+2      	; 0x10e8 <ADC_Init+0x1fe>
    10e6:	63 c0       	rjmp	.+198    	; 0x11ae <ADC_Init+0x2c4>
    10e8:	8b 81       	ldd	r24, Y+3	; 0x03
    10ea:	9c 81       	ldd	r25, Y+4	; 0x04
    10ec:	85 30       	cpi	r24, 0x05	; 5
    10ee:	91 05       	cpc	r25, r1
    10f0:	0c f4       	brge	.+2      	; 0x10f4 <ADC_Init+0x20a>
    10f2:	4d c0       	rjmp	.+154    	; 0x118e <ADC_Init+0x2a4>
    10f4:	2b 81       	ldd	r18, Y+3	; 0x03
    10f6:	3c 81       	ldd	r19, Y+4	; 0x04
    10f8:	26 30       	cpi	r18, 0x06	; 6
    10fa:	31 05       	cpc	r19, r1
    10fc:	09 f4       	brne	.+2      	; 0x1100 <ADC_Init+0x216>
    10fe:	67 c0       	rjmp	.+206    	; 0x11ce <ADC_Init+0x2e4>
    1100:	8b 81       	ldd	r24, Y+3	; 0x03
    1102:	9c 81       	ldd	r25, Y+4	; 0x04
    1104:	87 30       	cpi	r24, 0x07	; 7
    1106:	91 05       	cpc	r25, r1
    1108:	09 f4       	brne	.+2      	; 0x110c <ADC_Init+0x222>
    110a:	71 c0       	rjmp	.+226    	; 0x11ee <ADC_Init+0x304>
    110c:	7f c0       	rjmp	.+254    	; 0x120c <ADC_Init+0x322>
	{
		case ADC_CH_0:
		{
			CLR_BIT(ADMUX_TEMP,MUX0);
    110e:	89 81       	ldd	r24, Y+1	; 0x01
    1110:	8e 7f       	andi	r24, 0xFE	; 254
    1112:	89 83       	std	Y+1, r24	; 0x01
			CLR_BIT(ADMUX_TEMP,MUX1);
    1114:	89 81       	ldd	r24, Y+1	; 0x01
    1116:	8d 7f       	andi	r24, 0xFD	; 253
    1118:	89 83       	std	Y+1, r24	; 0x01
			CLR_BIT(ADMUX_TEMP,MUX2);
    111a:	89 81       	ldd	r24, Y+1	; 0x01
    111c:	8b 7f       	andi	r24, 0xFB	; 251
    111e:	89 83       	std	Y+1, r24	; 0x01
			CLR_BIT(ADMUX_TEMP,MUX3);
    1120:	89 81       	ldd	r24, Y+1	; 0x01
    1122:	87 7f       	andi	r24, 0xF7	; 247
    1124:	89 83       	std	Y+1, r24	; 0x01
			CLR_BIT(ADMUX_TEMP,MUX4);
    1126:	89 81       	ldd	r24, Y+1	; 0x01
    1128:	8f 7e       	andi	r24, 0xEF	; 239
    112a:	89 83       	std	Y+1, r24	; 0x01
    112c:	6f c0       	rjmp	.+222    	; 0x120c <ADC_Init+0x322>
			break;
		}
		case ADC_CH_1:
		{
			SET_BIT(ADMUX_TEMP,MUX0);
    112e:	89 81       	ldd	r24, Y+1	; 0x01
    1130:	81 60       	ori	r24, 0x01	; 1
    1132:	89 83       	std	Y+1, r24	; 0x01
			CLR_BIT(ADMUX_TEMP,MUX1);
    1134:	89 81       	ldd	r24, Y+1	; 0x01
    1136:	8d 7f       	andi	r24, 0xFD	; 253
    1138:	89 83       	std	Y+1, r24	; 0x01
			CLR_BIT(ADMUX_TEMP,MUX2);
    113a:	89 81       	ldd	r24, Y+1	; 0x01
    113c:	8b 7f       	andi	r24, 0xFB	; 251
    113e:	89 83       	std	Y+1, r24	; 0x01
			CLR_BIT(ADMUX_TEMP,MUX3);
    1140:	89 81       	ldd	r24, Y+1	; 0x01
    1142:	87 7f       	andi	r24, 0xF7	; 247
    1144:	89 83       	std	Y+1, r24	; 0x01
			CLR_BIT(ADMUX_TEMP,MUX4);
    1146:	89 81       	ldd	r24, Y+1	; 0x01
    1148:	8f 7e       	andi	r24, 0xEF	; 239
    114a:	89 83       	std	Y+1, r24	; 0x01
    114c:	5f c0       	rjmp	.+190    	; 0x120c <ADC_Init+0x322>
			break;
		}
		case ADC_CH_2:
		{
			CLR_BIT(ADMUX_TEMP,MUX0);
    114e:	89 81       	ldd	r24, Y+1	; 0x01
    1150:	8e 7f       	andi	r24, 0xFE	; 254
    1152:	89 83       	std	Y+1, r24	; 0x01
			SET_BIT(ADMUX_TEMP,MUX1);
    1154:	89 81       	ldd	r24, Y+1	; 0x01
    1156:	82 60       	ori	r24, 0x02	; 2
    1158:	89 83       	std	Y+1, r24	; 0x01
			CLR_BIT(ADMUX_TEMP,MUX2);
    115a:	89 81       	ldd	r24, Y+1	; 0x01
    115c:	8b 7f       	andi	r24, 0xFB	; 251
    115e:	89 83       	std	Y+1, r24	; 0x01
			CLR_BIT(ADMUX_TEMP,MUX3);
    1160:	89 81       	ldd	r24, Y+1	; 0x01
    1162:	87 7f       	andi	r24, 0xF7	; 247
    1164:	89 83       	std	Y+1, r24	; 0x01
			CLR_BIT(ADMUX_TEMP,MUX4);
    1166:	89 81       	ldd	r24, Y+1	; 0x01
    1168:	8f 7e       	andi	r24, 0xEF	; 239
    116a:	89 83       	std	Y+1, r24	; 0x01
    116c:	4f c0       	rjmp	.+158    	; 0x120c <ADC_Init+0x322>
			break;
		}
		case ADC_CH_3:
		{
			SET_BIT(ADMUX_TEMP,MUX0);
    116e:	89 81       	ldd	r24, Y+1	; 0x01
    1170:	81 60       	ori	r24, 0x01	; 1
    1172:	89 83       	std	Y+1, r24	; 0x01
			SET_BIT(ADMUX_TEMP,MUX1);
    1174:	89 81       	ldd	r24, Y+1	; 0x01
    1176:	82 60       	ori	r24, 0x02	; 2
    1178:	89 83       	std	Y+1, r24	; 0x01
			CLR_BIT(ADMUX_TEMP,MUX2);
    117a:	89 81       	ldd	r24, Y+1	; 0x01
    117c:	8b 7f       	andi	r24, 0xFB	; 251
    117e:	89 83       	std	Y+1, r24	; 0x01
			CLR_BIT(ADMUX_TEMP,MUX3);
    1180:	89 81       	ldd	r24, Y+1	; 0x01
    1182:	87 7f       	andi	r24, 0xF7	; 247
    1184:	89 83       	std	Y+1, r24	; 0x01
			CLR_BIT(ADMUX_TEMP,MUX4);
    1186:	89 81       	ldd	r24, Y+1	; 0x01
    1188:	8f 7e       	andi	r24, 0xEF	; 239
    118a:	89 83       	std	Y+1, r24	; 0x01
    118c:	3f c0       	rjmp	.+126    	; 0x120c <ADC_Init+0x322>
			break;
		}
		case ADC_CH_4:
		{
			CLR_BIT(ADMUX_TEMP,MUX0);
    118e:	89 81       	ldd	r24, Y+1	; 0x01
    1190:	8e 7f       	andi	r24, 0xFE	; 254
    1192:	89 83       	std	Y+1, r24	; 0x01
			CLR_BIT(ADMUX_TEMP,MUX1);
    1194:	89 81       	ldd	r24, Y+1	; 0x01
    1196:	8d 7f       	andi	r24, 0xFD	; 253
    1198:	89 83       	std	Y+1, r24	; 0x01
			SET_BIT(ADMUX_TEMP,MUX2);
    119a:	89 81       	ldd	r24, Y+1	; 0x01
    119c:	84 60       	ori	r24, 0x04	; 4
    119e:	89 83       	std	Y+1, r24	; 0x01
			CLR_BIT(ADMUX_TEMP,MUX3);
    11a0:	89 81       	ldd	r24, Y+1	; 0x01
    11a2:	87 7f       	andi	r24, 0xF7	; 247
    11a4:	89 83       	std	Y+1, r24	; 0x01
			CLR_BIT(ADMUX_TEMP,MUX4);
    11a6:	89 81       	ldd	r24, Y+1	; 0x01
    11a8:	8f 7e       	andi	r24, 0xEF	; 239
    11aa:	89 83       	std	Y+1, r24	; 0x01
    11ac:	2f c0       	rjmp	.+94     	; 0x120c <ADC_Init+0x322>
			break;
		}
		case ADC_CH_5:
		{
			SET_BIT(ADMUX_TEMP,MUX0);
    11ae:	89 81       	ldd	r24, Y+1	; 0x01
    11b0:	81 60       	ori	r24, 0x01	; 1
    11b2:	89 83       	std	Y+1, r24	; 0x01
			CLR_BIT(ADMUX_TEMP,MUX1);
    11b4:	89 81       	ldd	r24, Y+1	; 0x01
    11b6:	8d 7f       	andi	r24, 0xFD	; 253
    11b8:	89 83       	std	Y+1, r24	; 0x01
			SET_BIT(ADMUX_TEMP,MUX2);
    11ba:	89 81       	ldd	r24, Y+1	; 0x01
    11bc:	84 60       	ori	r24, 0x04	; 4
    11be:	89 83       	std	Y+1, r24	; 0x01
			CLR_BIT(ADMUX_TEMP,MUX3);
    11c0:	89 81       	ldd	r24, Y+1	; 0x01
    11c2:	87 7f       	andi	r24, 0xF7	; 247
    11c4:	89 83       	std	Y+1, r24	; 0x01
			CLR_BIT(ADMUX_TEMP,MUX4);
    11c6:	89 81       	ldd	r24, Y+1	; 0x01
    11c8:	8f 7e       	andi	r24, 0xEF	; 239
    11ca:	89 83       	std	Y+1, r24	; 0x01
    11cc:	1f c0       	rjmp	.+62     	; 0x120c <ADC_Init+0x322>
			break;
		}
		case ADC_CH_6:
		{
			CLR_BIT(ADMUX_TEMP,MUX0);
    11ce:	89 81       	ldd	r24, Y+1	; 0x01
    11d0:	8e 7f       	andi	r24, 0xFE	; 254
    11d2:	89 83       	std	Y+1, r24	; 0x01
			SET_BIT(ADMUX_TEMP,MUX1);
    11d4:	89 81       	ldd	r24, Y+1	; 0x01
    11d6:	82 60       	ori	r24, 0x02	; 2
    11d8:	89 83       	std	Y+1, r24	; 0x01
			SET_BIT(ADMUX_TEMP,MUX2);
    11da:	89 81       	ldd	r24, Y+1	; 0x01
    11dc:	84 60       	ori	r24, 0x04	; 4
    11de:	89 83       	std	Y+1, r24	; 0x01
			CLR_BIT(ADMUX_TEMP,MUX3);
    11e0:	89 81       	ldd	r24, Y+1	; 0x01
    11e2:	87 7f       	andi	r24, 0xF7	; 247
    11e4:	89 83       	std	Y+1, r24	; 0x01
			CLR_BIT(ADMUX_TEMP,MUX4);
    11e6:	89 81       	ldd	r24, Y+1	; 0x01
    11e8:	8f 7e       	andi	r24, 0xEF	; 239
    11ea:	89 83       	std	Y+1, r24	; 0x01
    11ec:	0f c0       	rjmp	.+30     	; 0x120c <ADC_Init+0x322>
			break;
		}
		case ADC_CH_7:
		{
			SET_BIT(ADMUX_TEMP,MUX0);
    11ee:	89 81       	ldd	r24, Y+1	; 0x01
    11f0:	81 60       	ori	r24, 0x01	; 1
    11f2:	89 83       	std	Y+1, r24	; 0x01
			SET_BIT(ADMUX_TEMP,MUX1);
    11f4:	89 81       	ldd	r24, Y+1	; 0x01
    11f6:	82 60       	ori	r24, 0x02	; 2
    11f8:	89 83       	std	Y+1, r24	; 0x01
			SET_BIT(ADMUX_TEMP,MUX2);
    11fa:	89 81       	ldd	r24, Y+1	; 0x01
    11fc:	84 60       	ori	r24, 0x04	; 4
    11fe:	89 83       	std	Y+1, r24	; 0x01
			CLR_BIT(ADMUX_TEMP,MUX3);
    1200:	89 81       	ldd	r24, Y+1	; 0x01
    1202:	87 7f       	andi	r24, 0xF7	; 247
    1204:	89 83       	std	Y+1, r24	; 0x01
			CLR_BIT(ADMUX_TEMP,MUX4);
    1206:	89 81       	ldd	r24, Y+1	; 0x01
    1208:	8f 7e       	andi	r24, 0xEF	; 239
    120a:	89 83       	std	Y+1, r24	; 0x01
		default:
				break;
	}
	/***************************************************************/

	ADMUX=ADMUX_TEMP;
    120c:	e7 e2       	ldi	r30, 0x27	; 39
    120e:	f0 e0       	ldi	r31, 0x00	; 0
    1210:	89 81       	ldd	r24, Y+1	; 0x01
    1212:	80 83       	st	Z, r24
	ADCSRA=ADCSRA_temp;
    1214:	e6 e2       	ldi	r30, 0x26	; 38
    1216:	f0 e0       	ldi	r31, 0x00	; 0
    1218:	8a 81       	ldd	r24, Y+2	; 0x02
    121a:	80 83       	st	Z, r24

}
    121c:	2c 96       	adiw	r28, 0x0c	; 12
    121e:	0f b6       	in	r0, 0x3f	; 63
    1220:	f8 94       	cli
    1222:	de bf       	out	0x3e, r29	; 62
    1224:	0f be       	out	0x3f, r0	; 63
    1226:	cd bf       	out	0x3d, r28	; 61
    1228:	cf 91       	pop	r28
    122a:	df 91       	pop	r29
    122c:	08 95       	ret

0000122e <ADC_Start>:

u16 ADC_Start(void)
{
    122e:	df 93       	push	r29
    1230:	cf 93       	push	r28
    1232:	00 d0       	rcall	.+0      	; 0x1234 <ADC_Start+0x6>
    1234:	cd b7       	in	r28, 0x3d	; 61
    1236:	de b7       	in	r29, 0x3e	; 62
    u16 data=0;
    1238:	1a 82       	std	Y+2, r1	; 0x02
    123a:	19 82       	std	Y+1, r1	; 0x01

    SET_BIT(ADCSRA,ADSC);
    123c:	a6 e2       	ldi	r26, 0x26	; 38
    123e:	b0 e0       	ldi	r27, 0x00	; 0
    1240:	e6 e2       	ldi	r30, 0x26	; 38
    1242:	f0 e0       	ldi	r31, 0x00	; 0
    1244:	80 81       	ld	r24, Z
    1246:	80 64       	ori	r24, 0x40	; 64
    1248:	8c 93       	st	X, r24
    while(!(GET_BIT(ADCSRA,ADSC)));
    124a:	e6 e2       	ldi	r30, 0x26	; 38
    124c:	f0 e0       	ldi	r31, 0x00	; 0
    124e:	80 81       	ld	r24, Z
    1250:	82 95       	swap	r24
    1252:	86 95       	lsr	r24
    1254:	86 95       	lsr	r24
    1256:	83 70       	andi	r24, 0x03	; 3
    1258:	88 2f       	mov	r24, r24
    125a:	90 e0       	ldi	r25, 0x00	; 0
    125c:	81 70       	andi	r24, 0x01	; 1
    125e:	90 70       	andi	r25, 0x00	; 0
    1260:	00 97       	sbiw	r24, 0x00	; 0
    1262:	99 f3       	breq	.-26     	; 0x124a <ADC_Start+0x1c>
    //data = (ADCL>>5);			//low have to be accessed first then high
    data |= (ADCH<<2);
    1264:	e5 e2       	ldi	r30, 0x25	; 37
    1266:	f0 e0       	ldi	r31, 0x00	; 0
    1268:	80 81       	ld	r24, Z
    126a:	88 2f       	mov	r24, r24
    126c:	90 e0       	ldi	r25, 0x00	; 0
    126e:	88 0f       	add	r24, r24
    1270:	99 1f       	adc	r25, r25
    1272:	88 0f       	add	r24, r24
    1274:	99 1f       	adc	r25, r25
    1276:	9c 01       	movw	r18, r24
    1278:	89 81       	ldd	r24, Y+1	; 0x01
    127a:	9a 81       	ldd	r25, Y+2	; 0x02
    127c:	82 2b       	or	r24, r18
    127e:	93 2b       	or	r25, r19
    1280:	9a 83       	std	Y+2, r25	; 0x02
    1282:	89 83       	std	Y+1, r24	; 0x01
    return data;
    1284:	89 81       	ldd	r24, Y+1	; 0x01
    1286:	9a 81       	ldd	r25, Y+2	; 0x02
}
    1288:	0f 90       	pop	r0
    128a:	0f 90       	pop	r0
    128c:	cf 91       	pop	r28
    128e:	df 91       	pop	r29
    1290:	08 95       	ret

00001292 <DIO_Init>:
#define GRP_MASK(X) 	DIO_groups[X].mask
#define GRP_DIR(X)	 	DIO_groups[X].direction
#define GRP_PULL(X) 	DIO_groups[X].pull_up_reg

void DIO_Init	(void)
{
    1292:	df 93       	push	r29
    1294:	cf 93       	push	r28
    1296:	0f 92       	push	r0
    1298:	cd b7       	in	r28, 0x3d	; 61
    129a:	de b7       	in	r29, 0x3e	; 62
	u8 i=0;
    129c:	19 82       	std	Y+1, r1	; 0x01
	for(i=0;i<DIO_Number_of_groups;i++)
    129e:	19 82       	std	Y+1, r1	; 0x01
    12a0:	20 c1       	rjmp	.+576    	; 0x14e2 <DIO_Init+0x250>
	{

		DDR( GRP_PORT(i) )  &= ~ ( GRP_MASK(i) ) ;				/*ddr = reset(mask)*/
    12a2:	89 81       	ldd	r24, Y+1	; 0x01
    12a4:	88 2f       	mov	r24, r24
    12a6:	90 e0       	ldi	r25, 0x00	; 0
    12a8:	88 0f       	add	r24, r24
    12aa:	99 1f       	adc	r25, r25
    12ac:	88 0f       	add	r24, r24
    12ae:	99 1f       	adc	r25, r25
    12b0:	fc 01       	movw	r30, r24
    12b2:	e7 56       	subi	r30, 0x67	; 103
    12b4:	fc 4f       	sbci	r31, 0xFC	; 252
    12b6:	80 81       	ld	r24, Z
    12b8:	28 2f       	mov	r18, r24
    12ba:	30 e0       	ldi	r19, 0x00	; 0
    12bc:	c9 01       	movw	r24, r18
    12be:	88 0f       	add	r24, r24
    12c0:	99 1f       	adc	r25, r25
    12c2:	82 0f       	add	r24, r18
    12c4:	93 1f       	adc	r25, r19
    12c6:	90 95       	com	r25
    12c8:	81 95       	neg	r24
    12ca:	9f 4f       	sbci	r25, 0xFF	; 255
    12cc:	dc 01       	movw	r26, r24
    12ce:	da 96       	adiw	r26, 0x3a	; 58
    12d0:	89 81       	ldd	r24, Y+1	; 0x01
    12d2:	88 2f       	mov	r24, r24
    12d4:	90 e0       	ldi	r25, 0x00	; 0
    12d6:	88 0f       	add	r24, r24
    12d8:	99 1f       	adc	r25, r25
    12da:	88 0f       	add	r24, r24
    12dc:	99 1f       	adc	r25, r25
    12de:	fc 01       	movw	r30, r24
    12e0:	e7 56       	subi	r30, 0x67	; 103
    12e2:	fc 4f       	sbci	r31, 0xFC	; 252
    12e4:	80 81       	ld	r24, Z
    12e6:	28 2f       	mov	r18, r24
    12e8:	30 e0       	ldi	r19, 0x00	; 0
    12ea:	c9 01       	movw	r24, r18
    12ec:	88 0f       	add	r24, r24
    12ee:	99 1f       	adc	r25, r25
    12f0:	82 0f       	add	r24, r18
    12f2:	93 1f       	adc	r25, r19
    12f4:	90 95       	com	r25
    12f6:	81 95       	neg	r24
    12f8:	9f 4f       	sbci	r25, 0xFF	; 255
    12fa:	fc 01       	movw	r30, r24
    12fc:	fa 96       	adiw	r30, 0x3a	; 58
    12fe:	80 81       	ld	r24, Z
    1300:	28 2f       	mov	r18, r24
    1302:	89 81       	ldd	r24, Y+1	; 0x01
    1304:	88 2f       	mov	r24, r24
    1306:	90 e0       	ldi	r25, 0x00	; 0
    1308:	88 0f       	add	r24, r24
    130a:	99 1f       	adc	r25, r25
    130c:	88 0f       	add	r24, r24
    130e:	99 1f       	adc	r25, r25
    1310:	fc 01       	movw	r30, r24
    1312:	e6 56       	subi	r30, 0x66	; 102
    1314:	fc 4f       	sbci	r31, 0xFC	; 252
    1316:	80 81       	ld	r24, Z
    1318:	80 95       	com	r24
    131a:	82 23       	and	r24, r18
    131c:	8c 93       	st	X, r24

		DDR( GRP_PORT(i) ) 	|=  (GRP_DIR(i)  &  GRP_MASK(i));	/*ddr = set(dir & mask)*/
    131e:	89 81       	ldd	r24, Y+1	; 0x01
    1320:	88 2f       	mov	r24, r24
    1322:	90 e0       	ldi	r25, 0x00	; 0
    1324:	88 0f       	add	r24, r24
    1326:	99 1f       	adc	r25, r25
    1328:	88 0f       	add	r24, r24
    132a:	99 1f       	adc	r25, r25
    132c:	fc 01       	movw	r30, r24
    132e:	e7 56       	subi	r30, 0x67	; 103
    1330:	fc 4f       	sbci	r31, 0xFC	; 252
    1332:	80 81       	ld	r24, Z
    1334:	28 2f       	mov	r18, r24
    1336:	30 e0       	ldi	r19, 0x00	; 0
    1338:	c9 01       	movw	r24, r18
    133a:	88 0f       	add	r24, r24
    133c:	99 1f       	adc	r25, r25
    133e:	82 0f       	add	r24, r18
    1340:	93 1f       	adc	r25, r19
    1342:	90 95       	com	r25
    1344:	81 95       	neg	r24
    1346:	9f 4f       	sbci	r25, 0xFF	; 255
    1348:	dc 01       	movw	r26, r24
    134a:	da 96       	adiw	r26, 0x3a	; 58
    134c:	89 81       	ldd	r24, Y+1	; 0x01
    134e:	88 2f       	mov	r24, r24
    1350:	90 e0       	ldi	r25, 0x00	; 0
    1352:	88 0f       	add	r24, r24
    1354:	99 1f       	adc	r25, r25
    1356:	88 0f       	add	r24, r24
    1358:	99 1f       	adc	r25, r25
    135a:	fc 01       	movw	r30, r24
    135c:	e7 56       	subi	r30, 0x67	; 103
    135e:	fc 4f       	sbci	r31, 0xFC	; 252
    1360:	80 81       	ld	r24, Z
    1362:	28 2f       	mov	r18, r24
    1364:	30 e0       	ldi	r19, 0x00	; 0
    1366:	c9 01       	movw	r24, r18
    1368:	88 0f       	add	r24, r24
    136a:	99 1f       	adc	r25, r25
    136c:	82 0f       	add	r24, r18
    136e:	93 1f       	adc	r25, r19
    1370:	90 95       	com	r25
    1372:	81 95       	neg	r24
    1374:	9f 4f       	sbci	r25, 0xFF	; 255
    1376:	fc 01       	movw	r30, r24
    1378:	fa 96       	adiw	r30, 0x3a	; 58
    137a:	30 81       	ld	r19, Z
    137c:	89 81       	ldd	r24, Y+1	; 0x01
    137e:	88 2f       	mov	r24, r24
    1380:	90 e0       	ldi	r25, 0x00	; 0
    1382:	88 0f       	add	r24, r24
    1384:	99 1f       	adc	r25, r25
    1386:	01 96       	adiw	r24, 0x01	; 1
    1388:	88 0f       	add	r24, r24
    138a:	99 1f       	adc	r25, r25
    138c:	fc 01       	movw	r30, r24
    138e:	e7 56       	subi	r30, 0x67	; 103
    1390:	fc 4f       	sbci	r31, 0xFC	; 252
    1392:	20 81       	ld	r18, Z
    1394:	89 81       	ldd	r24, Y+1	; 0x01
    1396:	88 2f       	mov	r24, r24
    1398:	90 e0       	ldi	r25, 0x00	; 0
    139a:	88 0f       	add	r24, r24
    139c:	99 1f       	adc	r25, r25
    139e:	88 0f       	add	r24, r24
    13a0:	99 1f       	adc	r25, r25
    13a2:	fc 01       	movw	r30, r24
    13a4:	e6 56       	subi	r30, 0x66	; 102
    13a6:	fc 4f       	sbci	r31, 0xFC	; 252
    13a8:	80 81       	ld	r24, Z
    13aa:	82 23       	and	r24, r18
    13ac:	83 2b       	or	r24, r19
    13ae:	8c 93       	st	X, r24

																/*port = reset(mask)*/
		PORT( GRP_PORT(i) )	&= ~( GRP_MASK(i) );
    13b0:	89 81       	ldd	r24, Y+1	; 0x01
    13b2:	88 2f       	mov	r24, r24
    13b4:	90 e0       	ldi	r25, 0x00	; 0
    13b6:	88 0f       	add	r24, r24
    13b8:	99 1f       	adc	r25, r25
    13ba:	88 0f       	add	r24, r24
    13bc:	99 1f       	adc	r25, r25
    13be:	fc 01       	movw	r30, r24
    13c0:	e7 56       	subi	r30, 0x67	; 103
    13c2:	fc 4f       	sbci	r31, 0xFC	; 252
    13c4:	80 81       	ld	r24, Z
    13c6:	28 2f       	mov	r18, r24
    13c8:	30 e0       	ldi	r19, 0x00	; 0
    13ca:	c9 01       	movw	r24, r18
    13cc:	88 0f       	add	r24, r24
    13ce:	99 1f       	adc	r25, r25
    13d0:	82 0f       	add	r24, r18
    13d2:	93 1f       	adc	r25, r19
    13d4:	90 95       	com	r25
    13d6:	81 95       	neg	r24
    13d8:	9f 4f       	sbci	r25, 0xFF	; 255
    13da:	dc 01       	movw	r26, r24
    13dc:	db 96       	adiw	r26, 0x3b	; 59
    13de:	89 81       	ldd	r24, Y+1	; 0x01
    13e0:	88 2f       	mov	r24, r24
    13e2:	90 e0       	ldi	r25, 0x00	; 0
    13e4:	88 0f       	add	r24, r24
    13e6:	99 1f       	adc	r25, r25
    13e8:	88 0f       	add	r24, r24
    13ea:	99 1f       	adc	r25, r25
    13ec:	fc 01       	movw	r30, r24
    13ee:	e7 56       	subi	r30, 0x67	; 103
    13f0:	fc 4f       	sbci	r31, 0xFC	; 252
    13f2:	80 81       	ld	r24, Z
    13f4:	28 2f       	mov	r18, r24
    13f6:	30 e0       	ldi	r19, 0x00	; 0
    13f8:	c9 01       	movw	r24, r18
    13fa:	88 0f       	add	r24, r24
    13fc:	99 1f       	adc	r25, r25
    13fe:	82 0f       	add	r24, r18
    1400:	93 1f       	adc	r25, r19
    1402:	90 95       	com	r25
    1404:	81 95       	neg	r24
    1406:	9f 4f       	sbci	r25, 0xFF	; 255
    1408:	fc 01       	movw	r30, r24
    140a:	fb 96       	adiw	r30, 0x3b	; 59
    140c:	80 81       	ld	r24, Z
    140e:	28 2f       	mov	r18, r24
    1410:	89 81       	ldd	r24, Y+1	; 0x01
    1412:	88 2f       	mov	r24, r24
    1414:	90 e0       	ldi	r25, 0x00	; 0
    1416:	88 0f       	add	r24, r24
    1418:	99 1f       	adc	r25, r25
    141a:	88 0f       	add	r24, r24
    141c:	99 1f       	adc	r25, r25
    141e:	fc 01       	movw	r30, r24
    1420:	e6 56       	subi	r30, 0x66	; 102
    1422:	fc 4f       	sbci	r31, 0xFC	; 252
    1424:	80 81       	ld	r24, Z
    1426:	80 95       	com	r24
    1428:	82 23       	and	r24, r18
    142a:	8c 93       	st	X, r24
																/*port = set(pull up & mask & ~dir)*/
		PORT( GRP_PORT(i) )	 |=  ( GRP_PULL(i) 	&  GRP_MASK(i) & ( ~GRP_DIR(i) ) );
    142c:	89 81       	ldd	r24, Y+1	; 0x01
    142e:	88 2f       	mov	r24, r24
    1430:	90 e0       	ldi	r25, 0x00	; 0
    1432:	88 0f       	add	r24, r24
    1434:	99 1f       	adc	r25, r25
    1436:	88 0f       	add	r24, r24
    1438:	99 1f       	adc	r25, r25
    143a:	fc 01       	movw	r30, r24
    143c:	e7 56       	subi	r30, 0x67	; 103
    143e:	fc 4f       	sbci	r31, 0xFC	; 252
    1440:	80 81       	ld	r24, Z
    1442:	28 2f       	mov	r18, r24
    1444:	30 e0       	ldi	r19, 0x00	; 0
    1446:	c9 01       	movw	r24, r18
    1448:	88 0f       	add	r24, r24
    144a:	99 1f       	adc	r25, r25
    144c:	82 0f       	add	r24, r18
    144e:	93 1f       	adc	r25, r19
    1450:	90 95       	com	r25
    1452:	81 95       	neg	r24
    1454:	9f 4f       	sbci	r25, 0xFF	; 255
    1456:	dc 01       	movw	r26, r24
    1458:	db 96       	adiw	r26, 0x3b	; 59
    145a:	89 81       	ldd	r24, Y+1	; 0x01
    145c:	88 2f       	mov	r24, r24
    145e:	90 e0       	ldi	r25, 0x00	; 0
    1460:	88 0f       	add	r24, r24
    1462:	99 1f       	adc	r25, r25
    1464:	88 0f       	add	r24, r24
    1466:	99 1f       	adc	r25, r25
    1468:	fc 01       	movw	r30, r24
    146a:	e7 56       	subi	r30, 0x67	; 103
    146c:	fc 4f       	sbci	r31, 0xFC	; 252
    146e:	80 81       	ld	r24, Z
    1470:	28 2f       	mov	r18, r24
    1472:	30 e0       	ldi	r19, 0x00	; 0
    1474:	c9 01       	movw	r24, r18
    1476:	88 0f       	add	r24, r24
    1478:	99 1f       	adc	r25, r25
    147a:	82 0f       	add	r24, r18
    147c:	93 1f       	adc	r25, r19
    147e:	90 95       	com	r25
    1480:	81 95       	neg	r24
    1482:	9f 4f       	sbci	r25, 0xFF	; 255
    1484:	fc 01       	movw	r30, r24
    1486:	fb 96       	adiw	r30, 0x3b	; 59
    1488:	80 81       	ld	r24, Z
    148a:	38 2f       	mov	r19, r24
    148c:	89 81       	ldd	r24, Y+1	; 0x01
    148e:	88 2f       	mov	r24, r24
    1490:	90 e0       	ldi	r25, 0x00	; 0
    1492:	88 0f       	add	r24, r24
    1494:	99 1f       	adc	r25, r25
    1496:	88 0f       	add	r24, r24
    1498:	99 1f       	adc	r25, r25
    149a:	fc 01       	movw	r30, r24
    149c:	e4 56       	subi	r30, 0x64	; 100
    149e:	fc 4f       	sbci	r31, 0xFC	; 252
    14a0:	20 81       	ld	r18, Z
    14a2:	89 81       	ldd	r24, Y+1	; 0x01
    14a4:	88 2f       	mov	r24, r24
    14a6:	90 e0       	ldi	r25, 0x00	; 0
    14a8:	88 0f       	add	r24, r24
    14aa:	99 1f       	adc	r25, r25
    14ac:	88 0f       	add	r24, r24
    14ae:	99 1f       	adc	r25, r25
    14b0:	fc 01       	movw	r30, r24
    14b2:	e6 56       	subi	r30, 0x66	; 102
    14b4:	fc 4f       	sbci	r31, 0xFC	; 252
    14b6:	80 81       	ld	r24, Z
    14b8:	82 23       	and	r24, r18
    14ba:	28 2f       	mov	r18, r24
    14bc:	89 81       	ldd	r24, Y+1	; 0x01
    14be:	88 2f       	mov	r24, r24
    14c0:	90 e0       	ldi	r25, 0x00	; 0
    14c2:	88 0f       	add	r24, r24
    14c4:	99 1f       	adc	r25, r25
    14c6:	01 96       	adiw	r24, 0x01	; 1
    14c8:	88 0f       	add	r24, r24
    14ca:	99 1f       	adc	r25, r25
    14cc:	fc 01       	movw	r30, r24
    14ce:	e7 56       	subi	r30, 0x67	; 103
    14d0:	fc 4f       	sbci	r31, 0xFC	; 252
    14d2:	80 81       	ld	r24, Z
    14d4:	80 95       	com	r24
    14d6:	82 23       	and	r24, r18
    14d8:	83 2b       	or	r24, r19
    14da:	8c 93       	st	X, r24
#define GRP_PULL(X) 	DIO_groups[X].pull_up_reg

void DIO_Init	(void)
{
	u8 i=0;
	for(i=0;i<DIO_Number_of_groups;i++)
    14dc:	89 81       	ldd	r24, Y+1	; 0x01
    14de:	8f 5f       	subi	r24, 0xFF	; 255
    14e0:	89 83       	std	Y+1, r24	; 0x01
    14e2:	89 81       	ldd	r24, Y+1	; 0x01
    14e4:	8d 30       	cpi	r24, 0x0D	; 13
    14e6:	08 f4       	brcc	.+2      	; 0x14ea <DIO_Init+0x258>
    14e8:	dc ce       	rjmp	.-584    	; 0x12a2 <DIO_Init+0x10>
		PORT( GRP_PORT(i) )	&= ~( GRP_MASK(i) );
																/*port = set(pull up & mask & ~dir)*/
		PORT( GRP_PORT(i) )	 |=  ( GRP_PULL(i) 	&  GRP_MASK(i) & ( ~GRP_DIR(i) ) );
	}

}
    14ea:	0f 90       	pop	r0
    14ec:	cf 91       	pop	r28
    14ee:	df 91       	pop	r29
    14f0:	08 95       	ret

000014f2 <DIO_Write>:
void DIO_Write 	(u8 data, u8 Group_id)
{	u8 Copy_portValue 	= PORT( GRP_PORT(Group_id));
    14f2:	df 93       	push	r29
    14f4:	cf 93       	push	r28
    14f6:	00 d0       	rcall	.+0      	; 0x14f8 <DIO_Write+0x6>
    14f8:	0f 92       	push	r0
    14fa:	cd b7       	in	r28, 0x3d	; 61
    14fc:	de b7       	in	r29, 0x3e	; 62
    14fe:	8a 83       	std	Y+2, r24	; 0x02
    1500:	6b 83       	std	Y+3, r22	; 0x03
    1502:	8b 81       	ldd	r24, Y+3	; 0x03
    1504:	88 2f       	mov	r24, r24
    1506:	90 e0       	ldi	r25, 0x00	; 0
    1508:	88 0f       	add	r24, r24
    150a:	99 1f       	adc	r25, r25
    150c:	88 0f       	add	r24, r24
    150e:	99 1f       	adc	r25, r25
    1510:	fc 01       	movw	r30, r24
    1512:	e7 56       	subi	r30, 0x67	; 103
    1514:	fc 4f       	sbci	r31, 0xFC	; 252
    1516:	80 81       	ld	r24, Z
    1518:	28 2f       	mov	r18, r24
    151a:	30 e0       	ldi	r19, 0x00	; 0
    151c:	c9 01       	movw	r24, r18
    151e:	88 0f       	add	r24, r24
    1520:	99 1f       	adc	r25, r25
    1522:	82 0f       	add	r24, r18
    1524:	93 1f       	adc	r25, r19
    1526:	90 95       	com	r25
    1528:	81 95       	neg	r24
    152a:	9f 4f       	sbci	r25, 0xFF	; 255
    152c:	fc 01       	movw	r30, r24
    152e:	fb 96       	adiw	r30, 0x3b	; 59
    1530:	80 81       	ld	r24, Z
    1532:	89 83       	std	Y+1, r24	; 0x01

	Copy_portValue 		&= ~( GRP_MASK(Group_id) );
    1534:	8b 81       	ldd	r24, Y+3	; 0x03
    1536:	88 2f       	mov	r24, r24
    1538:	90 e0       	ldi	r25, 0x00	; 0
    153a:	88 0f       	add	r24, r24
    153c:	99 1f       	adc	r25, r25
    153e:	88 0f       	add	r24, r24
    1540:	99 1f       	adc	r25, r25
    1542:	fc 01       	movw	r30, r24
    1544:	e6 56       	subi	r30, 0x66	; 102
    1546:	fc 4f       	sbci	r31, 0xFC	; 252
    1548:	80 81       	ld	r24, Z
    154a:	98 2f       	mov	r25, r24
    154c:	90 95       	com	r25
    154e:	89 81       	ldd	r24, Y+1	; 0x01
    1550:	89 23       	and	r24, r25
    1552:	89 83       	std	Y+1, r24	; 0x01
	Copy_portValue 		|=  (GRP_MASK(Group_id) & data );
    1554:	8b 81       	ldd	r24, Y+3	; 0x03
    1556:	88 2f       	mov	r24, r24
    1558:	90 e0       	ldi	r25, 0x00	; 0
    155a:	88 0f       	add	r24, r24
    155c:	99 1f       	adc	r25, r25
    155e:	88 0f       	add	r24, r24
    1560:	99 1f       	adc	r25, r25
    1562:	fc 01       	movw	r30, r24
    1564:	e6 56       	subi	r30, 0x66	; 102
    1566:	fc 4f       	sbci	r31, 0xFC	; 252
    1568:	90 81       	ld	r25, Z
    156a:	8a 81       	ldd	r24, Y+2	; 0x02
    156c:	98 23       	and	r25, r24
    156e:	89 81       	ldd	r24, Y+1	; 0x01
    1570:	89 2b       	or	r24, r25
    1572:	89 83       	std	Y+1, r24	; 0x01

	PORT( GRP_PORT(Group_id))	= Copy_portValue;
    1574:	8b 81       	ldd	r24, Y+3	; 0x03
    1576:	88 2f       	mov	r24, r24
    1578:	90 e0       	ldi	r25, 0x00	; 0
    157a:	88 0f       	add	r24, r24
    157c:	99 1f       	adc	r25, r25
    157e:	88 0f       	add	r24, r24
    1580:	99 1f       	adc	r25, r25
    1582:	fc 01       	movw	r30, r24
    1584:	e7 56       	subi	r30, 0x67	; 103
    1586:	fc 4f       	sbci	r31, 0xFC	; 252
    1588:	80 81       	ld	r24, Z
    158a:	28 2f       	mov	r18, r24
    158c:	30 e0       	ldi	r19, 0x00	; 0
    158e:	c9 01       	movw	r24, r18
    1590:	88 0f       	add	r24, r24
    1592:	99 1f       	adc	r25, r25
    1594:	82 0f       	add	r24, r18
    1596:	93 1f       	adc	r25, r19
    1598:	90 95       	com	r25
    159a:	81 95       	neg	r24
    159c:	9f 4f       	sbci	r25, 0xFF	; 255
    159e:	fc 01       	movw	r30, r24
    15a0:	fb 96       	adiw	r30, 0x3b	; 59
    15a2:	89 81       	ldd	r24, Y+1	; 0x01
    15a4:	80 83       	st	Z, r24
}
    15a6:	0f 90       	pop	r0
    15a8:	0f 90       	pop	r0
    15aa:	0f 90       	pop	r0
    15ac:	cf 91       	pop	r28
    15ae:	df 91       	pop	r29
    15b0:	08 95       	ret

000015b2 <DIO_Read>:


u8   DIO_Read	(u8 Group_id)
{
    15b2:	df 93       	push	r29
    15b4:	cf 93       	push	r28
    15b6:	0f 92       	push	r0
    15b8:	cd b7       	in	r28, 0x3d	; 61
    15ba:	de b7       	in	r29, 0x3e	; 62
    15bc:	89 83       	std	Y+1, r24	; 0x01
	/*RETURN PIN & MASK */
	return ( PIN(DIO_groups[Group_id].port_id)   &   DIO_groups[Group_id].mask ) ;
    15be:	89 81       	ldd	r24, Y+1	; 0x01
    15c0:	88 2f       	mov	r24, r24
    15c2:	90 e0       	ldi	r25, 0x00	; 0
    15c4:	88 0f       	add	r24, r24
    15c6:	99 1f       	adc	r25, r25
    15c8:	88 0f       	add	r24, r24
    15ca:	99 1f       	adc	r25, r25
    15cc:	fc 01       	movw	r30, r24
    15ce:	e7 56       	subi	r30, 0x67	; 103
    15d0:	fc 4f       	sbci	r31, 0xFC	; 252
    15d2:	80 81       	ld	r24, Z
    15d4:	28 2f       	mov	r18, r24
    15d6:	30 e0       	ldi	r19, 0x00	; 0
    15d8:	c9 01       	movw	r24, r18
    15da:	88 0f       	add	r24, r24
    15dc:	99 1f       	adc	r25, r25
    15de:	82 0f       	add	r24, r18
    15e0:	93 1f       	adc	r25, r19
    15e2:	90 95       	com	r25
    15e4:	81 95       	neg	r24
    15e6:	9f 4f       	sbci	r25, 0xFF	; 255
    15e8:	fc 01       	movw	r30, r24
    15ea:	f9 96       	adiw	r30, 0x39	; 57
    15ec:	20 81       	ld	r18, Z
    15ee:	89 81       	ldd	r24, Y+1	; 0x01
    15f0:	88 2f       	mov	r24, r24
    15f2:	90 e0       	ldi	r25, 0x00	; 0
    15f4:	88 0f       	add	r24, r24
    15f6:	99 1f       	adc	r25, r25
    15f8:	88 0f       	add	r24, r24
    15fa:	99 1f       	adc	r25, r25
    15fc:	fc 01       	movw	r30, r24
    15fe:	e6 56       	subi	r30, 0x66	; 102
    1600:	fc 4f       	sbci	r31, 0xFC	; 252
    1602:	80 81       	ld	r24, Z
    1604:	82 23       	and	r24, r18
}
    1606:	0f 90       	pop	r0
    1608:	cf 91       	pop	r28
    160a:	df 91       	pop	r29
    160c:	08 95       	ret

0000160e <DIO_Toggle>:

void DIO_Toggle 	(u8 data, u8 Group_id)
{	u8 Copy_portValue 	= PORT( GRP_PORT(Group_id));
    160e:	df 93       	push	r29
    1610:	cf 93       	push	r28
    1612:	00 d0       	rcall	.+0      	; 0x1614 <DIO_Toggle+0x6>
    1614:	0f 92       	push	r0
    1616:	cd b7       	in	r28, 0x3d	; 61
    1618:	de b7       	in	r29, 0x3e	; 62
    161a:	8a 83       	std	Y+2, r24	; 0x02
    161c:	6b 83       	std	Y+3, r22	; 0x03
    161e:	8b 81       	ldd	r24, Y+3	; 0x03
    1620:	88 2f       	mov	r24, r24
    1622:	90 e0       	ldi	r25, 0x00	; 0
    1624:	88 0f       	add	r24, r24
    1626:	99 1f       	adc	r25, r25
    1628:	88 0f       	add	r24, r24
    162a:	99 1f       	adc	r25, r25
    162c:	fc 01       	movw	r30, r24
    162e:	e7 56       	subi	r30, 0x67	; 103
    1630:	fc 4f       	sbci	r31, 0xFC	; 252
    1632:	80 81       	ld	r24, Z
    1634:	28 2f       	mov	r18, r24
    1636:	30 e0       	ldi	r19, 0x00	; 0
    1638:	c9 01       	movw	r24, r18
    163a:	88 0f       	add	r24, r24
    163c:	99 1f       	adc	r25, r25
    163e:	82 0f       	add	r24, r18
    1640:	93 1f       	adc	r25, r19
    1642:	90 95       	com	r25
    1644:	81 95       	neg	r24
    1646:	9f 4f       	sbci	r25, 0xFF	; 255
    1648:	fc 01       	movw	r30, r24
    164a:	fb 96       	adiw	r30, 0x3b	; 59
    164c:	80 81       	ld	r24, Z
    164e:	89 83       	std	Y+1, r24	; 0x01

	//Copy_portValue 		&= ~( GRP_MASK(Group_id) );
	Copy_portValue 		^=  (GRP_MASK(Group_id) & data );
    1650:	8b 81       	ldd	r24, Y+3	; 0x03
    1652:	88 2f       	mov	r24, r24
    1654:	90 e0       	ldi	r25, 0x00	; 0
    1656:	88 0f       	add	r24, r24
    1658:	99 1f       	adc	r25, r25
    165a:	88 0f       	add	r24, r24
    165c:	99 1f       	adc	r25, r25
    165e:	fc 01       	movw	r30, r24
    1660:	e6 56       	subi	r30, 0x66	; 102
    1662:	fc 4f       	sbci	r31, 0xFC	; 252
    1664:	90 81       	ld	r25, Z
    1666:	8a 81       	ldd	r24, Y+2	; 0x02
    1668:	98 23       	and	r25, r24
    166a:	89 81       	ldd	r24, Y+1	; 0x01
    166c:	89 27       	eor	r24, r25
    166e:	89 83       	std	Y+1, r24	; 0x01

	PORT( GRP_PORT(Group_id))	= Copy_portValue;
    1670:	8b 81       	ldd	r24, Y+3	; 0x03
    1672:	88 2f       	mov	r24, r24
    1674:	90 e0       	ldi	r25, 0x00	; 0
    1676:	88 0f       	add	r24, r24
    1678:	99 1f       	adc	r25, r25
    167a:	88 0f       	add	r24, r24
    167c:	99 1f       	adc	r25, r25
    167e:	fc 01       	movw	r30, r24
    1680:	e7 56       	subi	r30, 0x67	; 103
    1682:	fc 4f       	sbci	r31, 0xFC	; 252
    1684:	80 81       	ld	r24, Z
    1686:	28 2f       	mov	r18, r24
    1688:	30 e0       	ldi	r19, 0x00	; 0
    168a:	c9 01       	movw	r24, r18
    168c:	88 0f       	add	r24, r24
    168e:	99 1f       	adc	r25, r25
    1690:	82 0f       	add	r24, r18
    1692:	93 1f       	adc	r25, r19
    1694:	90 95       	com	r25
    1696:	81 95       	neg	r24
    1698:	9f 4f       	sbci	r25, 0xFF	; 255
    169a:	fc 01       	movw	r30, r24
    169c:	fb 96       	adiw	r30, 0x3b	; 59
    169e:	89 81       	ldd	r24, Y+1	; 0x01
    16a0:	80 83       	st	Z, r24
}
    16a2:	0f 90       	pop	r0
    16a4:	0f 90       	pop	r0
    16a6:	0f 90       	pop	r0
    16a8:	cf 91       	pop	r28
    16aa:	df 91       	pop	r29
    16ac:	08 95       	ret

000016ae <INT_Void_ExternalIntInit>:


#include "../INC/INT_interface.h"

void INT_Void_ExternalIntInit(u8 Copy_u8_ChannelNo)
{
    16ae:	df 93       	push	r29
    16b0:	cf 93       	push	r28
    16b2:	00 d0       	rcall	.+0      	; 0x16b4 <INT_Void_ExternalIntInit+0x6>
    16b4:	0f 92       	push	r0
    16b6:	cd b7       	in	r28, 0x3d	; 61
    16b8:	de b7       	in	r29, 0x3e	; 62
    16ba:	89 83       	std	Y+1, r24	; 0x01
	SET_BIT(SREG_REG,7);			//enable general interrupt
    16bc:	af e5       	ldi	r26, 0x5F	; 95
    16be:	b0 e0       	ldi	r27, 0x00	; 0
    16c0:	ef e5       	ldi	r30, 0x5F	; 95
    16c2:	f0 e0       	ldi	r31, 0x00	; 0
    16c4:	80 81       	ld	r24, Z
    16c6:	80 68       	ori	r24, 0x80	; 128
    16c8:	8c 93       	st	X, r24
	SET_BIT(MCUCR_REG,0);			//any logical change
    16ca:	a5 e5       	ldi	r26, 0x55	; 85
    16cc:	b0 e0       	ldi	r27, 0x00	; 0
    16ce:	e5 e5       	ldi	r30, 0x55	; 85
    16d0:	f0 e0       	ldi	r31, 0x00	; 0
    16d2:	80 81       	ld	r24, Z
    16d4:	81 60       	ori	r24, 0x01	; 1
    16d6:	8c 93       	st	X, r24

	switch (Copy_u8_ChannelNo)
    16d8:	89 81       	ldd	r24, Y+1	; 0x01
    16da:	28 2f       	mov	r18, r24
    16dc:	30 e0       	ldi	r19, 0x00	; 0
    16de:	3b 83       	std	Y+3, r19	; 0x03
    16e0:	2a 83       	std	Y+2, r18	; 0x02
    16e2:	8a 81       	ldd	r24, Y+2	; 0x02
    16e4:	9b 81       	ldd	r25, Y+3	; 0x03
    16e6:	86 30       	cpi	r24, 0x06	; 6
    16e8:	91 05       	cpc	r25, r1
    16ea:	59 f0       	breq	.+22     	; 0x1702 <INT_Void_ExternalIntInit+0x54>
    16ec:	2a 81       	ldd	r18, Y+2	; 0x02
    16ee:	3b 81       	ldd	r19, Y+3	; 0x03
    16f0:	27 30       	cpi	r18, 0x07	; 7
    16f2:	31 05       	cpc	r19, r1
    16f4:	71 f0       	breq	.+28     	; 0x1712 <INT_Void_ExternalIntInit+0x64>
    16f6:	8a 81       	ldd	r24, Y+2	; 0x02
    16f8:	9b 81       	ldd	r25, Y+3	; 0x03
    16fa:	85 30       	cpi	r24, 0x05	; 5
    16fc:	91 05       	cpc	r25, r1
    16fe:	89 f0       	breq	.+34     	; 0x1722 <INT_Void_ExternalIntInit+0x74>
    1700:	17 c0       	rjmp	.+46     	; 0x1730 <INT_Void_ExternalIntInit+0x82>
	{
		case EXT_INT_0:
		{
			SET_BIT(GICR_REG,EXT_INT_0);	//enable external interrupt 0
    1702:	ab e5       	ldi	r26, 0x5B	; 91
    1704:	b0 e0       	ldi	r27, 0x00	; 0
    1706:	eb e5       	ldi	r30, 0x5B	; 91
    1708:	f0 e0       	ldi	r31, 0x00	; 0
    170a:	80 81       	ld	r24, Z
    170c:	80 64       	ori	r24, 0x40	; 64
    170e:	8c 93       	st	X, r24
    1710:	0f c0       	rjmp	.+30     	; 0x1730 <INT_Void_ExternalIntInit+0x82>
			//SEI();
			break;
		}
		case EXT_INT_1:
		{
			SET_BIT(GICR_REG,EXT_INT_1);	//enable external interrupt 1
    1712:	ab e5       	ldi	r26, 0x5B	; 91
    1714:	b0 e0       	ldi	r27, 0x00	; 0
    1716:	eb e5       	ldi	r30, 0x5B	; 91
    1718:	f0 e0       	ldi	r31, 0x00	; 0
    171a:	80 81       	ld	r24, Z
    171c:	80 68       	ori	r24, 0x80	; 128
    171e:	8c 93       	st	X, r24
    1720:	07 c0       	rjmp	.+14     	; 0x1730 <INT_Void_ExternalIntInit+0x82>
			break;
		}
		case EXT_INT_2:
		{
			SET_BIT(GICR_REG,EXT_INT_2);	//enable external interrupt 2
    1722:	ab e5       	ldi	r26, 0x5B	; 91
    1724:	b0 e0       	ldi	r27, 0x00	; 0
    1726:	eb e5       	ldi	r30, 0x5B	; 91
    1728:	f0 e0       	ldi	r31, 0x00	; 0
    172a:	80 81       	ld	r24, Z
    172c:	80 62       	ori	r24, 0x20	; 32
    172e:	8c 93       	st	X, r24

			break;
		}

	}
}
    1730:	0f 90       	pop	r0
    1732:	0f 90       	pop	r0
    1734:	0f 90       	pop	r0
    1736:	cf 91       	pop	r28
    1738:	df 91       	pop	r29
    173a:	08 95       	ret

0000173c <SPI_Init>:
#include "SPI.h"

SPI_config_t SPI_group = {	SPI_EN , SPI_SLAVE	,SPI_MSB_FIRST,SPI_LEADING_EDGE_RISING,SPI_LEADING_EDGE_SAMPLING,SPI_F_4,SPI_INT_DISABLE};

void SPI_Init(void)
{
    173c:	df 93       	push	r29
    173e:	cf 93       	push	r28
    1740:	cd b7       	in	r28, 0x3d	; 61
    1742:	de b7       	in	r29, 0x3e	; 62
    1744:	2e 97       	sbiw	r28, 0x0e	; 14
    1746:	0f b6       	in	r0, 0x3f	; 63
    1748:	f8 94       	cli
    174a:	de bf       	out	0x3e, r29	; 62
    174c:	0f be       	out	0x3f, r0	; 63
    174e:	cd bf       	out	0x3d, r28	; 61
	u8	SPCR_temp=0;
    1750:	1a 82       	std	Y+2, r1	; 0x02
	u8  SPSR_temp=0;
    1752:	19 82       	std	Y+1, r1	; 0x01
	switch (SPI_group.SPI_Enable)
    1754:	80 91 cd 03 	lds	r24, 0x03CD
    1758:	28 2f       	mov	r18, r24
    175a:	30 e0       	ldi	r19, 0x00	; 0
    175c:	3e 87       	std	Y+14, r19	; 0x0e
    175e:	2d 87       	std	Y+13, r18	; 0x0d
    1760:	8d 85       	ldd	r24, Y+13	; 0x0d
    1762:	9e 85       	ldd	r25, Y+14	; 0x0e
    1764:	00 97       	sbiw	r24, 0x00	; 0
    1766:	49 f0       	breq	.+18     	; 0x177a <SPI_Init+0x3e>
    1768:	2d 85       	ldd	r18, Y+13	; 0x0d
    176a:	3e 85       	ldd	r19, Y+14	; 0x0e
    176c:	21 30       	cpi	r18, 0x01	; 1
    176e:	31 05       	cpc	r19, r1
    1770:	39 f4       	brne	.+14     	; 0x1780 <SPI_Init+0x44>
	{
		case SPI_EN:
		{
			SET_BIT(SPCR_temp,SPE);
    1772:	8a 81       	ldd	r24, Y+2	; 0x02
    1774:	80 64       	ori	r24, 0x40	; 64
    1776:	8a 83       	std	Y+2, r24	; 0x02
    1778:	03 c0       	rjmp	.+6      	; 0x1780 <SPI_Init+0x44>
			break;
		}
		case SPI_DISABLE:
		{
			CLR_BIT(SPCR_temp,SPE);
    177a:	8a 81       	ldd	r24, Y+2	; 0x02
    177c:	8f 7b       	andi	r24, 0xBF	; 191
    177e:	8a 83       	std	Y+2, r24	; 0x02
			//#warning "unexpected input in UART Enable type"
			break;
		}
	}
	//********************************************************
	switch (SPI_group.SPI_M_S)
    1780:	80 91 ce 03 	lds	r24, 0x03CE
    1784:	28 2f       	mov	r18, r24
    1786:	30 e0       	ldi	r19, 0x00	; 0
    1788:	3c 87       	std	Y+12, r19	; 0x0c
    178a:	2b 87       	std	Y+11, r18	; 0x0b
    178c:	8b 85       	ldd	r24, Y+11	; 0x0b
    178e:	9c 85       	ldd	r25, Y+12	; 0x0c
    1790:	00 97       	sbiw	r24, 0x00	; 0
    1792:	49 f0       	breq	.+18     	; 0x17a6 <SPI_Init+0x6a>
    1794:	2b 85       	ldd	r18, Y+11	; 0x0b
    1796:	3c 85       	ldd	r19, Y+12	; 0x0c
    1798:	21 30       	cpi	r18, 0x01	; 1
    179a:	31 05       	cpc	r19, r1
    179c:	39 f4       	brne	.+14     	; 0x17ac <SPI_Init+0x70>
	{
		case SPI_MASTER :
		{
			SET_BIT(SPCR_temp,MSTR);
    179e:	8a 81       	ldd	r24, Y+2	; 0x02
    17a0:	80 61       	ori	r24, 0x10	; 16
    17a2:	8a 83       	std	Y+2, r24	; 0x02
    17a4:	03 c0       	rjmp	.+6      	; 0x17ac <SPI_Init+0x70>
			break;
		}
		case SPI_SLAVE :
		{
			CLR_BIT(SPCR_temp,MSTR);
    17a6:	8a 81       	ldd	r24, Y+2	; 0x02
    17a8:	8f 7e       	andi	r24, 0xEF	; 239
    17aa:	8a 83       	std	Y+2, r24	; 0x02
			//#warning "unexpected input in UART Enable type"
			break;
		}
	}
	//********************************************************
	switch (SPI_group.SPI_Data_Order)
    17ac:	80 91 cf 03 	lds	r24, 0x03CF
    17b0:	28 2f       	mov	r18, r24
    17b2:	30 e0       	ldi	r19, 0x00	; 0
    17b4:	3a 87       	std	Y+10, r19	; 0x0a
    17b6:	29 87       	std	Y+9, r18	; 0x09
    17b8:	89 85       	ldd	r24, Y+9	; 0x09
    17ba:	9a 85       	ldd	r25, Y+10	; 0x0a
    17bc:	00 97       	sbiw	r24, 0x00	; 0
    17be:	49 f0       	breq	.+18     	; 0x17d2 <SPI_Init+0x96>
    17c0:	29 85       	ldd	r18, Y+9	; 0x09
    17c2:	3a 85       	ldd	r19, Y+10	; 0x0a
    17c4:	21 30       	cpi	r18, 0x01	; 1
    17c6:	31 05       	cpc	r19, r1
    17c8:	39 f4       	brne	.+14     	; 0x17d8 <SPI_Init+0x9c>
	{
		case SPI_LSB_FIRST  :
		{
			SET_BIT(SPCR_temp,DORD);
    17ca:	8a 81       	ldd	r24, Y+2	; 0x02
    17cc:	80 62       	ori	r24, 0x20	; 32
    17ce:	8a 83       	std	Y+2, r24	; 0x02
    17d0:	03 c0       	rjmp	.+6      	; 0x17d8 <SPI_Init+0x9c>
			break;
		}
		case  SPI_MSB_FIRST :
		{
			CLR_BIT(SPCR_temp,DORD);
    17d2:	8a 81       	ldd	r24, Y+2	; 0x02
    17d4:	8f 7d       	andi	r24, 0xDF	; 223
    17d6:	8a 83       	std	Y+2, r24	; 0x02
			break;
		}
	}
	//********************************************************

	switch (SPI_group.SPI_Clk_Polarity)
    17d8:	80 91 d0 03 	lds	r24, 0x03D0
    17dc:	28 2f       	mov	r18, r24
    17de:	30 e0       	ldi	r19, 0x00	; 0
    17e0:	38 87       	std	Y+8, r19	; 0x08
    17e2:	2f 83       	std	Y+7, r18	; 0x07
    17e4:	8f 81       	ldd	r24, Y+7	; 0x07
    17e6:	98 85       	ldd	r25, Y+8	; 0x08
    17e8:	00 97       	sbiw	r24, 0x00	; 0
    17ea:	31 f0       	breq	.+12     	; 0x17f8 <SPI_Init+0xbc>
    17ec:	2f 81       	ldd	r18, Y+7	; 0x07
    17ee:	38 85       	ldd	r19, Y+8	; 0x08
    17f0:	21 30       	cpi	r18, 0x01	; 1
    17f2:	31 05       	cpc	r19, r1
    17f4:	29 f0       	breq	.+10     	; 0x1800 <SPI_Init+0xc4>
    17f6:	07 c0       	rjmp	.+14     	; 0x1806 <SPI_Init+0xca>
	{
		case SPI_LEADING_EDGE_RISING  :
		{
			CLR_BIT(SPCR_temp,CPOL);
    17f8:	8a 81       	ldd	r24, Y+2	; 0x02
    17fa:	87 7f       	andi	r24, 0xF7	; 247
    17fc:	8a 83       	std	Y+2, r24	; 0x02
    17fe:	03 c0       	rjmp	.+6      	; 0x1806 <SPI_Init+0xca>
			break;
		}
		case  SPI_LEADING_EDGE_FALLING :
		{
			SET_BIT(SPCR_temp,CPOL);
    1800:	8a 81       	ldd	r24, Y+2	; 0x02
    1802:	88 60       	ori	r24, 0x08	; 8
    1804:	8a 83       	std	Y+2, r24	; 0x02
			//#warning "unexpected input in UART Enable type"
			break;
		}
	}
	//*******************************************************
	switch (SPI_group.SPI_Clk_Phase)
    1806:	80 91 d1 03 	lds	r24, 0x03D1
    180a:	28 2f       	mov	r18, r24
    180c:	30 e0       	ldi	r19, 0x00	; 0
    180e:	3e 83       	std	Y+6, r19	; 0x06
    1810:	2d 83       	std	Y+5, r18	; 0x05
    1812:	8d 81       	ldd	r24, Y+5	; 0x05
    1814:	9e 81       	ldd	r25, Y+6	; 0x06
    1816:	00 97       	sbiw	r24, 0x00	; 0
    1818:	31 f0       	breq	.+12     	; 0x1826 <SPI_Init+0xea>
    181a:	2d 81       	ldd	r18, Y+5	; 0x05
    181c:	3e 81       	ldd	r19, Y+6	; 0x06
    181e:	21 30       	cpi	r18, 0x01	; 1
    1820:	31 05       	cpc	r19, r1
    1822:	29 f0       	breq	.+10     	; 0x182e <SPI_Init+0xf2>
    1824:	07 c0       	rjmp	.+14     	; 0x1834 <SPI_Init+0xf8>
	{
		case SPI_LEADING_EDGE_SAMPLING  :
		{
			CLR_BIT(SPCR_temp,CPHA);
    1826:	8a 81       	ldd	r24, Y+2	; 0x02
    1828:	8b 7f       	andi	r24, 0xFB	; 251
    182a:	8a 83       	std	Y+2, r24	; 0x02
    182c:	03 c0       	rjmp	.+6      	; 0x1834 <SPI_Init+0xf8>
			break;
		}
		case  SPI_LEADING_EDGE_SETUP :
		{
			SET_BIT(SPCR_temp,CPHA);
    182e:	8a 81       	ldd	r24, Y+2	; 0x02
    1830:	84 60       	ori	r24, 0x04	; 4
    1832:	8a 83       	std	Y+2, r24	; 0x02
			break;
		}
	}
	//********************************************************

	switch (SPI_group.SPI_Clk_Rate)
    1834:	80 91 d2 03 	lds	r24, 0x03D2
    1838:	28 2f       	mov	r18, r24
    183a:	30 e0       	ldi	r19, 0x00	; 0
    183c:	3c 83       	std	Y+4, r19	; 0x04
    183e:	2b 83       	std	Y+3, r18	; 0x03
    1840:	8b 81       	ldd	r24, Y+3	; 0x03
    1842:	9c 81       	ldd	r25, Y+4	; 0x04
    1844:	83 30       	cpi	r24, 0x03	; 3
    1846:	91 05       	cpc	r25, r1
    1848:	09 f4       	brne	.+2      	; 0x184c <SPI_Init+0x110>
    184a:	43 c0       	rjmp	.+134    	; 0x18d2 <SPI_Init+0x196>
    184c:	2b 81       	ldd	r18, Y+3	; 0x03
    184e:	3c 81       	ldd	r19, Y+4	; 0x04
    1850:	24 30       	cpi	r18, 0x04	; 4
    1852:	31 05       	cpc	r19, r1
    1854:	7c f4       	brge	.+30     	; 0x1874 <SPI_Init+0x138>
    1856:	8b 81       	ldd	r24, Y+3	; 0x03
    1858:	9c 81       	ldd	r25, Y+4	; 0x04
    185a:	81 30       	cpi	r24, 0x01	; 1
    185c:	91 05       	cpc	r25, r1
    185e:	29 f1       	breq	.+74     	; 0x18aa <SPI_Init+0x16e>
    1860:	2b 81       	ldd	r18, Y+3	; 0x03
    1862:	3c 81       	ldd	r19, Y+4	; 0x04
    1864:	22 30       	cpi	r18, 0x02	; 2
    1866:	31 05       	cpc	r19, r1
    1868:	54 f5       	brge	.+84     	; 0x18be <SPI_Init+0x182>
    186a:	8b 81       	ldd	r24, Y+3	; 0x03
    186c:	9c 81       	ldd	r25, Y+4	; 0x04
    186e:	00 97       	sbiw	r24, 0x00	; 0
    1870:	91 f0       	breq	.+36     	; 0x1896 <SPI_Init+0x15a>
    1872:	56 c0       	rjmp	.+172    	; 0x1920 <SPI_Init+0x1e4>
    1874:	2b 81       	ldd	r18, Y+3	; 0x03
    1876:	3c 81       	ldd	r19, Y+4	; 0x04
    1878:	25 30       	cpi	r18, 0x05	; 5
    187a:	31 05       	cpc	r19, r1
    187c:	09 f4       	brne	.+2      	; 0x1880 <SPI_Init+0x144>
    187e:	3d c0       	rjmp	.+122    	; 0x18fa <SPI_Init+0x1be>
    1880:	8b 81       	ldd	r24, Y+3	; 0x03
    1882:	9c 81       	ldd	r25, Y+4	; 0x04
    1884:	85 30       	cpi	r24, 0x05	; 5
    1886:	91 05       	cpc	r25, r1
    1888:	74 f1       	brlt	.+92     	; 0x18e6 <SPI_Init+0x1aa>
    188a:	2b 81       	ldd	r18, Y+3	; 0x03
    188c:	3c 81       	ldd	r19, Y+4	; 0x04
    188e:	26 30       	cpi	r18, 0x06	; 6
    1890:	31 05       	cpc	r19, r1
    1892:	e9 f1       	breq	.+122    	; 0x190e <SPI_Init+0x1d2>
    1894:	45 c0       	rjmp	.+138    	; 0x1920 <SPI_Init+0x1e4>
	{
		case SPI_F_2 :
		{
			CLR_BIT(SPCR_temp,SPR0);
    1896:	8a 81       	ldd	r24, Y+2	; 0x02
    1898:	8e 7f       	andi	r24, 0xFE	; 254
    189a:	8a 83       	std	Y+2, r24	; 0x02
			CLR_BIT(SPCR_temp,SPR1);
    189c:	8a 81       	ldd	r24, Y+2	; 0x02
    189e:	8d 7f       	andi	r24, 0xFD	; 253
    18a0:	8a 83       	std	Y+2, r24	; 0x02
			SET_BIT(SPSR_temp,SPI2X);
    18a2:	89 81       	ldd	r24, Y+1	; 0x01
    18a4:	81 60       	ori	r24, 0x01	; 1
    18a6:	89 83       	std	Y+1, r24	; 0x01
    18a8:	3b c0       	rjmp	.+118    	; 0x1920 <SPI_Init+0x1e4>
			break;
		}
		case SPI_F_4 :
		{
			CLR_BIT(SPCR_temp,SPR0);
    18aa:	8a 81       	ldd	r24, Y+2	; 0x02
    18ac:	8e 7f       	andi	r24, 0xFE	; 254
    18ae:	8a 83       	std	Y+2, r24	; 0x02
			CLR_BIT(SPCR_temp,SPR1);
    18b0:	8a 81       	ldd	r24, Y+2	; 0x02
    18b2:	8d 7f       	andi	r24, 0xFD	; 253
    18b4:	8a 83       	std	Y+2, r24	; 0x02
			CLR_BIT(SPSR_temp,SPI2X);
    18b6:	89 81       	ldd	r24, Y+1	; 0x01
    18b8:	8e 7f       	andi	r24, 0xFE	; 254
    18ba:	89 83       	std	Y+1, r24	; 0x01
    18bc:	31 c0       	rjmp	.+98     	; 0x1920 <SPI_Init+0x1e4>
			break;
		}
		case SPI_F_8 :
		{
			SET_BIT(SPCR_temp,SPR0);
    18be:	8a 81       	ldd	r24, Y+2	; 0x02
    18c0:	81 60       	ori	r24, 0x01	; 1
    18c2:	8a 83       	std	Y+2, r24	; 0x02
			CLR_BIT(SPCR_temp,SPR1);
    18c4:	8a 81       	ldd	r24, Y+2	; 0x02
    18c6:	8d 7f       	andi	r24, 0xFD	; 253
    18c8:	8a 83       	std	Y+2, r24	; 0x02
			SET_BIT(SPSR_temp,SPI2X);
    18ca:	89 81       	ldd	r24, Y+1	; 0x01
    18cc:	81 60       	ori	r24, 0x01	; 1
    18ce:	89 83       	std	Y+1, r24	; 0x01
    18d0:	27 c0       	rjmp	.+78     	; 0x1920 <SPI_Init+0x1e4>
			break;
		}
		case SPI_F_16 :
		{
			SET_BIT(SPCR_temp,SPR0);
    18d2:	8a 81       	ldd	r24, Y+2	; 0x02
    18d4:	81 60       	ori	r24, 0x01	; 1
    18d6:	8a 83       	std	Y+2, r24	; 0x02
			CLR_BIT(SPCR_temp,SPR1);
    18d8:	8a 81       	ldd	r24, Y+2	; 0x02
    18da:	8d 7f       	andi	r24, 0xFD	; 253
    18dc:	8a 83       	std	Y+2, r24	; 0x02
			CLR_BIT(SPSR_temp,SPI2X);
    18de:	89 81       	ldd	r24, Y+1	; 0x01
    18e0:	8e 7f       	andi	r24, 0xFE	; 254
    18e2:	89 83       	std	Y+1, r24	; 0x01
    18e4:	1d c0       	rjmp	.+58     	; 0x1920 <SPI_Init+0x1e4>
			break;
		}
		case SPI_F_32 :
		{
			CLR_BIT(SPCR_temp,SPR0);
    18e6:	8a 81       	ldd	r24, Y+2	; 0x02
    18e8:	8e 7f       	andi	r24, 0xFE	; 254
    18ea:	8a 83       	std	Y+2, r24	; 0x02
			SET_BIT(SPCR_temp,SPR1);
    18ec:	8a 81       	ldd	r24, Y+2	; 0x02
    18ee:	82 60       	ori	r24, 0x02	; 2
    18f0:	8a 83       	std	Y+2, r24	; 0x02
			SET_BIT(SPSR_temp,SPI2X);
    18f2:	89 81       	ldd	r24, Y+1	; 0x01
    18f4:	81 60       	ori	r24, 0x01	; 1
    18f6:	89 83       	std	Y+1, r24	; 0x01
    18f8:	13 c0       	rjmp	.+38     	; 0x1920 <SPI_Init+0x1e4>
			break;
		}
		case SPI_F_64 :
		{
			CLR_BIT(SPCR_temp,SPR0);
    18fa:	8a 81       	ldd	r24, Y+2	; 0x02
    18fc:	8e 7f       	andi	r24, 0xFE	; 254
    18fe:	8a 83       	std	Y+2, r24	; 0x02
			SET_BIT(SPCR_temp,SPR1);
    1900:	8a 81       	ldd	r24, Y+2	; 0x02
    1902:	82 60       	ori	r24, 0x02	; 2
    1904:	8a 83       	std	Y+2, r24	; 0x02
			CLR_BIT(SPSR_temp,SPI2X);
    1906:	89 81       	ldd	r24, Y+1	; 0x01
    1908:	8e 7f       	andi	r24, 0xFE	; 254
    190a:	89 83       	std	Y+1, r24	; 0x01
    190c:	09 c0       	rjmp	.+18     	; 0x1920 <SPI_Init+0x1e4>
			break;
		}
		case SPI_F_128 :
		{
			SET_BIT(SPCR_temp,SPR0);
    190e:	8a 81       	ldd	r24, Y+2	; 0x02
    1910:	81 60       	ori	r24, 0x01	; 1
    1912:	8a 83       	std	Y+2, r24	; 0x02
			SET_BIT(SPCR_temp,SPR1);
    1914:	8a 81       	ldd	r24, Y+2	; 0x02
    1916:	82 60       	ori	r24, 0x02	; 2
    1918:	8a 83       	std	Y+2, r24	; 0x02
			CLR_BIT(SPSR_temp,SPI2X);
    191a:	89 81       	ldd	r24, Y+1	; 0x01
    191c:	8e 7f       	andi	r24, 0xFE	; 254
    191e:	89 83       	std	Y+1, r24	; 0x01
			break;
		}
	}
	//********************************************************

	SPCR=SPCR_temp;
    1920:	ed e2       	ldi	r30, 0x2D	; 45
    1922:	f0 e0       	ldi	r31, 0x00	; 0
    1924:	8a 81       	ldd	r24, Y+2	; 0x02
    1926:	80 83       	st	Z, r24
	SPSR=SPSR_temp;
    1928:	ee e2       	ldi	r30, 0x2E	; 46
    192a:	f0 e0       	ldi	r31, 0x00	; 0
    192c:	89 81       	ldd	r24, Y+1	; 0x01
    192e:	80 83       	st	Z, r24
}
    1930:	2e 96       	adiw	r28, 0x0e	; 14
    1932:	0f b6       	in	r0, 0x3f	; 63
    1934:	f8 94       	cli
    1936:	de bf       	out	0x3e, r29	; 62
    1938:	0f be       	out	0x3f, r0	; 63
    193a:	cd bf       	out	0x3d, r28	; 61
    193c:	cf 91       	pop	r28
    193e:	df 91       	pop	r29
    1940:	08 95       	ret

00001942 <SPI_TXRX>:




u8 SPI_TXRX (u8 Copy_tx_data)
{
    1942:	df 93       	push	r29
    1944:	cf 93       	push	r28
    1946:	0f 92       	push	r0
    1948:	cd b7       	in	r28, 0x3d	; 61
    194a:	de b7       	in	r29, 0x3e	; 62
    194c:	89 83       	std	Y+1, r24	; 0x01

	//copy data to data register
	SPDR = Copy_tx_data;
    194e:	ef e2       	ldi	r30, 0x2F	; 47
    1950:	f0 e0       	ldi	r31, 0x00	; 0
    1952:	89 81       	ldd	r24, Y+1	; 0x01
    1954:	80 83       	st	Z, r24
	//wait transfer to complete
	while(  GET_BIT(SPSR,SPIF) ==0 );
    1956:	ee e2       	ldi	r30, 0x2E	; 46
    1958:	f0 e0       	ldi	r31, 0x00	; 0
    195a:	80 81       	ld	r24, Z
    195c:	88 23       	and	r24, r24
    195e:	dc f7       	brge	.-10     	; 0x1956 <SPI_TXRX+0x14>
	//save received data

     return SPDR;
    1960:	ef e2       	ldi	r30, 0x2F	; 47
    1962:	f0 e0       	ldi	r31, 0x00	; 0
    1964:	80 81       	ld	r24, Z

}
    1966:	0f 90       	pop	r0
    1968:	cf 91       	pop	r28
    196a:	df 91       	pop	r29
    196c:	08 95       	ret

0000196e <SPI_TX_String>:


void SPI_TX_String(u8 * Copy_p_tx_data)
{
    196e:	df 93       	push	r29
    1970:	cf 93       	push	r28
    1972:	00 d0       	rcall	.+0      	; 0x1974 <SPI_TX_String+0x6>
    1974:	0f 92       	push	r0
    1976:	cd b7       	in	r28, 0x3d	; 61
    1978:	de b7       	in	r29, 0x3e	; 62
    197a:	9b 83       	std	Y+3, r25	; 0x03
    197c:	8a 83       	std	Y+2, r24	; 0x02
	u8 local_index=0;
    197e:	19 82       	std	Y+1, r1	; 0x01
    1980:	0b c0       	rjmp	.+22     	; 0x1998 <SPI_TX_String+0x2a>
	while(Copy_p_tx_data != '\0')
	{
		SPI_TXRX(*(Copy_p_tx_data +local_index));
    1982:	89 81       	ldd	r24, Y+1	; 0x01
    1984:	28 2f       	mov	r18, r24
    1986:	30 e0       	ldi	r19, 0x00	; 0
    1988:	8a 81       	ldd	r24, Y+2	; 0x02
    198a:	9b 81       	ldd	r25, Y+3	; 0x03
    198c:	fc 01       	movw	r30, r24
    198e:	e2 0f       	add	r30, r18
    1990:	f3 1f       	adc	r31, r19
    1992:	80 81       	ld	r24, Z
    1994:	0e 94 a1 0c 	call	0x1942	; 0x1942 <SPI_TXRX>


void SPI_TX_String(u8 * Copy_p_tx_data)
{
	u8 local_index=0;
	while(Copy_p_tx_data != '\0')
    1998:	8a 81       	ldd	r24, Y+2	; 0x02
    199a:	9b 81       	ldd	r25, Y+3	; 0x03
    199c:	00 97       	sbiw	r24, 0x00	; 0
    199e:	89 f7       	brne	.-30     	; 0x1982 <SPI_TX_String+0x14>
	{
		SPI_TXRX(*(Copy_p_tx_data +local_index));
	}
}
    19a0:	0f 90       	pop	r0
    19a2:	0f 90       	pop	r0
    19a4:	0f 90       	pop	r0
    19a6:	cf 91       	pop	r28
    19a8:	df 91       	pop	r29
    19aa:	08 95       	ret

000019ac <SPI_TX_Buffer>:

void SPI_TX_Buffer(u8 * Copy_p_tx_data , u8 size)
{
    19ac:	df 93       	push	r29
    19ae:	cf 93       	push	r28
    19b0:	00 d0       	rcall	.+0      	; 0x19b2 <SPI_TX_Buffer+0x6>
    19b2:	00 d0       	rcall	.+0      	; 0x19b4 <SPI_TX_Buffer+0x8>
    19b4:	cd b7       	in	r28, 0x3d	; 61
    19b6:	de b7       	in	r29, 0x3e	; 62
    19b8:	9b 83       	std	Y+3, r25	; 0x03
    19ba:	8a 83       	std	Y+2, r24	; 0x02
    19bc:	6c 83       	std	Y+4, r22	; 0x04
	u8 local_index=0;
    19be:	19 82       	std	Y+1, r1	; 0x01
	for(local_index=0;local_index< size; local_index++)
    19c0:	19 82       	std	Y+1, r1	; 0x01
    19c2:	0e c0       	rjmp	.+28     	; 0x19e0 <SPI_TX_Buffer+0x34>
	{
		SPI_TXRX(*(Copy_p_tx_data +local_index));
    19c4:	89 81       	ldd	r24, Y+1	; 0x01
    19c6:	28 2f       	mov	r18, r24
    19c8:	30 e0       	ldi	r19, 0x00	; 0
    19ca:	8a 81       	ldd	r24, Y+2	; 0x02
    19cc:	9b 81       	ldd	r25, Y+3	; 0x03
    19ce:	fc 01       	movw	r30, r24
    19d0:	e2 0f       	add	r30, r18
    19d2:	f3 1f       	adc	r31, r19
    19d4:	80 81       	ld	r24, Z
    19d6:	0e 94 a1 0c 	call	0x1942	; 0x1942 <SPI_TXRX>
}

void SPI_TX_Buffer(u8 * Copy_p_tx_data , u8 size)
{
	u8 local_index=0;
	for(local_index=0;local_index< size; local_index++)
    19da:	89 81       	ldd	r24, Y+1	; 0x01
    19dc:	8f 5f       	subi	r24, 0xFF	; 255
    19de:	89 83       	std	Y+1, r24	; 0x01
    19e0:	99 81       	ldd	r25, Y+1	; 0x01
    19e2:	8c 81       	ldd	r24, Y+4	; 0x04
    19e4:	98 17       	cp	r25, r24
    19e6:	70 f3       	brcs	.-36     	; 0x19c4 <SPI_TX_Buffer+0x18>
	{
		SPI_TXRX(*(Copy_p_tx_data +local_index));
	}
}
    19e8:	0f 90       	pop	r0
    19ea:	0f 90       	pop	r0
    19ec:	0f 90       	pop	r0
    19ee:	0f 90       	pop	r0
    19f0:	cf 91       	pop	r28
    19f2:	df 91       	pop	r29
    19f4:	08 95       	ret

000019f6 <TMR0_Init>:
};



void TMR0_Init(void)
{
    19f6:	df 93       	push	r29
    19f8:	cf 93       	push	r28
    19fa:	cd b7       	in	r28, 0x3d	; 61
    19fc:	de b7       	in	r29, 0x3e	; 62
    19fe:	29 97       	sbiw	r28, 0x09	; 9
    1a00:	0f b6       	in	r0, 0x3f	; 63
    1a02:	f8 94       	cli
    1a04:	de bf       	out	0x3e, r29	; 62
    1a06:	0f be       	out	0x3f, r0	; 63
    1a08:	cd bf       	out	0x3d, r28	; 61
	u8 TCCR0_temp =TCCR0;
    1a0a:	e3 e5       	ldi	r30, 0x53	; 83
    1a0c:	f0 e0       	ldi	r31, 0x00	; 0
    1a0e:	80 81       	ld	r24, Z
    1a10:	89 83       	std	Y+1, r24	; 0x01
	switch (TMR_groups[0].Timer_mode) {
    1a12:	80 91 d5 03 	lds	r24, 0x03D5
    1a16:	28 2f       	mov	r18, r24
    1a18:	30 e0       	ldi	r19, 0x00	; 0
    1a1a:	39 87       	std	Y+9, r19	; 0x09
    1a1c:	28 87       	std	Y+8, r18	; 0x08
    1a1e:	88 85       	ldd	r24, Y+8	; 0x08
    1a20:	99 85       	ldd	r25, Y+9	; 0x09
    1a22:	81 30       	cpi	r24, 0x01	; 1
    1a24:	91 05       	cpc	r25, r1
    1a26:	e1 f0       	breq	.+56     	; 0x1a60 <TMR0_Init+0x6a>
    1a28:	28 85       	ldd	r18, Y+8	; 0x08
    1a2a:	39 85       	ldd	r19, Y+9	; 0x09
    1a2c:	22 30       	cpi	r18, 0x02	; 2
    1a2e:	31 05       	cpc	r19, r1
    1a30:	2c f4       	brge	.+10     	; 0x1a3c <TMR0_Init+0x46>
    1a32:	88 85       	ldd	r24, Y+8	; 0x08
    1a34:	99 85       	ldd	r25, Y+9	; 0x09
    1a36:	00 97       	sbiw	r24, 0x00	; 0
    1a38:	61 f0       	breq	.+24     	; 0x1a52 <TMR0_Init+0x5c>
    1a3a:	26 c0       	rjmp	.+76     	; 0x1a88 <TMR0_Init+0x92>
    1a3c:	28 85       	ldd	r18, Y+8	; 0x08
    1a3e:	39 85       	ldd	r19, Y+9	; 0x09
    1a40:	22 30       	cpi	r18, 0x02	; 2
    1a42:	31 05       	cpc	r19, r1
    1a44:	a1 f0       	breq	.+40     	; 0x1a6e <TMR0_Init+0x78>
    1a46:	88 85       	ldd	r24, Y+8	; 0x08
    1a48:	99 85       	ldd	r25, Y+9	; 0x09
    1a4a:	83 30       	cpi	r24, 0x03	; 3
    1a4c:	91 05       	cpc	r25, r1
    1a4e:	b1 f0       	breq	.+44     	; 0x1a7c <TMR0_Init+0x86>
    1a50:	1b c0       	rjmp	.+54     	; 0x1a88 <TMR0_Init+0x92>
		case NORMAL_MODE:
		{
			CLR_BIT(TCCR0_temp,WGM00);
    1a52:	89 81       	ldd	r24, Y+1	; 0x01
    1a54:	8f 7b       	andi	r24, 0xBF	; 191
    1a56:	89 83       	std	Y+1, r24	; 0x01
			CLR_BIT(TCCR0_temp,WGM01);
    1a58:	89 81       	ldd	r24, Y+1	; 0x01
    1a5a:	87 7f       	andi	r24, 0xF7	; 247
    1a5c:	89 83       	std	Y+1, r24	; 0x01
    1a5e:	14 c0       	rjmp	.+40     	; 0x1a88 <TMR0_Init+0x92>
			break;

		}
		case PHASE_PWM_MODE:
		{
			SET_BIT(TCCR0_temp,WGM00);
    1a60:	89 81       	ldd	r24, Y+1	; 0x01
    1a62:	80 64       	ori	r24, 0x40	; 64
    1a64:	89 83       	std	Y+1, r24	; 0x01
			CLR_BIT(TCCR0_temp,WGM01);
    1a66:	89 81       	ldd	r24, Y+1	; 0x01
    1a68:	87 7f       	andi	r24, 0xF7	; 247
    1a6a:	89 83       	std	Y+1, r24	; 0x01
    1a6c:	0d c0       	rjmp	.+26     	; 0x1a88 <TMR0_Init+0x92>
			break;
		}
		case CTC_MODE:
		{
			CLR_BIT(TCCR0_temp,WGM00);
    1a6e:	89 81       	ldd	r24, Y+1	; 0x01
    1a70:	8f 7b       	andi	r24, 0xBF	; 191
    1a72:	89 83       	std	Y+1, r24	; 0x01
			SET_BIT(TCCR0_temp,WGM01);
    1a74:	89 81       	ldd	r24, Y+1	; 0x01
    1a76:	88 60       	ori	r24, 0x08	; 8
    1a78:	89 83       	std	Y+1, r24	; 0x01
    1a7a:	06 c0       	rjmp	.+12     	; 0x1a88 <TMR0_Init+0x92>

			break;
		}
		case FAST_PWM_MODE:
		{
			SET_BIT(TCCR0_temp,WGM00);
    1a7c:	89 81       	ldd	r24, Y+1	; 0x01
    1a7e:	80 64       	ori	r24, 0x40	; 64
    1a80:	89 83       	std	Y+1, r24	; 0x01
			SET_BIT(TCCR0_temp,WGM01);
    1a82:	89 81       	ldd	r24, Y+1	; 0x01
    1a84:	88 60       	ori	r24, 0x08	; 8
    1a86:	89 83       	std	Y+1, r24	; 0x01
		}
		default:
			break;
	}

	if(TMR_groups[0].Timer_mode == NORMAL_MODE || TMR_groups[0].Timer_mode == CTC_MODE)
    1a88:	80 91 d5 03 	lds	r24, 0x03D5
    1a8c:	88 23       	and	r24, r24
    1a8e:	21 f0       	breq	.+8      	; 0x1a98 <TMR0_Init+0xa2>
    1a90:	80 91 d5 03 	lds	r24, 0x03D5
    1a94:	82 30       	cpi	r24, 0x02	; 2
    1a96:	e1 f5       	brne	.+120    	; 0x1b10 <TMR0_Init+0x11a>
	{
		switch (TMR_groups[0].Timer_compare_pin)
    1a98:	80 91 da 03 	lds	r24, 0x03DA
    1a9c:	28 2f       	mov	r18, r24
    1a9e:	30 e0       	ldi	r19, 0x00	; 0
    1aa0:	3f 83       	std	Y+7, r19	; 0x07
    1aa2:	2e 83       	std	Y+6, r18	; 0x06
    1aa4:	8e 81       	ldd	r24, Y+6	; 0x06
    1aa6:	9f 81       	ldd	r25, Y+7	; 0x07
    1aa8:	81 30       	cpi	r24, 0x01	; 1
    1aaa:	91 05       	cpc	r25, r1
    1aac:	e1 f0       	breq	.+56     	; 0x1ae6 <TMR0_Init+0xf0>
    1aae:	2e 81       	ldd	r18, Y+6	; 0x06
    1ab0:	3f 81       	ldd	r19, Y+7	; 0x07
    1ab2:	22 30       	cpi	r18, 0x02	; 2
    1ab4:	31 05       	cpc	r19, r1
    1ab6:	2c f4       	brge	.+10     	; 0x1ac2 <TMR0_Init+0xcc>
    1ab8:	8e 81       	ldd	r24, Y+6	; 0x06
    1aba:	9f 81       	ldd	r25, Y+7	; 0x07
    1abc:	00 97       	sbiw	r24, 0x00	; 0
    1abe:	61 f0       	breq	.+24     	; 0x1ad8 <TMR0_Init+0xe2>
    1ac0:	57 c0       	rjmp	.+174    	; 0x1b70 <TMR0_Init+0x17a>
    1ac2:	2e 81       	ldd	r18, Y+6	; 0x06
    1ac4:	3f 81       	ldd	r19, Y+7	; 0x07
    1ac6:	22 30       	cpi	r18, 0x02	; 2
    1ac8:	31 05       	cpc	r19, r1
    1aca:	a1 f0       	breq	.+40     	; 0x1af4 <TMR0_Init+0xfe>
    1acc:	8e 81       	ldd	r24, Y+6	; 0x06
    1ace:	9f 81       	ldd	r25, Y+7	; 0x07
    1ad0:	83 30       	cpi	r24, 0x03	; 3
    1ad2:	91 05       	cpc	r25, r1
    1ad4:	b1 f0       	breq	.+44     	; 0x1b02 <TMR0_Init+0x10c>
    1ad6:	4c c0       	rjmp	.+152    	; 0x1b70 <TMR0_Init+0x17a>
		{
			case DISABLE_OC_PIN:
			{
				CLR_BIT(TCCR0_temp,COM00);
    1ad8:	89 81       	ldd	r24, Y+1	; 0x01
    1ada:	8f 7e       	andi	r24, 0xEF	; 239
    1adc:	89 83       	std	Y+1, r24	; 0x01
				CLR_BIT(TCCR0_temp,COM01);
    1ade:	89 81       	ldd	r24, Y+1	; 0x01
    1ae0:	8f 7d       	andi	r24, 0xDF	; 223
    1ae2:	89 83       	std	Y+1, r24	; 0x01
    1ae4:	45 c0       	rjmp	.+138    	; 0x1b70 <TMR0_Init+0x17a>
				break;
			}
			case TOGGLE_OC_PIN:
			{
				SET_BIT(TCCR0_temp,COM00);
    1ae6:	89 81       	ldd	r24, Y+1	; 0x01
    1ae8:	80 61       	ori	r24, 0x10	; 16
    1aea:	89 83       	std	Y+1, r24	; 0x01
				CLR_BIT(TCCR0_temp,COM01);
    1aec:	89 81       	ldd	r24, Y+1	; 0x01
    1aee:	8f 7d       	andi	r24, 0xDF	; 223
    1af0:	89 83       	std	Y+1, r24	; 0x01
    1af2:	3e c0       	rjmp	.+124    	; 0x1b70 <TMR0_Init+0x17a>
				break;
			}
			case CLR_OC_PIN:
			{
				CLR_BIT(TCCR0_temp,COM00);
    1af4:	89 81       	ldd	r24, Y+1	; 0x01
    1af6:	8f 7e       	andi	r24, 0xEF	; 239
    1af8:	89 83       	std	Y+1, r24	; 0x01
				SET_BIT(TCCR0_temp,COM01);
    1afa:	89 81       	ldd	r24, Y+1	; 0x01
    1afc:	80 62       	ori	r24, 0x20	; 32
    1afe:	89 83       	std	Y+1, r24	; 0x01
    1b00:	37 c0       	rjmp	.+110    	; 0x1b70 <TMR0_Init+0x17a>
				break;
			}
			case SET_OC_PIN:
			{
				SET_BIT(TCCR0_temp,COM00);
    1b02:	89 81       	ldd	r24, Y+1	; 0x01
    1b04:	80 61       	ori	r24, 0x10	; 16
    1b06:	89 83       	std	Y+1, r24	; 0x01
				SET_BIT(TCCR0_temp,COM01);
    1b08:	89 81       	ldd	r24, Y+1	; 0x01
    1b0a:	80 62       	ori	r24, 0x20	; 32
    1b0c:	89 83       	std	Y+1, r24	; 0x01
    1b0e:	30 c0       	rjmp	.+96     	; 0x1b70 <TMR0_Init+0x17a>
			}
			default:
				break;
		}
	}
	else if(TMR_groups[0].Timer_mode == PHASE_PWM_MODE || TMR_groups[0].Timer_mode == FAST_PWM_MODE)
    1b10:	80 91 d5 03 	lds	r24, 0x03D5
    1b14:	81 30       	cpi	r24, 0x01	; 1
    1b16:	21 f0       	breq	.+8      	; 0x1b20 <TMR0_Init+0x12a>
    1b18:	80 91 d5 03 	lds	r24, 0x03D5
    1b1c:	83 30       	cpi	r24, 0x03	; 3
    1b1e:	41 f5       	brne	.+80     	; 0x1b70 <TMR0_Init+0x17a>
	{
		switch (TMR_groups[0].Timer_pwm_mode)
    1b20:	80 91 db 03 	lds	r24, 0x03DB
    1b24:	28 2f       	mov	r18, r24
    1b26:	30 e0       	ldi	r19, 0x00	; 0
    1b28:	3d 83       	std	Y+5, r19	; 0x05
    1b2a:	2c 83       	std	Y+4, r18	; 0x04
    1b2c:	8c 81       	ldd	r24, Y+4	; 0x04
    1b2e:	9d 81       	ldd	r25, Y+5	; 0x05
    1b30:	82 30       	cpi	r24, 0x02	; 2
    1b32:	91 05       	cpc	r25, r1
    1b34:	81 f0       	breq	.+32     	; 0x1b56 <TMR0_Init+0x160>
    1b36:	2c 81       	ldd	r18, Y+4	; 0x04
    1b38:	3d 81       	ldd	r19, Y+5	; 0x05
    1b3a:	23 30       	cpi	r18, 0x03	; 3
    1b3c:	31 05       	cpc	r19, r1
    1b3e:	91 f0       	breq	.+36     	; 0x1b64 <TMR0_Init+0x16e>
    1b40:	8c 81       	ldd	r24, Y+4	; 0x04
    1b42:	9d 81       	ldd	r25, Y+5	; 0x05
    1b44:	00 97       	sbiw	r24, 0x00	; 0
    1b46:	a1 f4       	brne	.+40     	; 0x1b70 <TMR0_Init+0x17a>
		{
			case DISABLE_PWM_PIN_MODE:
			{
				CLR_BIT(TCCR0_temp,COM00);
    1b48:	89 81       	ldd	r24, Y+1	; 0x01
    1b4a:	8f 7e       	andi	r24, 0xEF	; 239
    1b4c:	89 83       	std	Y+1, r24	; 0x01
				CLR_BIT(TCCR0_temp,COM01);
    1b4e:	89 81       	ldd	r24, Y+1	; 0x01
    1b50:	8f 7d       	andi	r24, 0xDF	; 223
    1b52:	89 83       	std	Y+1, r24	; 0x01
    1b54:	0d c0       	rjmp	.+26     	; 0x1b70 <TMR0_Init+0x17a>
				break;
			}
			case PWM_NON_INV_MODE:
			{
				CLR_BIT(TCCR0_temp,COM00);
    1b56:	89 81       	ldd	r24, Y+1	; 0x01
    1b58:	8f 7e       	andi	r24, 0xEF	; 239
    1b5a:	89 83       	std	Y+1, r24	; 0x01
				SET_BIT(TCCR0_temp,COM01);
    1b5c:	89 81       	ldd	r24, Y+1	; 0x01
    1b5e:	80 62       	ori	r24, 0x20	; 32
    1b60:	89 83       	std	Y+1, r24	; 0x01
    1b62:	06 c0       	rjmp	.+12     	; 0x1b70 <TMR0_Init+0x17a>
				break;
			}
			case PWM_INV_MODE:
			{
				SET_BIT(TCCR0_temp,COM00);
    1b64:	89 81       	ldd	r24, Y+1	; 0x01
    1b66:	80 61       	ori	r24, 0x10	; 16
    1b68:	89 83       	std	Y+1, r24	; 0x01
				SET_BIT(TCCR0_temp,COM01);
    1b6a:	89 81       	ldd	r24, Y+1	; 0x01
    1b6c:	80 62       	ori	r24, 0x20	; 32
    1b6e:	89 83       	std	Y+1, r24	; 0x01
			default:
				break;
		}
	}

	switch (TMR_groups[0].Timer_prescaller)
    1b70:	80 91 d6 03 	lds	r24, 0x03D6
    1b74:	28 2f       	mov	r18, r24
    1b76:	30 e0       	ldi	r19, 0x00	; 0
    1b78:	3b 83       	std	Y+3, r19	; 0x03
    1b7a:	2a 83       	std	Y+2, r18	; 0x02
    1b7c:	8a 81       	ldd	r24, Y+2	; 0x02
    1b7e:	9b 81       	ldd	r25, Y+3	; 0x03
    1b80:	82 30       	cpi	r24, 0x02	; 2
    1b82:	91 05       	cpc	r25, r1
    1b84:	99 f1       	breq	.+102    	; 0x1bec <TMR0_Init+0x1f6>
    1b86:	2a 81       	ldd	r18, Y+2	; 0x02
    1b88:	3b 81       	ldd	r19, Y+3	; 0x03
    1b8a:	23 30       	cpi	r18, 0x03	; 3
    1b8c:	31 05       	cpc	r19, r1
    1b8e:	54 f4       	brge	.+20     	; 0x1ba4 <TMR0_Init+0x1ae>
    1b90:	8a 81       	ldd	r24, Y+2	; 0x02
    1b92:	9b 81       	ldd	r25, Y+3	; 0x03
    1b94:	00 97       	sbiw	r24, 0x00	; 0
    1b96:	b1 f0       	breq	.+44     	; 0x1bc4 <TMR0_Init+0x1ce>
    1b98:	2a 81       	ldd	r18, Y+2	; 0x02
    1b9a:	3b 81       	ldd	r19, Y+3	; 0x03
    1b9c:	21 30       	cpi	r18, 0x01	; 1
    1b9e:	31 05       	cpc	r19, r1
    1ba0:	d9 f0       	breq	.+54     	; 0x1bd8 <TMR0_Init+0x1e2>
    1ba2:	4b c0       	rjmp	.+150    	; 0x1c3a <TMR0_Init+0x244>
    1ba4:	8a 81       	ldd	r24, Y+2	; 0x02
    1ba6:	9b 81       	ldd	r25, Y+3	; 0x03
    1ba8:	84 30       	cpi	r24, 0x04	; 4
    1baa:	91 05       	cpc	r25, r1
    1bac:	99 f1       	breq	.+102    	; 0x1c14 <TMR0_Init+0x21e>
    1bae:	2a 81       	ldd	r18, Y+2	; 0x02
    1bb0:	3b 81       	ldd	r19, Y+3	; 0x03
    1bb2:	24 30       	cpi	r18, 0x04	; 4
    1bb4:	31 05       	cpc	r19, r1
    1bb6:	24 f1       	brlt	.+72     	; 0x1c00 <TMR0_Init+0x20a>
    1bb8:	8a 81       	ldd	r24, Y+2	; 0x02
    1bba:	9b 81       	ldd	r25, Y+3	; 0x03
    1bbc:	85 30       	cpi	r24, 0x05	; 5
    1bbe:	91 05       	cpc	r25, r1
    1bc0:	99 f1       	breq	.+102    	; 0x1c28 <TMR0_Init+0x232>
    1bc2:	3b c0       	rjmp	.+118    	; 0x1c3a <TMR0_Init+0x244>
	{
		case DISABLE_PRESCALER:
		{
			CLR_BIT(TCCR0_temp,CS00);
    1bc4:	89 81       	ldd	r24, Y+1	; 0x01
    1bc6:	8e 7f       	andi	r24, 0xFE	; 254
    1bc8:	89 83       	std	Y+1, r24	; 0x01
			CLR_BIT(TCCR0_temp,CS01);
    1bca:	89 81       	ldd	r24, Y+1	; 0x01
    1bcc:	8d 7f       	andi	r24, 0xFD	; 253
    1bce:	89 83       	std	Y+1, r24	; 0x01
			CLR_BIT(TCCR0_temp,CS02);
    1bd0:	89 81       	ldd	r24, Y+1	; 0x01
    1bd2:	8b 7f       	andi	r24, 0xFB	; 251
    1bd4:	89 83       	std	Y+1, r24	; 0x01
    1bd6:	31 c0       	rjmp	.+98     	; 0x1c3a <TMR0_Init+0x244>
			break;
		}
		case PRESCALER_1:
		{
			SET_BIT(TCCR0_temp,CS00);
    1bd8:	89 81       	ldd	r24, Y+1	; 0x01
    1bda:	81 60       	ori	r24, 0x01	; 1
    1bdc:	89 83       	std	Y+1, r24	; 0x01
			CLR_BIT(TCCR0_temp,CS01);
    1bde:	89 81       	ldd	r24, Y+1	; 0x01
    1be0:	8d 7f       	andi	r24, 0xFD	; 253
    1be2:	89 83       	std	Y+1, r24	; 0x01
			CLR_BIT(TCCR0_temp,CS02);
    1be4:	89 81       	ldd	r24, Y+1	; 0x01
    1be6:	8b 7f       	andi	r24, 0xFB	; 251
    1be8:	89 83       	std	Y+1, r24	; 0x01
    1bea:	27 c0       	rjmp	.+78     	; 0x1c3a <TMR0_Init+0x244>
			break;
		}
		case PRESCALER_8:
		{
			CLR_BIT(TCCR0_temp,CS00);
    1bec:	89 81       	ldd	r24, Y+1	; 0x01
    1bee:	8e 7f       	andi	r24, 0xFE	; 254
    1bf0:	89 83       	std	Y+1, r24	; 0x01
			SET_BIT(TCCR0_temp,CS01);
    1bf2:	89 81       	ldd	r24, Y+1	; 0x01
    1bf4:	82 60       	ori	r24, 0x02	; 2
    1bf6:	89 83       	std	Y+1, r24	; 0x01
			CLR_BIT(TCCR0_temp,CS02);
    1bf8:	89 81       	ldd	r24, Y+1	; 0x01
    1bfa:	8b 7f       	andi	r24, 0xFB	; 251
    1bfc:	89 83       	std	Y+1, r24	; 0x01
    1bfe:	1d c0       	rjmp	.+58     	; 0x1c3a <TMR0_Init+0x244>
			break;
		}
		case PRESCALER_64:
		{
			SET_BIT(TCCR0_temp,CS00);
    1c00:	89 81       	ldd	r24, Y+1	; 0x01
    1c02:	81 60       	ori	r24, 0x01	; 1
    1c04:	89 83       	std	Y+1, r24	; 0x01
			SET_BIT(TCCR0_temp,CS01);
    1c06:	89 81       	ldd	r24, Y+1	; 0x01
    1c08:	82 60       	ori	r24, 0x02	; 2
    1c0a:	89 83       	std	Y+1, r24	; 0x01
			CLR_BIT(TCCR0_temp,CS02);
    1c0c:	89 81       	ldd	r24, Y+1	; 0x01
    1c0e:	8b 7f       	andi	r24, 0xFB	; 251
    1c10:	89 83       	std	Y+1, r24	; 0x01
    1c12:	13 c0       	rjmp	.+38     	; 0x1c3a <TMR0_Init+0x244>
			break;
		}
		case PRESCALER_256:
		{
			CLR_BIT(TCCR0_temp,CS00);
    1c14:	89 81       	ldd	r24, Y+1	; 0x01
    1c16:	8e 7f       	andi	r24, 0xFE	; 254
    1c18:	89 83       	std	Y+1, r24	; 0x01
			CLR_BIT(TCCR0_temp,CS01);
    1c1a:	89 81       	ldd	r24, Y+1	; 0x01
    1c1c:	8d 7f       	andi	r24, 0xFD	; 253
    1c1e:	89 83       	std	Y+1, r24	; 0x01
			SET_BIT(TCCR0_temp,CS02);
    1c20:	89 81       	ldd	r24, Y+1	; 0x01
    1c22:	84 60       	ori	r24, 0x04	; 4
    1c24:	89 83       	std	Y+1, r24	; 0x01
    1c26:	09 c0       	rjmp	.+18     	; 0x1c3a <TMR0_Init+0x244>
			break;
		}
		case PRESCALER_1024:
		{
			SET_BIT(TCCR0_temp,CS00);
    1c28:	89 81       	ldd	r24, Y+1	; 0x01
    1c2a:	81 60       	ori	r24, 0x01	; 1
    1c2c:	89 83       	std	Y+1, r24	; 0x01
			CLR_BIT(TCCR0_temp,CS01);
    1c2e:	89 81       	ldd	r24, Y+1	; 0x01
    1c30:	8d 7f       	andi	r24, 0xFD	; 253
    1c32:	89 83       	std	Y+1, r24	; 0x01
			SET_BIT(TCCR0_temp,CS02);
    1c34:	89 81       	ldd	r24, Y+1	; 0x01
    1c36:	84 60       	ori	r24, 0x04	; 4
    1c38:	89 83       	std	Y+1, r24	; 0x01
		}
		default:
			break;
	}

	TCNT0 = TMR_groups[0].Timer_startingValue;
    1c3a:	e2 e5       	ldi	r30, 0x52	; 82
    1c3c:	f0 e0       	ldi	r31, 0x00	; 0
    1c3e:	80 91 d8 03 	lds	r24, 0x03D8
    1c42:	80 83       	st	Z, r24
	OCR0 = TMR_groups[0].Timer_compareValue;
    1c44:	ec e5       	ldi	r30, 0x5C	; 92
    1c46:	f0 e0       	ldi	r31, 0x00	; 0
    1c48:	80 91 d9 03 	lds	r24, 0x03D9
    1c4c:	80 83       	st	Z, r24
	TCCR0=TCCR0_temp;
    1c4e:	e3 e5       	ldi	r30, 0x53	; 83
    1c50:	f0 e0       	ldi	r31, 0x00	; 0
    1c52:	89 81       	ldd	r24, Y+1	; 0x01
    1c54:	80 83       	st	Z, r24

}
    1c56:	29 96       	adiw	r28, 0x09	; 9
    1c58:	0f b6       	in	r0, 0x3f	; 63
    1c5a:	f8 94       	cli
    1c5c:	de bf       	out	0x3e, r29	; 62
    1c5e:	0f be       	out	0x3f, r0	; 63
    1c60:	cd bf       	out	0x3d, r28	; 61
    1c62:	cf 91       	pop	r28
    1c64:	df 91       	pop	r29
    1c66:	08 95       	ret

00001c68 <TMR0_Disable>:

void TMR0_Disable(void)
{
    1c68:	df 93       	push	r29
    1c6a:	cf 93       	push	r28
    1c6c:	0f 92       	push	r0
    1c6e:	cd b7       	in	r28, 0x3d	; 61
    1c70:	de b7       	in	r29, 0x3e	; 62
	u8 TCCR0_temp =TCCR0;
    1c72:	e3 e5       	ldi	r30, 0x53	; 83
    1c74:	f0 e0       	ldi	r31, 0x00	; 0
    1c76:	80 81       	ld	r24, Z
    1c78:	89 83       	std	Y+1, r24	; 0x01
	CLR_BIT(TCCR0_temp,CS00);
    1c7a:	89 81       	ldd	r24, Y+1	; 0x01
    1c7c:	8e 7f       	andi	r24, 0xFE	; 254
    1c7e:	89 83       	std	Y+1, r24	; 0x01
	CLR_BIT(TCCR0_temp,CS01);
    1c80:	89 81       	ldd	r24, Y+1	; 0x01
    1c82:	8d 7f       	andi	r24, 0xFD	; 253
    1c84:	89 83       	std	Y+1, r24	; 0x01
	CLR_BIT(TCCR0_temp,CS02);
    1c86:	89 81       	ldd	r24, Y+1	; 0x01
    1c88:	8b 7f       	andi	r24, 0xFB	; 251
    1c8a:	89 83       	std	Y+1, r24	; 0x01
	CLR_BIT(TCCR0_temp,COM00);
    1c8c:	89 81       	ldd	r24, Y+1	; 0x01
    1c8e:	8f 7e       	andi	r24, 0xEF	; 239
    1c90:	89 83       	std	Y+1, r24	; 0x01
	CLR_BIT(TCCR0_temp,COM01);
    1c92:	89 81       	ldd	r24, Y+1	; 0x01
    1c94:	8f 7d       	andi	r24, 0xDF	; 223
    1c96:	89 83       	std	Y+1, r24	; 0x01
	TCCR0=TCCR0_temp;				// we use temp to keep the struct with old selection in struct without changing it
    1c98:	e3 e5       	ldi	r30, 0x53	; 83
    1c9a:	f0 e0       	ldi	r31, 0x00	; 0
    1c9c:	89 81       	ldd	r24, Y+1	; 0x01
    1c9e:	80 83       	st	Z, r24
}
    1ca0:	0f 90       	pop	r0
    1ca2:	cf 91       	pop	r28
    1ca4:	df 91       	pop	r29
    1ca6:	08 95       	ret

00001ca8 <TMR0_PWM>:

void TMR0_PWM(u8 Duty_cycle)
{
    1ca8:	df 93       	push	r29
    1caa:	cf 93       	push	r28
    1cac:	0f 92       	push	r0
    1cae:	cd b7       	in	r28, 0x3d	; 61
    1cb0:	de b7       	in	r29, 0x3e	; 62
    1cb2:	89 83       	std	Y+1, r24	; 0x01
	TMR0_Disable();
    1cb4:	0e 94 34 0e 	call	0x1c68	; 0x1c68 <TMR0_Disable>
	TMR_groups[0].Timer_compareValue=Duty_cycle;
    1cb8:	89 81       	ldd	r24, Y+1	; 0x01
    1cba:	80 93 d9 03 	sts	0x03D9, r24
	TMR0_Init();
    1cbe:	0e 94 fb 0c 	call	0x19f6	; 0x19f6 <TMR0_Init>
}
    1cc2:	0f 90       	pop	r0
    1cc4:	cf 91       	pop	r28
    1cc6:	df 91       	pop	r29
    1cc8:	08 95       	ret

00001cca <TMR2_Init>:
/**************************************************************/
/**************************************************************/


void TMR2_Init(void)
{
    1cca:	df 93       	push	r29
    1ccc:	cf 93       	push	r28
    1cce:	cd b7       	in	r28, 0x3d	; 61
    1cd0:	de b7       	in	r29, 0x3e	; 62
    1cd2:	2c 97       	sbiw	r28, 0x0c	; 12
    1cd4:	0f b6       	in	r0, 0x3f	; 63
    1cd6:	f8 94       	cli
    1cd8:	de bf       	out	0x3e, r29	; 62
    1cda:	0f be       	out	0x3f, r0	; 63
    1cdc:	cd bf       	out	0x3d, r28	; 61
	u8 TCCR2_temp =TCCR2;
    1cde:	e5 e4       	ldi	r30, 0x45	; 69
    1ce0:	f0 e0       	ldi	r31, 0x00	; 0
    1ce2:	80 81       	ld	r24, Z
    1ce4:	8a 83       	std	Y+2, r24	; 0x02
	switch (TMR_groups[1].Timer_mode) {
    1ce6:	80 91 dd 03 	lds	r24, 0x03DD
    1cea:	28 2f       	mov	r18, r24
    1cec:	30 e0       	ldi	r19, 0x00	; 0
    1cee:	3c 87       	std	Y+12, r19	; 0x0c
    1cf0:	2b 87       	std	Y+11, r18	; 0x0b
    1cf2:	8b 85       	ldd	r24, Y+11	; 0x0b
    1cf4:	9c 85       	ldd	r25, Y+12	; 0x0c
    1cf6:	81 30       	cpi	r24, 0x01	; 1
    1cf8:	91 05       	cpc	r25, r1
    1cfa:	e1 f0       	breq	.+56     	; 0x1d34 <TMR2_Init+0x6a>
    1cfc:	2b 85       	ldd	r18, Y+11	; 0x0b
    1cfe:	3c 85       	ldd	r19, Y+12	; 0x0c
    1d00:	22 30       	cpi	r18, 0x02	; 2
    1d02:	31 05       	cpc	r19, r1
    1d04:	2c f4       	brge	.+10     	; 0x1d10 <TMR2_Init+0x46>
    1d06:	8b 85       	ldd	r24, Y+11	; 0x0b
    1d08:	9c 85       	ldd	r25, Y+12	; 0x0c
    1d0a:	00 97       	sbiw	r24, 0x00	; 0
    1d0c:	61 f0       	breq	.+24     	; 0x1d26 <TMR2_Init+0x5c>
    1d0e:	26 c0       	rjmp	.+76     	; 0x1d5c <TMR2_Init+0x92>
    1d10:	2b 85       	ldd	r18, Y+11	; 0x0b
    1d12:	3c 85       	ldd	r19, Y+12	; 0x0c
    1d14:	22 30       	cpi	r18, 0x02	; 2
    1d16:	31 05       	cpc	r19, r1
    1d18:	a1 f0       	breq	.+40     	; 0x1d42 <TMR2_Init+0x78>
    1d1a:	8b 85       	ldd	r24, Y+11	; 0x0b
    1d1c:	9c 85       	ldd	r25, Y+12	; 0x0c
    1d1e:	83 30       	cpi	r24, 0x03	; 3
    1d20:	91 05       	cpc	r25, r1
    1d22:	b1 f0       	breq	.+44     	; 0x1d50 <TMR2_Init+0x86>
    1d24:	1b c0       	rjmp	.+54     	; 0x1d5c <TMR2_Init+0x92>
		case NORMAL_MODE:
		{
			CLR_BIT(TCCR2_temp,WGM20);
    1d26:	8a 81       	ldd	r24, Y+2	; 0x02
    1d28:	8f 7b       	andi	r24, 0xBF	; 191
    1d2a:	8a 83       	std	Y+2, r24	; 0x02
			CLR_BIT(TCCR2_temp,WGM21);
    1d2c:	8a 81       	ldd	r24, Y+2	; 0x02
    1d2e:	87 7f       	andi	r24, 0xF7	; 247
    1d30:	8a 83       	std	Y+2, r24	; 0x02
    1d32:	14 c0       	rjmp	.+40     	; 0x1d5c <TMR2_Init+0x92>
			break;
		}
		case PHASE_PWM_MODE:
		{
			SET_BIT(TCCR2_temp,WGM20);
    1d34:	8a 81       	ldd	r24, Y+2	; 0x02
    1d36:	80 64       	ori	r24, 0x40	; 64
    1d38:	8a 83       	std	Y+2, r24	; 0x02
			CLR_BIT(TCCR2_temp,WGM21);
    1d3a:	8a 81       	ldd	r24, Y+2	; 0x02
    1d3c:	87 7f       	andi	r24, 0xF7	; 247
    1d3e:	8a 83       	std	Y+2, r24	; 0x02
    1d40:	0d c0       	rjmp	.+26     	; 0x1d5c <TMR2_Init+0x92>
			break;
		}
		case CTC_MODE:
		{
			CLR_BIT(TCCR2_temp,WGM20);
    1d42:	8a 81       	ldd	r24, Y+2	; 0x02
    1d44:	8f 7b       	andi	r24, 0xBF	; 191
    1d46:	8a 83       	std	Y+2, r24	; 0x02
			SET_BIT(TCCR2_temp,WGM21);
    1d48:	8a 81       	ldd	r24, Y+2	; 0x02
    1d4a:	88 60       	ori	r24, 0x08	; 8
    1d4c:	8a 83       	std	Y+2, r24	; 0x02
    1d4e:	06 c0       	rjmp	.+12     	; 0x1d5c <TMR2_Init+0x92>

			break;
		}
		case FAST_PWM_MODE:
		{
			SET_BIT(TCCR2_temp,WGM20);
    1d50:	8a 81       	ldd	r24, Y+2	; 0x02
    1d52:	80 64       	ori	r24, 0x40	; 64
    1d54:	8a 83       	std	Y+2, r24	; 0x02
			SET_BIT(TCCR2_temp,WGM21);
    1d56:	8a 81       	ldd	r24, Y+2	; 0x02
    1d58:	88 60       	ori	r24, 0x08	; 8
    1d5a:	8a 83       	std	Y+2, r24	; 0x02
		}
		default:
			break;
	}

	if(TMR_groups[1].Timer_mode == NORMAL_MODE || TMR_groups[1].Timer_mode == CTC_MODE)
    1d5c:	80 91 dd 03 	lds	r24, 0x03DD
    1d60:	88 23       	and	r24, r24
    1d62:	21 f0       	breq	.+8      	; 0x1d6c <TMR2_Init+0xa2>
    1d64:	80 91 dd 03 	lds	r24, 0x03DD
    1d68:	82 30       	cpi	r24, 0x02	; 2
    1d6a:	e1 f5       	brne	.+120    	; 0x1de4 <TMR2_Init+0x11a>
	{
		switch (TMR_groups[1].Timer_compare_pin)
    1d6c:	80 91 e2 03 	lds	r24, 0x03E2
    1d70:	28 2f       	mov	r18, r24
    1d72:	30 e0       	ldi	r19, 0x00	; 0
    1d74:	3a 87       	std	Y+10, r19	; 0x0a
    1d76:	29 87       	std	Y+9, r18	; 0x09
    1d78:	89 85       	ldd	r24, Y+9	; 0x09
    1d7a:	9a 85       	ldd	r25, Y+10	; 0x0a
    1d7c:	81 30       	cpi	r24, 0x01	; 1
    1d7e:	91 05       	cpc	r25, r1
    1d80:	e1 f0       	breq	.+56     	; 0x1dba <TMR2_Init+0xf0>
    1d82:	29 85       	ldd	r18, Y+9	; 0x09
    1d84:	3a 85       	ldd	r19, Y+10	; 0x0a
    1d86:	22 30       	cpi	r18, 0x02	; 2
    1d88:	31 05       	cpc	r19, r1
    1d8a:	2c f4       	brge	.+10     	; 0x1d96 <TMR2_Init+0xcc>
    1d8c:	89 85       	ldd	r24, Y+9	; 0x09
    1d8e:	9a 85       	ldd	r25, Y+10	; 0x0a
    1d90:	00 97       	sbiw	r24, 0x00	; 0
    1d92:	61 f0       	breq	.+24     	; 0x1dac <TMR2_Init+0xe2>
    1d94:	57 c0       	rjmp	.+174    	; 0x1e44 <TMR2_Init+0x17a>
    1d96:	29 85       	ldd	r18, Y+9	; 0x09
    1d98:	3a 85       	ldd	r19, Y+10	; 0x0a
    1d9a:	22 30       	cpi	r18, 0x02	; 2
    1d9c:	31 05       	cpc	r19, r1
    1d9e:	a1 f0       	breq	.+40     	; 0x1dc8 <TMR2_Init+0xfe>
    1da0:	89 85       	ldd	r24, Y+9	; 0x09
    1da2:	9a 85       	ldd	r25, Y+10	; 0x0a
    1da4:	83 30       	cpi	r24, 0x03	; 3
    1da6:	91 05       	cpc	r25, r1
    1da8:	b1 f0       	breq	.+44     	; 0x1dd6 <TMR2_Init+0x10c>
    1daa:	4c c0       	rjmp	.+152    	; 0x1e44 <TMR2_Init+0x17a>
		{
			case DISABLE_OC_PIN:
			{
				CLR_BIT(TCCR2_temp,COM20);
    1dac:	8a 81       	ldd	r24, Y+2	; 0x02
    1dae:	8f 7e       	andi	r24, 0xEF	; 239
    1db0:	8a 83       	std	Y+2, r24	; 0x02
				CLR_BIT(TCCR2_temp,COM21);
    1db2:	8a 81       	ldd	r24, Y+2	; 0x02
    1db4:	8f 7d       	andi	r24, 0xDF	; 223
    1db6:	8a 83       	std	Y+2, r24	; 0x02
    1db8:	45 c0       	rjmp	.+138    	; 0x1e44 <TMR2_Init+0x17a>
				break;
			}
			case TOGGLE_OC_PIN:
			{
				SET_BIT(TCCR2_temp,COM20);
    1dba:	8a 81       	ldd	r24, Y+2	; 0x02
    1dbc:	80 61       	ori	r24, 0x10	; 16
    1dbe:	8a 83       	std	Y+2, r24	; 0x02
				CLR_BIT(TCCR2_temp,COM21);
    1dc0:	8a 81       	ldd	r24, Y+2	; 0x02
    1dc2:	8f 7d       	andi	r24, 0xDF	; 223
    1dc4:	8a 83       	std	Y+2, r24	; 0x02
    1dc6:	3e c0       	rjmp	.+124    	; 0x1e44 <TMR2_Init+0x17a>
				break;
			}
			case CLR_OC_PIN:
			{
				CLR_BIT(TCCR2_temp,COM20);
    1dc8:	8a 81       	ldd	r24, Y+2	; 0x02
    1dca:	8f 7e       	andi	r24, 0xEF	; 239
    1dcc:	8a 83       	std	Y+2, r24	; 0x02
				SET_BIT(TCCR2_temp,COM21);
    1dce:	8a 81       	ldd	r24, Y+2	; 0x02
    1dd0:	80 62       	ori	r24, 0x20	; 32
    1dd2:	8a 83       	std	Y+2, r24	; 0x02
    1dd4:	37 c0       	rjmp	.+110    	; 0x1e44 <TMR2_Init+0x17a>
				break;
			}
			case SET_OC_PIN:
			{
				SET_BIT(TCCR2_temp,COM20);
    1dd6:	8a 81       	ldd	r24, Y+2	; 0x02
    1dd8:	80 61       	ori	r24, 0x10	; 16
    1dda:	8a 83       	std	Y+2, r24	; 0x02
				SET_BIT(TCCR2_temp,COM21);
    1ddc:	8a 81       	ldd	r24, Y+2	; 0x02
    1dde:	80 62       	ori	r24, 0x20	; 32
    1de0:	8a 83       	std	Y+2, r24	; 0x02
    1de2:	30 c0       	rjmp	.+96     	; 0x1e44 <TMR2_Init+0x17a>
			}
			default:
				break;
		}
	}
	else if(TMR_groups[1].Timer_mode == PHASE_PWM_MODE || TMR_groups[1].Timer_mode == FAST_PWM_MODE)
    1de4:	80 91 dd 03 	lds	r24, 0x03DD
    1de8:	81 30       	cpi	r24, 0x01	; 1
    1dea:	21 f0       	breq	.+8      	; 0x1df4 <TMR2_Init+0x12a>
    1dec:	80 91 dd 03 	lds	r24, 0x03DD
    1df0:	83 30       	cpi	r24, 0x03	; 3
    1df2:	41 f5       	brne	.+80     	; 0x1e44 <TMR2_Init+0x17a>
	{
		switch (TMR_groups[1].Timer_pwm_mode)
    1df4:	80 91 e3 03 	lds	r24, 0x03E3
    1df8:	28 2f       	mov	r18, r24
    1dfa:	30 e0       	ldi	r19, 0x00	; 0
    1dfc:	38 87       	std	Y+8, r19	; 0x08
    1dfe:	2f 83       	std	Y+7, r18	; 0x07
    1e00:	8f 81       	ldd	r24, Y+7	; 0x07
    1e02:	98 85       	ldd	r25, Y+8	; 0x08
    1e04:	82 30       	cpi	r24, 0x02	; 2
    1e06:	91 05       	cpc	r25, r1
    1e08:	81 f0       	breq	.+32     	; 0x1e2a <TMR2_Init+0x160>
    1e0a:	2f 81       	ldd	r18, Y+7	; 0x07
    1e0c:	38 85       	ldd	r19, Y+8	; 0x08
    1e0e:	23 30       	cpi	r18, 0x03	; 3
    1e10:	31 05       	cpc	r19, r1
    1e12:	91 f0       	breq	.+36     	; 0x1e38 <TMR2_Init+0x16e>
    1e14:	8f 81       	ldd	r24, Y+7	; 0x07
    1e16:	98 85       	ldd	r25, Y+8	; 0x08
    1e18:	00 97       	sbiw	r24, 0x00	; 0
    1e1a:	a1 f4       	brne	.+40     	; 0x1e44 <TMR2_Init+0x17a>
		{
			case DISABLE_PWM_PIN_MODE:
			{
				CLR_BIT(TCCR2_temp,COM20);
    1e1c:	8a 81       	ldd	r24, Y+2	; 0x02
    1e1e:	8f 7e       	andi	r24, 0xEF	; 239
    1e20:	8a 83       	std	Y+2, r24	; 0x02
				CLR_BIT(TCCR2_temp,COM21);
    1e22:	8a 81       	ldd	r24, Y+2	; 0x02
    1e24:	8f 7d       	andi	r24, 0xDF	; 223
    1e26:	8a 83       	std	Y+2, r24	; 0x02
    1e28:	0d c0       	rjmp	.+26     	; 0x1e44 <TMR2_Init+0x17a>
				break;
			}
			case PWM_NON_INV_MODE:
			{
				CLR_BIT(TCCR2_temp,COM20);
    1e2a:	8a 81       	ldd	r24, Y+2	; 0x02
    1e2c:	8f 7e       	andi	r24, 0xEF	; 239
    1e2e:	8a 83       	std	Y+2, r24	; 0x02
				SET_BIT(TCCR2_temp,COM21);
    1e30:	8a 81       	ldd	r24, Y+2	; 0x02
    1e32:	80 62       	ori	r24, 0x20	; 32
    1e34:	8a 83       	std	Y+2, r24	; 0x02
    1e36:	06 c0       	rjmp	.+12     	; 0x1e44 <TMR2_Init+0x17a>
				break;
			}
			case PWM_INV_MODE:
			{
				SET_BIT(TCCR2_temp,COM20);
    1e38:	8a 81       	ldd	r24, Y+2	; 0x02
    1e3a:	80 61       	ori	r24, 0x10	; 16
    1e3c:	8a 83       	std	Y+2, r24	; 0x02
				SET_BIT(TCCR2_temp,COM21);
    1e3e:	8a 81       	ldd	r24, Y+2	; 0x02
    1e40:	80 62       	ori	r24, 0x20	; 32
    1e42:	8a 83       	std	Y+2, r24	; 0x02
			default:
				break;
		}
	}

	switch (TMR_groups[1].Timer_prescaller)
    1e44:	80 91 de 03 	lds	r24, 0x03DE
    1e48:	28 2f       	mov	r18, r24
    1e4a:	30 e0       	ldi	r19, 0x00	; 0
    1e4c:	3e 83       	std	Y+6, r19	; 0x06
    1e4e:	2d 83       	std	Y+5, r18	; 0x05
    1e50:	8d 81       	ldd	r24, Y+5	; 0x05
    1e52:	9e 81       	ldd	r25, Y+6	; 0x06
    1e54:	82 30       	cpi	r24, 0x02	; 2
    1e56:	91 05       	cpc	r25, r1
    1e58:	99 f1       	breq	.+102    	; 0x1ec0 <TMR2_Init+0x1f6>
    1e5a:	2d 81       	ldd	r18, Y+5	; 0x05
    1e5c:	3e 81       	ldd	r19, Y+6	; 0x06
    1e5e:	23 30       	cpi	r18, 0x03	; 3
    1e60:	31 05       	cpc	r19, r1
    1e62:	54 f4       	brge	.+20     	; 0x1e78 <TMR2_Init+0x1ae>
    1e64:	8d 81       	ldd	r24, Y+5	; 0x05
    1e66:	9e 81       	ldd	r25, Y+6	; 0x06
    1e68:	00 97       	sbiw	r24, 0x00	; 0
    1e6a:	b1 f0       	breq	.+44     	; 0x1e98 <TMR2_Init+0x1ce>
    1e6c:	2d 81       	ldd	r18, Y+5	; 0x05
    1e6e:	3e 81       	ldd	r19, Y+6	; 0x06
    1e70:	21 30       	cpi	r18, 0x01	; 1
    1e72:	31 05       	cpc	r19, r1
    1e74:	d9 f0       	breq	.+54     	; 0x1eac <TMR2_Init+0x1e2>
    1e76:	4b c0       	rjmp	.+150    	; 0x1f0e <TMR2_Init+0x244>
    1e78:	8d 81       	ldd	r24, Y+5	; 0x05
    1e7a:	9e 81       	ldd	r25, Y+6	; 0x06
    1e7c:	84 30       	cpi	r24, 0x04	; 4
    1e7e:	91 05       	cpc	r25, r1
    1e80:	99 f1       	breq	.+102    	; 0x1ee8 <TMR2_Init+0x21e>
    1e82:	2d 81       	ldd	r18, Y+5	; 0x05
    1e84:	3e 81       	ldd	r19, Y+6	; 0x06
    1e86:	24 30       	cpi	r18, 0x04	; 4
    1e88:	31 05       	cpc	r19, r1
    1e8a:	24 f1       	brlt	.+72     	; 0x1ed4 <TMR2_Init+0x20a>
    1e8c:	8d 81       	ldd	r24, Y+5	; 0x05
    1e8e:	9e 81       	ldd	r25, Y+6	; 0x06
    1e90:	85 30       	cpi	r24, 0x05	; 5
    1e92:	91 05       	cpc	r25, r1
    1e94:	99 f1       	breq	.+102    	; 0x1efc <TMR2_Init+0x232>
    1e96:	3b c0       	rjmp	.+118    	; 0x1f0e <TMR2_Init+0x244>
	{
		case DISABLE_PRESCALER:
		{
			CLR_BIT(TCCR2_temp,CS20);
    1e98:	8a 81       	ldd	r24, Y+2	; 0x02
    1e9a:	8e 7f       	andi	r24, 0xFE	; 254
    1e9c:	8a 83       	std	Y+2, r24	; 0x02
			CLR_BIT(TCCR2_temp,CS21);
    1e9e:	8a 81       	ldd	r24, Y+2	; 0x02
    1ea0:	8d 7f       	andi	r24, 0xFD	; 253
    1ea2:	8a 83       	std	Y+2, r24	; 0x02
			CLR_BIT(TCCR2_temp,CS22);
    1ea4:	8a 81       	ldd	r24, Y+2	; 0x02
    1ea6:	8b 7f       	andi	r24, 0xFB	; 251
    1ea8:	8a 83       	std	Y+2, r24	; 0x02
    1eaa:	31 c0       	rjmp	.+98     	; 0x1f0e <TMR2_Init+0x244>
			break;
		}
		case PRESCALER_1:
		{
			SET_BIT(TCCR2_temp,CS20);
    1eac:	8a 81       	ldd	r24, Y+2	; 0x02
    1eae:	81 60       	ori	r24, 0x01	; 1
    1eb0:	8a 83       	std	Y+2, r24	; 0x02
			CLR_BIT(TCCR2_temp,CS21);
    1eb2:	8a 81       	ldd	r24, Y+2	; 0x02
    1eb4:	8d 7f       	andi	r24, 0xFD	; 253
    1eb6:	8a 83       	std	Y+2, r24	; 0x02
			CLR_BIT(TCCR2_temp,CS22);
    1eb8:	8a 81       	ldd	r24, Y+2	; 0x02
    1eba:	8b 7f       	andi	r24, 0xFB	; 251
    1ebc:	8a 83       	std	Y+2, r24	; 0x02
    1ebe:	27 c0       	rjmp	.+78     	; 0x1f0e <TMR2_Init+0x244>
			break;
		}
		case PRESCALER_8:
		{
			CLR_BIT(TCCR2_temp,CS20);
    1ec0:	8a 81       	ldd	r24, Y+2	; 0x02
    1ec2:	8e 7f       	andi	r24, 0xFE	; 254
    1ec4:	8a 83       	std	Y+2, r24	; 0x02
			SET_BIT(TCCR2_temp,CS21);
    1ec6:	8a 81       	ldd	r24, Y+2	; 0x02
    1ec8:	82 60       	ori	r24, 0x02	; 2
    1eca:	8a 83       	std	Y+2, r24	; 0x02
			CLR_BIT(TCCR2_temp,CS22);
    1ecc:	8a 81       	ldd	r24, Y+2	; 0x02
    1ece:	8b 7f       	andi	r24, 0xFB	; 251
    1ed0:	8a 83       	std	Y+2, r24	; 0x02
    1ed2:	1d c0       	rjmp	.+58     	; 0x1f0e <TMR2_Init+0x244>
			break;
		}
		case PRESCALER_64:
		{
			SET_BIT(TCCR2_temp,CS20);
    1ed4:	8a 81       	ldd	r24, Y+2	; 0x02
    1ed6:	81 60       	ori	r24, 0x01	; 1
    1ed8:	8a 83       	std	Y+2, r24	; 0x02
			SET_BIT(TCCR2_temp,CS21);
    1eda:	8a 81       	ldd	r24, Y+2	; 0x02
    1edc:	82 60       	ori	r24, 0x02	; 2
    1ede:	8a 83       	std	Y+2, r24	; 0x02
			CLR_BIT(TCCR2_temp,CS22);
    1ee0:	8a 81       	ldd	r24, Y+2	; 0x02
    1ee2:	8b 7f       	andi	r24, 0xFB	; 251
    1ee4:	8a 83       	std	Y+2, r24	; 0x02
    1ee6:	13 c0       	rjmp	.+38     	; 0x1f0e <TMR2_Init+0x244>
			break;
		}
		case PRESCALER_256:
		{
			CLR_BIT(TCCR2_temp,CS20);
    1ee8:	8a 81       	ldd	r24, Y+2	; 0x02
    1eea:	8e 7f       	andi	r24, 0xFE	; 254
    1eec:	8a 83       	std	Y+2, r24	; 0x02
			CLR_BIT(TCCR2_temp,CS21);
    1eee:	8a 81       	ldd	r24, Y+2	; 0x02
    1ef0:	8d 7f       	andi	r24, 0xFD	; 253
    1ef2:	8a 83       	std	Y+2, r24	; 0x02
			SET_BIT(TCCR2_temp,CS22);
    1ef4:	8a 81       	ldd	r24, Y+2	; 0x02
    1ef6:	84 60       	ori	r24, 0x04	; 4
    1ef8:	8a 83       	std	Y+2, r24	; 0x02
    1efa:	09 c0       	rjmp	.+18     	; 0x1f0e <TMR2_Init+0x244>
			break;
		}
		case PRESCALER_1024:
		{
			SET_BIT(TCCR2_temp,CS20);
    1efc:	8a 81       	ldd	r24, Y+2	; 0x02
    1efe:	81 60       	ori	r24, 0x01	; 1
    1f00:	8a 83       	std	Y+2, r24	; 0x02
			CLR_BIT(TCCR2_temp,CS21);
    1f02:	8a 81       	ldd	r24, Y+2	; 0x02
    1f04:	8d 7f       	andi	r24, 0xFD	; 253
    1f06:	8a 83       	std	Y+2, r24	; 0x02
			SET_BIT(TCCR2_temp,CS22);
    1f08:	8a 81       	ldd	r24, Y+2	; 0x02
    1f0a:	84 60       	ori	r24, 0x04	; 4
    1f0c:	8a 83       	std	Y+2, r24	; 0x02
		default:
			break;
	}

	u8 TIMSK_temp;
		switch (TMR_groups[1].Timer_intrrupt)
    1f0e:	80 91 df 03 	lds	r24, 0x03DF
    1f12:	28 2f       	mov	r18, r24
    1f14:	30 e0       	ldi	r19, 0x00	; 0
    1f16:	3c 83       	std	Y+4, r19	; 0x04
    1f18:	2b 83       	std	Y+3, r18	; 0x03
    1f1a:	8b 81       	ldd	r24, Y+3	; 0x03
    1f1c:	9c 81       	ldd	r25, Y+4	; 0x04
    1f1e:	81 30       	cpi	r24, 0x01	; 1
    1f20:	91 05       	cpc	r25, r1
    1f22:	e1 f0       	breq	.+56     	; 0x1f5c <TMR2_Init+0x292>
    1f24:	2b 81       	ldd	r18, Y+3	; 0x03
    1f26:	3c 81       	ldd	r19, Y+4	; 0x04
    1f28:	22 30       	cpi	r18, 0x02	; 2
    1f2a:	31 05       	cpc	r19, r1
    1f2c:	2c f4       	brge	.+10     	; 0x1f38 <TMR2_Init+0x26e>
    1f2e:	8b 81       	ldd	r24, Y+3	; 0x03
    1f30:	9c 81       	ldd	r25, Y+4	; 0x04
    1f32:	00 97       	sbiw	r24, 0x00	; 0
    1f34:	61 f0       	breq	.+24     	; 0x1f4e <TMR2_Init+0x284>
    1f36:	26 c0       	rjmp	.+76     	; 0x1f84 <TMR2_Init+0x2ba>
    1f38:	2b 81       	ldd	r18, Y+3	; 0x03
    1f3a:	3c 81       	ldd	r19, Y+4	; 0x04
    1f3c:	22 30       	cpi	r18, 0x02	; 2
    1f3e:	31 05       	cpc	r19, r1
    1f40:	a1 f0       	breq	.+40     	; 0x1f6a <TMR2_Init+0x2a0>
    1f42:	8b 81       	ldd	r24, Y+3	; 0x03
    1f44:	9c 81       	ldd	r25, Y+4	; 0x04
    1f46:	83 30       	cpi	r24, 0x03	; 3
    1f48:	91 05       	cpc	r25, r1
    1f4a:	b1 f0       	breq	.+44     	; 0x1f78 <TMR2_Init+0x2ae>
    1f4c:	1b c0       	rjmp	.+54     	; 0x1f84 <TMR2_Init+0x2ba>
		{
			case DISABLE_TIMER_INT:
			{
				CLR_BIT(TIMSK_temp,OCIE2);
    1f4e:	89 81       	ldd	r24, Y+1	; 0x01
    1f50:	8f 77       	andi	r24, 0x7F	; 127
    1f52:	89 83       	std	Y+1, r24	; 0x01
				CLR_BIT(TIMSK_temp,TOIE2);
    1f54:	89 81       	ldd	r24, Y+1	; 0x01
    1f56:	8f 7b       	andi	r24, 0xBF	; 191
    1f58:	89 83       	std	Y+1, r24	; 0x01
    1f5a:	14 c0       	rjmp	.+40     	; 0x1f84 <TMR2_Init+0x2ba>
				break;
			}
			case COMPARE_INT_ENABLE:
			{
				SET_BIT(TIMSK_temp,OCIE2);
    1f5c:	89 81       	ldd	r24, Y+1	; 0x01
    1f5e:	80 68       	ori	r24, 0x80	; 128
    1f60:	89 83       	std	Y+1, r24	; 0x01
				CLR_BIT(TIMSK_temp,TOIE2);
    1f62:	89 81       	ldd	r24, Y+1	; 0x01
    1f64:	8f 7b       	andi	r24, 0xBF	; 191
    1f66:	89 83       	std	Y+1, r24	; 0x01
    1f68:	0d c0       	rjmp	.+26     	; 0x1f84 <TMR2_Init+0x2ba>
				break;
			}
			case OVERFLOW_INT_ENABLE:
			{
				CLR_BIT(TIMSK_temp,TOIE2);
    1f6a:	89 81       	ldd	r24, Y+1	; 0x01
    1f6c:	8f 7b       	andi	r24, 0xBF	; 191
    1f6e:	89 83       	std	Y+1, r24	; 0x01
				SET_BIT(TIMSK_temp,OCIE2);
    1f70:	89 81       	ldd	r24, Y+1	; 0x01
    1f72:	80 68       	ori	r24, 0x80	; 128
    1f74:	89 83       	std	Y+1, r24	; 0x01
    1f76:	06 c0       	rjmp	.+12     	; 0x1f84 <TMR2_Init+0x2ba>
				break;
			}
			case OVERFLOW_COMPARE_INT_ENABLE:
			{
				SET_BIT(TIMSK_temp,TOIE2);
    1f78:	89 81       	ldd	r24, Y+1	; 0x01
    1f7a:	80 64       	ori	r24, 0x40	; 64
    1f7c:	89 83       	std	Y+1, r24	; 0x01
				SET_BIT(TIMSK_temp,OCIE2);
    1f7e:	89 81       	ldd	r24, Y+1	; 0x01
    1f80:	80 68       	ori	r24, 0x80	; 128
    1f82:	89 83       	std	Y+1, r24	; 0x01
			}
			default:
				break;
		}

	TIMSK = TIMSK_temp;
    1f84:	e9 e5       	ldi	r30, 0x59	; 89
    1f86:	f0 e0       	ldi	r31, 0x00	; 0
    1f88:	89 81       	ldd	r24, Y+1	; 0x01
    1f8a:	80 83       	st	Z, r24
	TCNT2 = TMR_groups[1].Timer_startingValue;
    1f8c:	e4 e4       	ldi	r30, 0x44	; 68
    1f8e:	f0 e0       	ldi	r31, 0x00	; 0
    1f90:	80 91 e0 03 	lds	r24, 0x03E0
    1f94:	80 83       	st	Z, r24
	OCR2 = TMR_groups[1].Timer_compareValue;
    1f96:	e3 e4       	ldi	r30, 0x43	; 67
    1f98:	f0 e0       	ldi	r31, 0x00	; 0
    1f9a:	80 91 e1 03 	lds	r24, 0x03E1
    1f9e:	80 83       	st	Z, r24
	TCCR2=TCCR2_temp;
    1fa0:	e5 e4       	ldi	r30, 0x45	; 69
    1fa2:	f0 e0       	ldi	r31, 0x00	; 0
    1fa4:	8a 81       	ldd	r24, Y+2	; 0x02
    1fa6:	80 83       	st	Z, r24

}
    1fa8:	2c 96       	adiw	r28, 0x0c	; 12
    1faa:	0f b6       	in	r0, 0x3f	; 63
    1fac:	f8 94       	cli
    1fae:	de bf       	out	0x3e, r29	; 62
    1fb0:	0f be       	out	0x3f, r0	; 63
    1fb2:	cd bf       	out	0x3d, r28	; 61
    1fb4:	cf 91       	pop	r28
    1fb6:	df 91       	pop	r29
    1fb8:	08 95       	ret

00001fba <TMR2_Disable>:

void TMR2_Disable(void)
{
    1fba:	df 93       	push	r29
    1fbc:	cf 93       	push	r28
    1fbe:	0f 92       	push	r0
    1fc0:	cd b7       	in	r28, 0x3d	; 61
    1fc2:	de b7       	in	r29, 0x3e	; 62
	u8 TCCR2_temp =TCCR2;
    1fc4:	e5 e4       	ldi	r30, 0x45	; 69
    1fc6:	f0 e0       	ldi	r31, 0x00	; 0
    1fc8:	80 81       	ld	r24, Z
    1fca:	89 83       	std	Y+1, r24	; 0x01
	CLR_BIT(TCCR2_temp,CS20);
    1fcc:	89 81       	ldd	r24, Y+1	; 0x01
    1fce:	8e 7f       	andi	r24, 0xFE	; 254
    1fd0:	89 83       	std	Y+1, r24	; 0x01
	CLR_BIT(TCCR2_temp,CS21);
    1fd2:	89 81       	ldd	r24, Y+1	; 0x01
    1fd4:	8d 7f       	andi	r24, 0xFD	; 253
    1fd6:	89 83       	std	Y+1, r24	; 0x01
	CLR_BIT(TCCR2_temp,CS22);
    1fd8:	89 81       	ldd	r24, Y+1	; 0x01
    1fda:	8b 7f       	andi	r24, 0xFB	; 251
    1fdc:	89 83       	std	Y+1, r24	; 0x01
	CLR_BIT(TCCR2_temp,COM20);
    1fde:	89 81       	ldd	r24, Y+1	; 0x01
    1fe0:	8f 7e       	andi	r24, 0xEF	; 239
    1fe2:	89 83       	std	Y+1, r24	; 0x01
	CLR_BIT(TCCR2_temp,COM21);
    1fe4:	89 81       	ldd	r24, Y+1	; 0x01
    1fe6:	8f 7d       	andi	r24, 0xDF	; 223
    1fe8:	89 83       	std	Y+1, r24	; 0x01
	TCCR2=TCCR2_temp;				// we use temp to keep the struct with old selection in struct without changing it
    1fea:	e5 e4       	ldi	r30, 0x45	; 69
    1fec:	f0 e0       	ldi	r31, 0x00	; 0
    1fee:	89 81       	ldd	r24, Y+1	; 0x01
    1ff0:	80 83       	st	Z, r24
}
    1ff2:	0f 90       	pop	r0
    1ff4:	cf 91       	pop	r28
    1ff6:	df 91       	pop	r29
    1ff8:	08 95       	ret

00001ffa <TMR2_PWM>:

void TMR2_PWM(u8 Duty_cycle)
{
    1ffa:	df 93       	push	r29
    1ffc:	cf 93       	push	r28
    1ffe:	0f 92       	push	r0
    2000:	cd b7       	in	r28, 0x3d	; 61
    2002:	de b7       	in	r29, 0x3e	; 62
    2004:	89 83       	std	Y+1, r24	; 0x01
	TMR2_Disable();
    2006:	0e 94 dd 0f 	call	0x1fba	; 0x1fba <TMR2_Disable>
	TMR_groups[1].Timer_compareValue=Duty_cycle;
    200a:	89 81       	ldd	r24, Y+1	; 0x01
    200c:	80 93 e1 03 	sts	0x03E1, r24
	TMR2_Init();
    2010:	0e 94 65 0e 	call	0x1cca	; 0x1cca <TMR2_Init>
}
    2014:	0f 90       	pop	r0
    2016:	cf 91       	pop	r28
    2018:	df 91       	pop	r29
    201a:	08 95       	ret

0000201c <UART_void_Init>:

UASRT_config_t UART_group[] = {{RX_TX_EN 	 , UART_MODE ,	 DATA_8_BIT 	, DISABLE_PARITY, \
								ENDING_1_BIT , RISING_TX_FALLING_RX 		,9600 , DISABLE_INT}};

void UART_void_Init(void)
{
    201c:	df 93       	push	r29
    201e:	cf 93       	push	r28
    2020:	cd b7       	in	r28, 0x3d	; 61
    2022:	de b7       	in	r29, 0x3e	; 62
    2024:	60 97       	sbiw	r28, 0x10	; 16
    2026:	0f b6       	in	r0, 0x3f	; 63
    2028:	f8 94       	cli
    202a:	de bf       	out	0x3e, r29	; 62
    202c:	0f be       	out	0x3f, r0	; 63
    202e:	cd bf       	out	0x3d, r28	; 61
	u32 ubrr=(u32) (F_CPU/16.0/(float)(UART_group[0].BoadRate -1));
    2030:	80 91 ea 03 	lds	r24, 0x03EA
    2034:	90 91 eb 03 	lds	r25, 0x03EB
    2038:	01 97       	sbiw	r24, 0x01	; 1
    203a:	cc 01       	movw	r24, r24
    203c:	a0 e0       	ldi	r26, 0x00	; 0
    203e:	b0 e0       	ldi	r27, 0x00	; 0
    2040:	bc 01       	movw	r22, r24
    2042:	cd 01       	movw	r24, r26
    2044:	0e 94 07 05 	call	0xa0e	; 0xa0e <__floatunsisf>
    2048:	9b 01       	movw	r18, r22
    204a:	ac 01       	movw	r20, r24
    204c:	60 e0       	ldi	r22, 0x00	; 0
    204e:	74 e2       	ldi	r23, 0x24	; 36
    2050:	84 ef       	ldi	r24, 0xF4	; 244
    2052:	98 e4       	ldi	r25, 0x48	; 72
    2054:	0e 94 19 03 	call	0x632	; 0x632 <__divsf3>
    2058:	dc 01       	movw	r26, r24
    205a:	cb 01       	movw	r24, r22
    205c:	bc 01       	movw	r22, r24
    205e:	cd 01       	movw	r24, r26
    2060:	0e 94 49 00 	call	0x92	; 0x92 <__fixunssfsi>
    2064:	dc 01       	movw	r26, r24
    2066:	cb 01       	movw	r24, r22
    2068:	9c 83       	std	Y+4, r25	; 0x04
    206a:	8b 83       	std	Y+3, r24	; 0x03
	UBRRH= (u8) (ubrr>>8);
    206c:	e0 e4       	ldi	r30, 0x40	; 64
    206e:	f0 e0       	ldi	r31, 0x00	; 0
    2070:	8b 81       	ldd	r24, Y+3	; 0x03
    2072:	9c 81       	ldd	r25, Y+4	; 0x04
    2074:	89 2f       	mov	r24, r25
    2076:	99 27       	eor	r25, r25
    2078:	80 83       	st	Z, r24

	UBRRL= (u8) ubrr;
    207a:	e9 e2       	ldi	r30, 0x29	; 41
    207c:	f0 e0       	ldi	r31, 0x00	; 0
    207e:	8b 81       	ldd	r24, Y+3	; 0x03
    2080:	80 83       	st	Z, r24
	u8	UCSRB_temp=0;
    2082:	1a 82       	std	Y+2, r1	; 0x02
	u8  UCSRC_temp=0;
    2084:	19 82       	std	Y+1, r1	; 0x01
	/****************************************************/
	switch (UART_group[0].enable)
    2086:	80 91 e4 03 	lds	r24, 0x03E4
    208a:	28 2f       	mov	r18, r24
    208c:	30 e0       	ldi	r19, 0x00	; 0
    208e:	38 8b       	std	Y+16, r19	; 0x10
    2090:	2f 87       	std	Y+15, r18	; 0x0f
    2092:	8f 85       	ldd	r24, Y+15	; 0x0f
    2094:	98 89       	ldd	r25, Y+16	; 0x10
    2096:	81 30       	cpi	r24, 0x01	; 1
    2098:	91 05       	cpc	r25, r1
    209a:	69 f0       	breq	.+26     	; 0x20b6 <UART_void_Init+0x9a>
    209c:	2f 85       	ldd	r18, Y+15	; 0x0f
    209e:	38 89       	ldd	r19, Y+16	; 0x10
    20a0:	22 30       	cpi	r18, 0x02	; 2
    20a2:	31 05       	cpc	r19, r1
    20a4:	61 f0       	breq	.+24     	; 0x20be <UART_void_Init+0xa2>
    20a6:	8f 85       	ldd	r24, Y+15	; 0x0f
    20a8:	98 89       	ldd	r25, Y+16	; 0x10
    20aa:	00 97       	sbiw	r24, 0x00	; 0
    20ac:	71 f4       	brne	.+28     	; 0x20ca <UART_void_Init+0xae>
	{
		case RX_EN:
		{
			SET_BIT(UCSRB_temp,RXEN);
    20ae:	8a 81       	ldd	r24, Y+2	; 0x02
    20b0:	80 61       	ori	r24, 0x10	; 16
    20b2:	8a 83       	std	Y+2, r24	; 0x02
    20b4:	0a c0       	rjmp	.+20     	; 0x20ca <UART_void_Init+0xae>
			break;
		}
		case TX_EN:
		{
			SET_BIT(UCSRB_temp,TXEN);
    20b6:	8a 81       	ldd	r24, Y+2	; 0x02
    20b8:	88 60       	ori	r24, 0x08	; 8
    20ba:	8a 83       	std	Y+2, r24	; 0x02
    20bc:	06 c0       	rjmp	.+12     	; 0x20ca <UART_void_Init+0xae>
			break;
		}
		case RX_TX_EN:
		{
			SET_BIT(UCSRB_temp,RXEN);
    20be:	8a 81       	ldd	r24, Y+2	; 0x02
    20c0:	80 61       	ori	r24, 0x10	; 16
    20c2:	8a 83       	std	Y+2, r24	; 0x02
			SET_BIT(UCSRB_temp,TXEN);
    20c4:	8a 81       	ldd	r24, Y+2	; 0x02
    20c6:	88 60       	ori	r24, 0x08	; 8
    20c8:	8a 83       	std	Y+2, r24	; 0x02
			//#warning "unexpected input in UART Enable type"
			break;
		}
	}
	/************************************************************************************************/
	switch (UART_group[0].UART_USART)
    20ca:	80 91 e5 03 	lds	r24, 0x03E5
    20ce:	28 2f       	mov	r18, r24
    20d0:	30 e0       	ldi	r19, 0x00	; 0
    20d2:	3e 87       	std	Y+14, r19	; 0x0e
    20d4:	2d 87       	std	Y+13, r18	; 0x0d
    20d6:	8d 85       	ldd	r24, Y+13	; 0x0d
    20d8:	9e 85       	ldd	r25, Y+14	; 0x0e
    20da:	00 97       	sbiw	r24, 0x00	; 0
    20dc:	31 f0       	breq	.+12     	; 0x20ea <UART_void_Init+0xce>
    20de:	2d 85       	ldd	r18, Y+13	; 0x0d
    20e0:	3e 85       	ldd	r19, Y+14	; 0x0e
    20e2:	21 30       	cpi	r18, 0x01	; 1
    20e4:	31 05       	cpc	r19, r1
    20e6:	29 f0       	breq	.+10     	; 0x20f2 <UART_void_Init+0xd6>
    20e8:	07 c0       	rjmp	.+14     	; 0x20f8 <UART_void_Init+0xdc>
	{
		case UART_MODE:
		{

			CLR_BIT(UCSRC_temp,UMSEL);
    20ea:	89 81       	ldd	r24, Y+1	; 0x01
    20ec:	8f 7b       	andi	r24, 0xBF	; 191
    20ee:	89 83       	std	Y+1, r24	; 0x01
    20f0:	03 c0       	rjmp	.+6      	; 0x20f8 <UART_void_Init+0xdc>
			break;
		}
		case USART_MODE:
		{
			SET_BIT(UCSRC_temp,UMSEL);
    20f2:	89 81       	ldd	r24, Y+1	; 0x01
    20f4:	80 64       	ori	r24, 0x40	; 64
    20f6:	89 83       	std	Y+1, r24	; 0x01
			//#warning "unexpected input in UART Enable type"
			break;
		}
	}
	/************************************************************************************************/
	switch (UART_group[0].dataFrame)
    20f8:	80 91 e6 03 	lds	r24, 0x03E6
    20fc:	28 2f       	mov	r18, r24
    20fe:	30 e0       	ldi	r19, 0x00	; 0
    2100:	3c 87       	std	Y+12, r19	; 0x0c
    2102:	2b 87       	std	Y+11, r18	; 0x0b
    2104:	8b 85       	ldd	r24, Y+11	; 0x0b
    2106:	9c 85       	ldd	r25, Y+12	; 0x0c
    2108:	82 30       	cpi	r24, 0x02	; 2
    210a:	91 05       	cpc	r25, r1
    210c:	71 f1       	breq	.+92     	; 0x216a <UART_void_Init+0x14e>
    210e:	2b 85       	ldd	r18, Y+11	; 0x0b
    2110:	3c 85       	ldd	r19, Y+12	; 0x0c
    2112:	23 30       	cpi	r18, 0x03	; 3
    2114:	31 05       	cpc	r19, r1
    2116:	54 f4       	brge	.+20     	; 0x212c <UART_void_Init+0x110>
    2118:	8b 85       	ldd	r24, Y+11	; 0x0b
    211a:	9c 85       	ldd	r25, Y+12	; 0x0c
    211c:	00 97       	sbiw	r24, 0x00	; 0
    211e:	89 f0       	breq	.+34     	; 0x2142 <UART_void_Init+0x126>
    2120:	2b 85       	ldd	r18, Y+11	; 0x0b
    2122:	3c 85       	ldd	r19, Y+12	; 0x0c
    2124:	21 30       	cpi	r18, 0x01	; 1
    2126:	31 05       	cpc	r19, r1
    2128:	b1 f0       	breq	.+44     	; 0x2156 <UART_void_Init+0x13a>
    212a:	39 c0       	rjmp	.+114    	; 0x219e <UART_void_Init+0x182>
    212c:	8b 85       	ldd	r24, Y+11	; 0x0b
    212e:	9c 85       	ldd	r25, Y+12	; 0x0c
    2130:	83 30       	cpi	r24, 0x03	; 3
    2132:	91 05       	cpc	r25, r1
    2134:	21 f1       	breq	.+72     	; 0x217e <UART_void_Init+0x162>
    2136:	2b 85       	ldd	r18, Y+11	; 0x0b
    2138:	3c 85       	ldd	r19, Y+12	; 0x0c
    213a:	24 30       	cpi	r18, 0x04	; 4
    213c:	31 05       	cpc	r19, r1
    213e:	49 f1       	breq	.+82     	; 0x2192 <UART_void_Init+0x176>
    2140:	2e c0       	rjmp	.+92     	; 0x219e <UART_void_Init+0x182>
	{
		case DATA_5_BIT:										//z2-z1-z0 = 000
		{
			CLR_BIT(UCSRC_temp,UCSZ0);
    2142:	89 81       	ldd	r24, Y+1	; 0x01
    2144:	8d 7f       	andi	r24, 0xFD	; 253
    2146:	89 83       	std	Y+1, r24	; 0x01
			CLR_BIT(UCSRC_temp,UCSZ1);
    2148:	89 81       	ldd	r24, Y+1	; 0x01
    214a:	8b 7f       	andi	r24, 0xFB	; 251
    214c:	89 83       	std	Y+1, r24	; 0x01
			CLR_BIT(UCSRB_temp,UCSZ2);
    214e:	8a 81       	ldd	r24, Y+2	; 0x02
    2150:	8b 7f       	andi	r24, 0xFB	; 251
    2152:	8a 83       	std	Y+2, r24	; 0x02
    2154:	24 c0       	rjmp	.+72     	; 0x219e <UART_void_Init+0x182>
			break;
		}
		case DATA_6_BIT:										//z2-z1-z0 = 001
		{
			UCSRC_temp |=  ((1<<UCSZ0));
    2156:	89 81       	ldd	r24, Y+1	; 0x01
    2158:	82 60       	ori	r24, 0x02	; 2
    215a:	89 83       	std	Y+1, r24	; 0x01
			UCSRC_temp &= ~((1<<UCSZ1));
    215c:	89 81       	ldd	r24, Y+1	; 0x01
    215e:	8b 7f       	andi	r24, 0xFB	; 251
    2160:	89 83       	std	Y+1, r24	; 0x01
			CLR_BIT(UCSRB_temp,UCSZ2);
    2162:	8a 81       	ldd	r24, Y+2	; 0x02
    2164:	8b 7f       	andi	r24, 0xFB	; 251
    2166:	8a 83       	std	Y+2, r24	; 0x02
    2168:	1a c0       	rjmp	.+52     	; 0x219e <UART_void_Init+0x182>
			break;
		}
		case DATA_7_BIT:										//z2-z1-z0 = 010
		{
			UCSRC_temp &= ~((1<<UCSZ0));
    216a:	89 81       	ldd	r24, Y+1	; 0x01
    216c:	8d 7f       	andi	r24, 0xFD	; 253
    216e:	89 83       	std	Y+1, r24	; 0x01
			UCSRC_temp |=  ((1<<UCSZ1));
    2170:	89 81       	ldd	r24, Y+1	; 0x01
    2172:	84 60       	ori	r24, 0x04	; 4
    2174:	89 83       	std	Y+1, r24	; 0x01
			CLR_BIT(UCSRB_temp,UCSZ2);
    2176:	8a 81       	ldd	r24, Y+2	; 0x02
    2178:	8b 7f       	andi	r24, 0xFB	; 251
    217a:	8a 83       	std	Y+2, r24	; 0x02
    217c:	10 c0       	rjmp	.+32     	; 0x219e <UART_void_Init+0x182>
			break;
		}
		case DATA_8_BIT:										//z2-z1-z0 = 011
		{
			SET_BIT(UCSRC_temp,UCSZ1);
    217e:	89 81       	ldd	r24, Y+1	; 0x01
    2180:	84 60       	ori	r24, 0x04	; 4
    2182:	89 83       	std	Y+1, r24	; 0x01
			SET_BIT(UCSRC_temp,UCSZ0);
    2184:	89 81       	ldd	r24, Y+1	; 0x01
    2186:	82 60       	ori	r24, 0x02	; 2
    2188:	89 83       	std	Y+1, r24	; 0x01

			//UCSRC_temp |=  ((1<<UCSZ0)|(1<<UCSZ1));
			CLR_BIT(UCSRB_temp,UCSZ2);
    218a:	8a 81       	ldd	r24, Y+2	; 0x02
    218c:	8b 7f       	andi	r24, 0xFB	; 251
    218e:	8a 83       	std	Y+2, r24	; 0x02
    2190:	06 c0       	rjmp	.+12     	; 0x219e <UART_void_Init+0x182>
			break;
		}
		case DATA_9_BIT:										//z2-z1-z0 = 111
		{
			UCSRC_temp |=  ((1<<UCSZ0)|(1<<UCSZ1));
    2192:	89 81       	ldd	r24, Y+1	; 0x01
    2194:	86 60       	ori	r24, 0x06	; 6
    2196:	89 83       	std	Y+1, r24	; 0x01
			SET_BIT(UCSRB_temp,UCSZ2);
    2198:	8a 81       	ldd	r24, Y+2	; 0x02
    219a:	84 60       	ori	r24, 0x04	; 4
    219c:	8a 83       	std	Y+2, r24	; 0x02
			//#warning "unexpected input in UART Enable type"
			break;
		}
	}
	/************************************************************************************************/
	switch (UART_group[0].parity)
    219e:	80 91 e7 03 	lds	r24, 0x03E7
    21a2:	28 2f       	mov	r18, r24
    21a4:	30 e0       	ldi	r19, 0x00	; 0
    21a6:	3a 87       	std	Y+10, r19	; 0x0a
    21a8:	29 87       	std	Y+9, r18	; 0x09
    21aa:	89 85       	ldd	r24, Y+9	; 0x09
    21ac:	9a 85       	ldd	r25, Y+10	; 0x0a
    21ae:	81 30       	cpi	r24, 0x01	; 1
    21b0:	91 05       	cpc	r25, r1
    21b2:	69 f0       	breq	.+26     	; 0x21ce <UART_void_Init+0x1b2>
    21b4:	29 85       	ldd	r18, Y+9	; 0x09
    21b6:	3a 85       	ldd	r19, Y+10	; 0x0a
    21b8:	22 30       	cpi	r18, 0x02	; 2
    21ba:	31 05       	cpc	r19, r1
    21bc:	79 f0       	breq	.+30     	; 0x21dc <UART_void_Init+0x1c0>
    21be:	89 85       	ldd	r24, Y+9	; 0x09
    21c0:	9a 85       	ldd	r25, Y+10	; 0x0a
    21c2:	00 97       	sbiw	r24, 0x00	; 0
    21c4:	71 f4       	brne	.+28     	; 0x21e2 <UART_void_Init+0x1c6>
	{
		case DISABLE_PARITY:						//UPM1-UPM0 = 00
		{
			UCSRC_temp &= ~((1<<UPM1)|(1<<UPM0));		//Can't use set bit because UCSRC overlap UDDRH
    21c6:	89 81       	ldd	r24, Y+1	; 0x01
    21c8:	8f 7c       	andi	r24, 0xCF	; 207
    21ca:	89 83       	std	Y+1, r24	; 0x01
    21cc:	0a c0       	rjmp	.+20     	; 0x21e2 <UART_void_Init+0x1c6>
			break;
		}
		case EVEN_PARITY:							//UPM1-UPM0 = 10
		{
			UCSRC_temp |=  ((1<<UPM1));		//Can't use set bit because UCSRC overlap UDDRH
    21ce:	89 81       	ldd	r24, Y+1	; 0x01
    21d0:	80 62       	ori	r24, 0x20	; 32
    21d2:	89 83       	std	Y+1, r24	; 0x01
			UCSRC_temp &= ~((1<<UPM0));
    21d4:	89 81       	ldd	r24, Y+1	; 0x01
    21d6:	8f 7e       	andi	r24, 0xEF	; 239
    21d8:	89 83       	std	Y+1, r24	; 0x01
    21da:	03 c0       	rjmp	.+6      	; 0x21e2 <UART_void_Init+0x1c6>
			break;
		}
		case ODD_PARITY:							//UPM1-UPM0 = 11
		{
			UCSRC_temp |= ((1<<UPM1)|(1<<UPM0));		//Can't use set bit because UCSRC overlap UDDRH
    21dc:	89 81       	ldd	r24, Y+1	; 0x01
    21de:	80 63       	ori	r24, 0x30	; 48
    21e0:	89 83       	std	Y+1, r24	; 0x01
			//#warning "unexpected input in UART Enable type"
			break;
		}
	}
	/************************************************************************************************/
	switch (UART_group[0].endingBits)
    21e2:	80 91 e8 03 	lds	r24, 0x03E8
    21e6:	28 2f       	mov	r18, r24
    21e8:	30 e0       	ldi	r19, 0x00	; 0
    21ea:	38 87       	std	Y+8, r19	; 0x08
    21ec:	2f 83       	std	Y+7, r18	; 0x07
    21ee:	8f 81       	ldd	r24, Y+7	; 0x07
    21f0:	98 85       	ldd	r25, Y+8	; 0x08
    21f2:	00 97       	sbiw	r24, 0x00	; 0
    21f4:	31 f0       	breq	.+12     	; 0x2202 <UART_void_Init+0x1e6>
    21f6:	2f 81       	ldd	r18, Y+7	; 0x07
    21f8:	38 85       	ldd	r19, Y+8	; 0x08
    21fa:	21 30       	cpi	r18, 0x01	; 1
    21fc:	31 05       	cpc	r19, r1
    21fe:	29 f0       	breq	.+10     	; 0x220a <UART_void_Init+0x1ee>
    2200:	07 c0       	rjmp	.+14     	; 0x2210 <UART_void_Init+0x1f4>
	{
		case ENDING_1_BIT:							//USBS = 0
		{
			UCSRC_temp &= ~((1<<USBS));		//Can't use set bit because UCSRC overlap UDDRH
    2202:	89 81       	ldd	r24, Y+1	; 0x01
    2204:	87 7f       	andi	r24, 0xF7	; 247
    2206:	89 83       	std	Y+1, r24	; 0x01
    2208:	03 c0       	rjmp	.+6      	; 0x2210 <UART_void_Init+0x1f4>
			break;
		}
		case ENDING_2_BIT:							//USBS = 1
		{
			UCSRC_temp |=  ((1<<USBS));		//Can't use set bit because UCSRC overlap UDDRH
    220a:	89 81       	ldd	r24, Y+1	; 0x01
    220c:	88 60       	ori	r24, 0x08	; 8
    220e:	89 83       	std	Y+1, r24	; 0x01
			//#warning "unexpected input in UART Enable type"
			break;
		}
	}
	/************************************************************************************************/
	switch (UART_group[0].clockPolarity)
    2210:	80 91 e9 03 	lds	r24, 0x03E9
    2214:	28 2f       	mov	r18, r24
    2216:	30 e0       	ldi	r19, 0x00	; 0
    2218:	3e 83       	std	Y+6, r19	; 0x06
    221a:	2d 83       	std	Y+5, r18	; 0x05
    221c:	8d 81       	ldd	r24, Y+5	; 0x05
    221e:	9e 81       	ldd	r25, Y+6	; 0x06
    2220:	00 97       	sbiw	r24, 0x00	; 0
    2222:	31 f0       	breq	.+12     	; 0x2230 <UART_void_Init+0x214>
    2224:	2d 81       	ldd	r18, Y+5	; 0x05
    2226:	3e 81       	ldd	r19, Y+6	; 0x06
    2228:	21 30       	cpi	r18, 0x01	; 1
    222a:	31 05       	cpc	r19, r1
    222c:	29 f0       	breq	.+10     	; 0x2238 <UART_void_Init+0x21c>
    222e:	07 c0       	rjmp	.+14     	; 0x223e <UART_void_Init+0x222>
	{
		case RISING_TX_FALLING_RX:							//UCPOL = 0
		{
			UCSRC_temp &= ~((1<<UCPOL));		//Can't use set bit because UCSRC overlap UDDRH
    2230:	89 81       	ldd	r24, Y+1	; 0x01
    2232:	8e 7f       	andi	r24, 0xFE	; 254
    2234:	89 83       	std	Y+1, r24	; 0x01
    2236:	03 c0       	rjmp	.+6      	; 0x223e <UART_void_Init+0x222>
			break;
		}
		case FALLING_TX_RISING_RX:							//UCPOL = 1
		{
			UCSRC_temp |=  ((1<<UCPOL));		//Can't use set bit because UCSRC overlap UDDRH
    2238:	89 81       	ldd	r24, Y+1	; 0x01
    223a:	81 60       	ori	r24, 0x01	; 1
    223c:	89 83       	std	Y+1, r24	; 0x01
		{
			//#warning "unexpected input in UART Enable type"
			break;
		}
	}
	UBRRH=0;
    223e:	e0 e4       	ldi	r30, 0x40	; 64
    2240:	f0 e0       	ldi	r31, 0x00	; 0
    2242:	10 82       	st	Z, r1
	SET_BIT(UCSRC_temp,URSEL);
    2244:	89 81       	ldd	r24, Y+1	; 0x01
    2246:	80 68       	ori	r24, 0x80	; 128
    2248:	89 83       	std	Y+1, r24	; 0x01
	UCSRB=UCSRB_temp;
    224a:	ea e2       	ldi	r30, 0x2A	; 42
    224c:	f0 e0       	ldi	r31, 0x00	; 0
    224e:	8a 81       	ldd	r24, Y+2	; 0x02
    2250:	80 83       	st	Z, r24
	UCSRC=UCSRC_temp;
    2252:	e0 e4       	ldi	r30, 0x40	; 64
    2254:	f0 e0       	ldi	r31, 0x00	; 0
    2256:	89 81       	ldd	r24, Y+1	; 0x01
    2258:	80 83       	st	Z, r24

}
    225a:	60 96       	adiw	r28, 0x10	; 16
    225c:	0f b6       	in	r0, 0x3f	; 63
    225e:	f8 94       	cli
    2260:	de bf       	out	0x3e, r29	; 62
    2262:	0f be       	out	0x3f, r0	; 63
    2264:	cd bf       	out	0x3d, r28	; 61
    2266:	cf 91       	pop	r28
    2268:	df 91       	pop	r29
    226a:	08 95       	ret

0000226c <UART_void_TXBlocking>:


void UART_void_TXBlocking(u16 u16_data)
{
    226c:	df 93       	push	r29
    226e:	cf 93       	push	r28
    2270:	00 d0       	rcall	.+0      	; 0x2272 <UART_void_TXBlocking+0x6>
    2272:	00 d0       	rcall	.+0      	; 0x2274 <UART_void_TXBlocking+0x8>
    2274:	cd b7       	in	r28, 0x3d	; 61
    2276:	de b7       	in	r29, 0x3e	; 62
    2278:	9a 83       	std	Y+2, r25	; 0x02
    227a:	89 83       	std	Y+1, r24	; 0x01
	while( !GET_BIT(UCSRA,UDRE));
    227c:	eb e2       	ldi	r30, 0x2B	; 43
    227e:	f0 e0       	ldi	r31, 0x00	; 0
    2280:	80 81       	ld	r24, Z
    2282:	82 95       	swap	r24
    2284:	86 95       	lsr	r24
    2286:	87 70       	andi	r24, 0x07	; 7
    2288:	88 2f       	mov	r24, r24
    228a:	90 e0       	ldi	r25, 0x00	; 0
    228c:	81 70       	andi	r24, 0x01	; 1
    228e:	90 70       	andi	r25, 0x00	; 0
    2290:	00 97       	sbiw	r24, 0x00	; 0
    2292:	a1 f3       	breq	.-24     	; 0x227c <UART_void_TXBlocking+0x10>
	switch (UART_group[0].dataFrame) {
    2294:	80 91 e6 03 	lds	r24, 0x03E6
    2298:	28 2f       	mov	r18, r24
    229a:	30 e0       	ldi	r19, 0x00	; 0
    229c:	3c 83       	std	Y+4, r19	; 0x04
    229e:	2b 83       	std	Y+3, r18	; 0x03
    22a0:	8b 81       	ldd	r24, Y+3	; 0x03
    22a2:	9c 81       	ldd	r25, Y+4	; 0x04
    22a4:	99 23       	and	r25, r25
    22a6:	24 f1       	brlt	.+72     	; 0x22f0 <UART_void_TXBlocking+0x84>
    22a8:	2b 81       	ldd	r18, Y+3	; 0x03
    22aa:	3c 81       	ldd	r19, Y+4	; 0x04
    22ac:	24 30       	cpi	r18, 0x04	; 4
    22ae:	31 05       	cpc	r19, r1
    22b0:	34 f0       	brlt	.+12     	; 0x22be <UART_void_TXBlocking+0x52>
    22b2:	8b 81       	ldd	r24, Y+3	; 0x03
    22b4:	9c 81       	ldd	r25, Y+4	; 0x04
    22b6:	84 30       	cpi	r24, 0x04	; 4
    22b8:	91 05       	cpc	r25, r1
    22ba:	31 f0       	breq	.+12     	; 0x22c8 <UART_void_TXBlocking+0x5c>
    22bc:	19 c0       	rjmp	.+50     	; 0x22f0 <UART_void_TXBlocking+0x84>
		case DATA_5_BIT:
		case DATA_6_BIT:
		case DATA_7_BIT:
		case DATA_8_BIT:
		{
			UDR= (u8)u16_data;
    22be:	ec e2       	ldi	r30, 0x2C	; 44
    22c0:	f0 e0       	ldi	r31, 0x00	; 0
    22c2:	89 81       	ldd	r24, Y+1	; 0x01
    22c4:	80 83       	st	Z, r24
    22c6:	14 c0       	rjmp	.+40     	; 0x22f0 <UART_void_TXBlocking+0x84>
			break;
		}
		case DATA_9_BIT:
		{
			CLR_BIT(UCSRB,TXB8);
    22c8:	aa e2       	ldi	r26, 0x2A	; 42
    22ca:	b0 e0       	ldi	r27, 0x00	; 0
    22cc:	ea e2       	ldi	r30, 0x2A	; 42
    22ce:	f0 e0       	ldi	r31, 0x00	; 0
    22d0:	80 81       	ld	r24, Z
    22d2:	8e 7f       	andi	r24, 0xFE	; 254
    22d4:	8c 93       	st	X, r24
			if(u16_data & 0x0100 )
    22d6:	89 81       	ldd	r24, Y+1	; 0x01
    22d8:	9a 81       	ldd	r25, Y+2	; 0x02
    22da:	80 70       	andi	r24, 0x00	; 0
    22dc:	91 70       	andi	r25, 0x01	; 1
    22de:	00 97       	sbiw	r24, 0x00	; 0
    22e0:	39 f0       	breq	.+14     	; 0x22f0 <UART_void_TXBlocking+0x84>
			{
				SET_BIT(UCSRB,TXB8);
    22e2:	aa e2       	ldi	r26, 0x2A	; 42
    22e4:	b0 e0       	ldi	r27, 0x00	; 0
    22e6:	ea e2       	ldi	r30, 0x2A	; 42
    22e8:	f0 e0       	ldi	r31, 0x00	; 0
    22ea:	80 81       	ld	r24, Z
    22ec:	81 60       	ori	r24, 0x01	; 1
    22ee:	8c 93       	st	X, r24
		{
			break;
		}
	}

}
    22f0:	0f 90       	pop	r0
    22f2:	0f 90       	pop	r0
    22f4:	0f 90       	pop	r0
    22f6:	0f 90       	pop	r0
    22f8:	cf 91       	pop	r28
    22fa:	df 91       	pop	r29
    22fc:	08 95       	ret

000022fe <UART_U16_RXBlocking>:


u16 UART_U16_RXBlocking(void)
{
    22fe:	df 93       	push	r29
    2300:	cf 93       	push	r28
    2302:	cd b7       	in	r28, 0x3d	; 61
    2304:	de b7       	in	r29, 0x3e	; 62
    2306:	28 97       	sbiw	r28, 0x08	; 8
    2308:	0f b6       	in	r0, 0x3f	; 63
    230a:	f8 94       	cli
    230c:	de bf       	out	0x3e, r29	; 62
    230e:	0f be       	out	0x3f, r0	; 63
    2310:	cd bf       	out	0x3d, r28	; 61
	u16 copy_u16_dataRx;
	while( !GET_BIT(UCSRA,RXC));
    2312:	eb e2       	ldi	r30, 0x2B	; 43
    2314:	f0 e0       	ldi	r31, 0x00	; 0
    2316:	80 81       	ld	r24, Z
    2318:	88 23       	and	r24, r24
    231a:	dc f7       	brge	.-10     	; 0x2312 <UART_U16_RXBlocking+0x14>

	switch (UART_group[0].dataFrame)
    231c:	80 91 e6 03 	lds	r24, 0x03E6
    2320:	28 2f       	mov	r18, r24
    2322:	30 e0       	ldi	r19, 0x00	; 0
    2324:	38 87       	std	Y+8, r19	; 0x08
    2326:	2f 83       	std	Y+7, r18	; 0x07
    2328:	8f 81       	ldd	r24, Y+7	; 0x07
    232a:	98 85       	ldd	r25, Y+8	; 0x08
    232c:	99 23       	and	r25, r25
    232e:	bc f1       	brlt	.+110    	; 0x239e <UART_U16_RXBlocking+0xa0>
    2330:	2f 81       	ldd	r18, Y+7	; 0x07
    2332:	38 85       	ldd	r19, Y+8	; 0x08
    2334:	24 30       	cpi	r18, 0x04	; 4
    2336:	31 05       	cpc	r19, r1
    2338:	34 f0       	brlt	.+12     	; 0x2346 <UART_U16_RXBlocking+0x48>
    233a:	8f 81       	ldd	r24, Y+7	; 0x07
    233c:	98 85       	ldd	r25, Y+8	; 0x08
    233e:	84 30       	cpi	r24, 0x04	; 4
    2340:	91 05       	cpc	r25, r1
    2342:	49 f0       	breq	.+18     	; 0x2356 <UART_U16_RXBlocking+0x58>
    2344:	2c c0       	rjmp	.+88     	; 0x239e <UART_U16_RXBlocking+0xa0>
			case DATA_5_BIT:
			case DATA_6_BIT:
			case DATA_7_BIT:
			case DATA_8_BIT:
			{
				copy_u16_dataRx=UDR;
    2346:	ec e2       	ldi	r30, 0x2C	; 44
    2348:	f0 e0       	ldi	r31, 0x00	; 0
    234a:	80 81       	ld	r24, Z
    234c:	88 2f       	mov	r24, r24
    234e:	90 e0       	ldi	r25, 0x00	; 0
    2350:	9c 83       	std	Y+4, r25	; 0x04
    2352:	8b 83       	std	Y+3, r24	; 0x03
    2354:	24 c0       	rjmp	.+72     	; 0x239e <UART_U16_RXBlocking+0xa0>
				break;
			}
			case DATA_9_BIT:
			{
				u8 copy_u8_dataHigh = (UCSRA>>1) & 0x01 ;
    2356:	eb e2       	ldi	r30, 0x2B	; 43
    2358:	f0 e0       	ldi	r31, 0x00	; 0
    235a:	80 81       	ld	r24, Z
    235c:	86 95       	lsr	r24
    235e:	81 70       	andi	r24, 0x01	; 1
    2360:	8a 83       	std	Y+2, r24	; 0x02
				u8 copy_u8_dataLow = UDR;
    2362:	ec e2       	ldi	r30, 0x2C	; 44
    2364:	f0 e0       	ldi	r31, 0x00	; 0
    2366:	80 81       	ld	r24, Z
    2368:	89 83       	std	Y+1, r24	; 0x01

				if ( UCSRA & ((1<<FE)|(1<<DOR)|(1<<PE)) )
    236a:	eb e2       	ldi	r30, 0x2B	; 43
    236c:	f0 e0       	ldi	r31, 0x00	; 0
    236e:	80 81       	ld	r24, Z
    2370:	88 2f       	mov	r24, r24
    2372:	90 e0       	ldi	r25, 0x00	; 0
    2374:	8c 71       	andi	r24, 0x1C	; 28
    2376:	90 70       	andi	r25, 0x00	; 0
    2378:	00 97       	sbiw	r24, 0x00	; 0
    237a:	29 f0       	breq	.+10     	; 0x2386 <UART_U16_RXBlocking+0x88>
				{
					return -1;
    237c:	2f ef       	ldi	r18, 0xFF	; 255
    237e:	3f ef       	ldi	r19, 0xFF	; 255
    2380:	3e 83       	std	Y+6, r19	; 0x06
    2382:	2d 83       	std	Y+5, r18	; 0x05
    2384:	10 c0       	rjmp	.+32     	; 0x23a6 <UART_U16_RXBlocking+0xa8>
				}

				copy_u16_dataRx=(copy_u8_dataHigh<<8)|copy_u8_dataLow;
    2386:	8a 81       	ldd	r24, Y+2	; 0x02
    2388:	88 2f       	mov	r24, r24
    238a:	90 e0       	ldi	r25, 0x00	; 0
    238c:	38 2f       	mov	r19, r24
    238e:	22 27       	eor	r18, r18
    2390:	89 81       	ldd	r24, Y+1	; 0x01
    2392:	88 2f       	mov	r24, r24
    2394:	90 e0       	ldi	r25, 0x00	; 0
    2396:	82 2b       	or	r24, r18
    2398:	93 2b       	or	r25, r19
    239a:	9c 83       	std	Y+4, r25	; 0x04
    239c:	8b 83       	std	Y+3, r24	; 0x03
			default:
			{
				break;
			}
	}
	return copy_u16_dataRx;
    239e:	8b 81       	ldd	r24, Y+3	; 0x03
    23a0:	9c 81       	ldd	r25, Y+4	; 0x04
    23a2:	9e 83       	std	Y+6, r25	; 0x06
    23a4:	8d 83       	std	Y+5, r24	; 0x05
    23a6:	8d 81       	ldd	r24, Y+5	; 0x05
    23a8:	9e 81       	ldd	r25, Y+6	; 0x06
}
    23aa:	28 96       	adiw	r28, 0x08	; 8
    23ac:	0f b6       	in	r0, 0x3f	; 63
    23ae:	f8 94       	cli
    23b0:	de bf       	out	0x3e, r29	; 62
    23b2:	0f be       	out	0x3f, r0	; 63
    23b4:	cd bf       	out	0x3d, r28	; 61
    23b6:	cf 91       	pop	r28
    23b8:	df 91       	pop	r29
    23ba:	08 95       	ret

000023bc <BTN0_GetValue>:
#include "../INC/BTN.h"



u8 BTN0_GetValue(void)
{
    23bc:	df 93       	push	r29
    23be:	cf 93       	push	r28
    23c0:	cd b7       	in	r28, 0x3d	; 61
    23c2:	de b7       	in	r29, 0x3e	; 62
	return DIO_Read(GRP_3_BTN0);
    23c4:	82 e0       	ldi	r24, 0x02	; 2
    23c6:	0e 94 d9 0a 	call	0x15b2	; 0x15b2 <DIO_Read>
}
    23ca:	cf 91       	pop	r28
    23cc:	df 91       	pop	r29
    23ce:	08 95       	ret

000023d0 <BTN1_GetValue>:
u8 BTN1_GetValue(void)
{
    23d0:	df 93       	push	r29
    23d2:	cf 93       	push	r28
    23d4:	cd b7       	in	r28, 0x3d	; 61
    23d6:	de b7       	in	r29, 0x3e	; 62
	return DIO_Read(GRP_7_BTN1);
    23d8:	86 e0       	ldi	r24, 0x06	; 6
    23da:	0e 94 d9 0a 	call	0x15b2	; 0x15b2 <DIO_Read>
}
    23de:	cf 91       	pop	r28
    23e0:	df 91       	pop	r29
    23e2:	08 95       	ret

000023e4 <BTN2_GetValue>:
u8 BTN2_GetValue(void)
{
    23e4:	df 93       	push	r29
    23e6:	cf 93       	push	r28
    23e8:	cd b7       	in	r28, 0x3d	; 61
    23ea:	de b7       	in	r29, 0x3e	; 62
	return DIO_Read(GRP_8_BTN2);
    23ec:	87 e0       	ldi	r24, 0x07	; 7
    23ee:	0e 94 d9 0a 	call	0x15b2	; 0x15b2 <DIO_Read>
}
    23f2:	cf 91       	pop	r28
    23f4:	df 91       	pop	r29
    23f6:	08 95       	ret

000023f8 <KPD_Get_State>:


#include "../INC/KPD.h"

u8 KPD_Get_State(void)
{
    23f8:	df 93       	push	r29
    23fa:	cf 93       	push	r28
    23fc:	00 d0       	rcall	.+0      	; 0x23fe <KPD_Get_State+0x6>
    23fe:	cd b7       	in	r28, 0x3d	; 61
    2400:	de b7       	in	r29, 0x3e	; 62

    u8 Col_value,State_busy=0;
    2402:	19 82       	std	Y+1, r1	; 0x01

    DIO_Write(HIGH,GRP_14_ROW);
    2404:	8f ef       	ldi	r24, 0xFF	; 255
    2406:	6d e0       	ldi	r22, 0x0D	; 13
    2408:	0e 94 79 0a 	call	0x14f2	; 0x14f2 <DIO_Write>
    Col_value = DIO_Read(GRP_15_COL);
    240c:	8e e0       	ldi	r24, 0x0E	; 14
    240e:	0e 94 d9 0a 	call	0x15b2	; 0x15b2 <DIO_Read>
    2412:	8a 83       	std	Y+2, r24	; 0x02

        if (Col_value== (0B11110000))
    2414:	8a 81       	ldd	r24, Y+2	; 0x02
    2416:	80 3f       	cpi	r24, 0xF0	; 240
    2418:	11 f4       	brne	.+4      	; 0x241e <KPD_Get_State+0x26>
        {
            State_busy = 0x00;
    241a:	19 82       	std	Y+1, r1	; 0x01
    241c:	02 c0       	rjmp	.+4      	; 0x2422 <KPD_Get_State+0x2a>
        }
        else
        {
            State_busy = 0xFF;
    241e:	8f ef       	ldi	r24, 0xFF	; 255
    2420:	89 83       	std	Y+1, r24	; 0x01
        }


    return State_busy;
    2422:	89 81       	ldd	r24, Y+1	; 0x01
}
    2424:	0f 90       	pop	r0
    2426:	0f 90       	pop	r0
    2428:	cf 91       	pop	r28
    242a:	df 91       	pop	r29
    242c:	08 95       	ret

0000242e <KPD_Debounce_Filter>:

u8 KPD_Debounce_Filter(void)
{
    242e:	df 93       	push	r29
    2430:	cf 93       	push	r28
    2432:	cd b7       	in	r28, 0x3d	; 61
    2434:	de b7       	in	r29, 0x3e	; 62
    2436:	62 97       	sbiw	r28, 0x12	; 18
    2438:	0f b6       	in	r0, 0x3f	; 63
    243a:	f8 94       	cli
    243c:	de bf       	out	0x3e, r29	; 62
    243e:	0f be       	out	0x3f, r0	; 63
    2440:	cd bf       	out	0x3d, r28	; 61

    u8 Col_check1,Col_check2,Col_value;

    Col_check1=KPD_Get_State();
    2442:	0e 94 fc 11 	call	0x23f8	; 0x23f8 <KPD_Get_State>
    2446:	89 8b       	std	Y+17, r24	; 0x11
    if(Col_check1 != LOW)
    2448:	89 89       	ldd	r24, Y+17	; 0x11
    244a:	88 23       	and	r24, r24
    244c:	09 f4       	brne	.+2      	; 0x2450 <KPD_Debounce_Filter+0x22>
    244e:	7f c0       	rjmp	.+254    	; 0x254e <KPD_Debounce_Filter+0x120>
    2450:	80 e0       	ldi	r24, 0x00	; 0
    2452:	90 e0       	ldi	r25, 0x00	; 0
    2454:	a0 ea       	ldi	r26, 0xA0	; 160
    2456:	b1 e4       	ldi	r27, 0x41	; 65
    2458:	8b 87       	std	Y+11, r24	; 0x0b
    245a:	9c 87       	std	Y+12, r25	; 0x0c
    245c:	ad 87       	std	Y+13, r26	; 0x0d
    245e:	be 87       	std	Y+14, r27	; 0x0e
 */
void
_delay_ms(double __ms)
{
	uint16_t __ticks;
	double __tmp = ((F_CPU) / 4e3) * __ms;
    2460:	6b 85       	ldd	r22, Y+11	; 0x0b
    2462:	7c 85       	ldd	r23, Y+12	; 0x0c
    2464:	8d 85       	ldd	r24, Y+13	; 0x0d
    2466:	9e 85       	ldd	r25, Y+14	; 0x0e
    2468:	20 e0       	ldi	r18, 0x00	; 0
    246a:	30 e0       	ldi	r19, 0x00	; 0
    246c:	4a ef       	ldi	r20, 0xFA	; 250
    246e:	54 e4       	ldi	r21, 0x44	; 68
    2470:	0e 94 1f 02 	call	0x43e	; 0x43e <__mulsf3>
    2474:	dc 01       	movw	r26, r24
    2476:	cb 01       	movw	r24, r22
    2478:	8f 83       	std	Y+7, r24	; 0x07
    247a:	98 87       	std	Y+8, r25	; 0x08
    247c:	a9 87       	std	Y+9, r26	; 0x09
    247e:	ba 87       	std	Y+10, r27	; 0x0a
	if (__tmp < 1.0)
    2480:	6f 81       	ldd	r22, Y+7	; 0x07
    2482:	78 85       	ldd	r23, Y+8	; 0x08
    2484:	89 85       	ldd	r24, Y+9	; 0x09
    2486:	9a 85       	ldd	r25, Y+10	; 0x0a
    2488:	20 e0       	ldi	r18, 0x00	; 0
    248a:	30 e0       	ldi	r19, 0x00	; 0
    248c:	40 e8       	ldi	r20, 0x80	; 128
    248e:	5f e3       	ldi	r21, 0x3F	; 63
    2490:	0e 94 25 04 	call	0x84a	; 0x84a <__ltsf2>
    2494:	88 23       	and	r24, r24
    2496:	2c f4       	brge	.+10     	; 0x24a2 <KPD_Debounce_Filter+0x74>
		__ticks = 1;
    2498:	81 e0       	ldi	r24, 0x01	; 1
    249a:	90 e0       	ldi	r25, 0x00	; 0
    249c:	9e 83       	std	Y+6, r25	; 0x06
    249e:	8d 83       	std	Y+5, r24	; 0x05
    24a0:	3f c0       	rjmp	.+126    	; 0x2520 <KPD_Debounce_Filter+0xf2>
	else if (__tmp > 65535)
    24a2:	6f 81       	ldd	r22, Y+7	; 0x07
    24a4:	78 85       	ldd	r23, Y+8	; 0x08
    24a6:	89 85       	ldd	r24, Y+9	; 0x09
    24a8:	9a 85       	ldd	r25, Y+10	; 0x0a
    24aa:	20 e0       	ldi	r18, 0x00	; 0
    24ac:	3f ef       	ldi	r19, 0xFF	; 255
    24ae:	4f e7       	ldi	r20, 0x7F	; 127
    24b0:	57 e4       	ldi	r21, 0x47	; 71
    24b2:	0e 94 c5 03 	call	0x78a	; 0x78a <__gtsf2>
    24b6:	18 16       	cp	r1, r24
    24b8:	4c f5       	brge	.+82     	; 0x250c <KPD_Debounce_Filter+0xde>
	{
		//	__ticks = requested delay in 1/10 ms
		__ticks = (uint16_t) (__ms * 10.0);
    24ba:	6b 85       	ldd	r22, Y+11	; 0x0b
    24bc:	7c 85       	ldd	r23, Y+12	; 0x0c
    24be:	8d 85       	ldd	r24, Y+13	; 0x0d
    24c0:	9e 85       	ldd	r25, Y+14	; 0x0e
    24c2:	20 e0       	ldi	r18, 0x00	; 0
    24c4:	30 e0       	ldi	r19, 0x00	; 0
    24c6:	40 e2       	ldi	r20, 0x20	; 32
    24c8:	51 e4       	ldi	r21, 0x41	; 65
    24ca:	0e 94 1f 02 	call	0x43e	; 0x43e <__mulsf3>
    24ce:	dc 01       	movw	r26, r24
    24d0:	cb 01       	movw	r24, r22
    24d2:	bc 01       	movw	r22, r24
    24d4:	cd 01       	movw	r24, r26
    24d6:	0e 94 49 00 	call	0x92	; 0x92 <__fixunssfsi>
    24da:	dc 01       	movw	r26, r24
    24dc:	cb 01       	movw	r24, r22
    24de:	9e 83       	std	Y+6, r25	; 0x06
    24e0:	8d 83       	std	Y+5, r24	; 0x05
    24e2:	0f c0       	rjmp	.+30     	; 0x2502 <KPD_Debounce_Filter+0xd4>
    24e4:	88 ec       	ldi	r24, 0xC8	; 200
    24e6:	90 e0       	ldi	r25, 0x00	; 0
    24e8:	9c 83       	std	Y+4, r25	; 0x04
    24ea:	8b 83       	std	Y+3, r24	; 0x03
    milliseconds can be achieved.
 */
void
_delay_loop_2(uint16_t __count)
{
	__asm__ volatile (
    24ec:	8b 81       	ldd	r24, Y+3	; 0x03
    24ee:	9c 81       	ldd	r25, Y+4	; 0x04
    24f0:	01 97       	sbiw	r24, 0x01	; 1
    24f2:	f1 f7       	brne	.-4      	; 0x24f0 <KPD_Debounce_Filter+0xc2>
    24f4:	9c 83       	std	Y+4, r25	; 0x04
    24f6:	8b 83       	std	Y+3, r24	; 0x03
		while(__ticks)
		{
			// wait 1/10 ms
			_delay_loop_2(((F_CPU) / 4e3) / 10);
			__ticks --;
    24f8:	8d 81       	ldd	r24, Y+5	; 0x05
    24fa:	9e 81       	ldd	r25, Y+6	; 0x06
    24fc:	01 97       	sbiw	r24, 0x01	; 1
    24fe:	9e 83       	std	Y+6, r25	; 0x06
    2500:	8d 83       	std	Y+5, r24	; 0x05
		__ticks = 1;
	else if (__tmp > 65535)
	{
		//	__ticks = requested delay in 1/10 ms
		__ticks = (uint16_t) (__ms * 10.0);
		while(__ticks)
    2502:	8d 81       	ldd	r24, Y+5	; 0x05
    2504:	9e 81       	ldd	r25, Y+6	; 0x06
    2506:	00 97       	sbiw	r24, 0x00	; 0
    2508:	69 f7       	brne	.-38     	; 0x24e4 <KPD_Debounce_Filter+0xb6>
    250a:	14 c0       	rjmp	.+40     	; 0x2534 <KPD_Debounce_Filter+0x106>
			__ticks --;
		}
		return;
	}
	else
		__ticks = (uint16_t)__tmp;
    250c:	6f 81       	ldd	r22, Y+7	; 0x07
    250e:	78 85       	ldd	r23, Y+8	; 0x08
    2510:	89 85       	ldd	r24, Y+9	; 0x09
    2512:	9a 85       	ldd	r25, Y+10	; 0x0a
    2514:	0e 94 49 00 	call	0x92	; 0x92 <__fixunssfsi>
    2518:	dc 01       	movw	r26, r24
    251a:	cb 01       	movw	r24, r22
    251c:	9e 83       	std	Y+6, r25	; 0x06
    251e:	8d 83       	std	Y+5, r24	; 0x05
    2520:	8d 81       	ldd	r24, Y+5	; 0x05
    2522:	9e 81       	ldd	r25, Y+6	; 0x06
    2524:	9a 83       	std	Y+2, r25	; 0x02
    2526:	89 83       	std	Y+1, r24	; 0x01
    2528:	89 81       	ldd	r24, Y+1	; 0x01
    252a:	9a 81       	ldd	r25, Y+2	; 0x02
    252c:	01 97       	sbiw	r24, 0x01	; 1
    252e:	f1 f7       	brne	.-4      	; 0x252c <KPD_Debounce_Filter+0xfe>
    2530:	9a 83       	std	Y+2, r25	; 0x02
    2532:	89 83       	std	Y+1, r24	; 0x01
    {
        _delay_ms(20);
        Col_check2=KPD_Get_State();
    2534:	0e 94 fc 11 	call	0x23f8	; 0x23f8 <KPD_Get_State>
    2538:	88 8b       	std	Y+16, r24	; 0x10
        if(Col_check2 != LOW)
    253a:	88 89       	ldd	r24, Y+16	; 0x10
    253c:	88 23       	and	r24, r24
    253e:	49 f0       	breq	.+18     	; 0x2552 <KPD_Debounce_Filter+0x124>
        {
        	//LED1_Toggle();
            Col_value = DIO_Read(GRP_15_COL);
    2540:	8e e0       	ldi	r24, 0x0E	; 14
    2542:	0e 94 d9 0a 	call	0x15b2	; 0x15b2 <DIO_Read>
    2546:	8f 87       	std	Y+15, r24	; 0x0f
            return Col_value;
    2548:	8f 85       	ldd	r24, Y+15	; 0x0f
    254a:	8a 8b       	std	Y+18, r24	; 0x12
    254c:	04 c0       	rjmp	.+8      	; 0x2556 <KPD_Debounce_Filter+0x128>
        }
    }
    else
    {
    	 Col_value=0xff;
    254e:	8f ef       	ldi	r24, 0xFF	; 255
    2550:	8f 87       	std	Y+15, r24	; 0x0f
    }
    return Col_value;
    2552:	8f 85       	ldd	r24, Y+15	; 0x0f
    2554:	8a 8b       	std	Y+18, r24	; 0x12
    2556:	8a 89       	ldd	r24, Y+18	; 0x12
}
    2558:	62 96       	adiw	r28, 0x12	; 18
    255a:	0f b6       	in	r0, 0x3f	; 63
    255c:	f8 94       	cli
    255e:	de bf       	out	0x3e, r29	; 62
    2560:	0f be       	out	0x3f, r0	; 63
    2562:	cd bf       	out	0x3d, r28	; 61
    2564:	cf 91       	pop	r28
    2566:	df 91       	pop	r29
    2568:	08 95       	ret

0000256a <KPD_Scan>:

u8 KPD_Scan (void)
{
    256a:	df 93       	push	r29
    256c:	cf 93       	push	r28
    256e:	cd b7       	in	r28, 0x3d	; 61
    2570:	de b7       	in	r29, 0x3e	; 62
    2572:	a9 97       	sbiw	r28, 0x29	; 41
    2574:	0f b6       	in	r0, 0x3f	; 63
    2576:	f8 94       	cli
    2578:	de bf       	out	0x3e, r29	; 62
    257a:	0f be       	out	0x3f, r0	; 63
    257c:	cd bf       	out	0x3d, r28	; 61
	u8 Local_Col_val;
	u8 KPD_keyValue[]={'7','8','9','/','4','5','6','*','1','2','3','-','C','0','=','+'};
    257e:	9e 01       	movw	r18, r28
    2580:	2d 5e       	subi	r18, 0xED	; 237
    2582:	3f 4f       	sbci	r19, 0xFF	; 255
    2584:	3e a3       	std	Y+38, r19	; 0x26
    2586:	2d a3       	std	Y+37, r18	; 0x25
    2588:	84 e4       	ldi	r24, 0x44	; 68
    258a:	94 e0       	ldi	r25, 0x04	; 4
    258c:	98 a7       	std	Y+40, r25	; 0x28
    258e:	8f a3       	std	Y+39, r24	; 0x27
    2590:	90 e1       	ldi	r25, 0x10	; 16
    2592:	99 a7       	std	Y+41, r25	; 0x29
    2594:	ef a1       	ldd	r30, Y+39	; 0x27
    2596:	f8 a5       	ldd	r31, Y+40	; 0x28
    2598:	00 80       	ld	r0, Z
    259a:	2f a1       	ldd	r18, Y+39	; 0x27
    259c:	38 a5       	ldd	r19, Y+40	; 0x28
    259e:	2f 5f       	subi	r18, 0xFF	; 255
    25a0:	3f 4f       	sbci	r19, 0xFF	; 255
    25a2:	38 a7       	std	Y+40, r19	; 0x28
    25a4:	2f a3       	std	Y+39, r18	; 0x27
    25a6:	ed a1       	ldd	r30, Y+37	; 0x25
    25a8:	fe a1       	ldd	r31, Y+38	; 0x26
    25aa:	00 82       	st	Z, r0
    25ac:	2d a1       	ldd	r18, Y+37	; 0x25
    25ae:	3e a1       	ldd	r19, Y+38	; 0x26
    25b0:	2f 5f       	subi	r18, 0xFF	; 255
    25b2:	3f 4f       	sbci	r19, 0xFF	; 255
    25b4:	3e a3       	std	Y+38, r19	; 0x26
    25b6:	2d a3       	std	Y+37, r18	; 0x25
    25b8:	39 a5       	ldd	r19, Y+41	; 0x29
    25ba:	31 50       	subi	r19, 0x01	; 1
    25bc:	39 a7       	std	Y+41, r19	; 0x29
    25be:	89 a5       	ldd	r24, Y+41	; 0x29
    25c0:	88 23       	and	r24, r24
    25c2:	41 f7       	brne	.-48     	; 0x2594 <KPD_Scan+0x2a>
	u8 KPD_ReturnValue=0;
    25c4:	19 8a       	std	Y+17, r1	; 0x11

	int i;
	for(i=0 ; i< 4 ; i++)
    25c6:	18 8a       	std	Y+16, r1	; 0x10
    25c8:	1f 86       	std	Y+15, r1	; 0x0f
    25ca:	ea c0       	rjmp	.+468    	; 0x27a0 <KPD_Scan+0x236>
	{
		DIO_Write(~((0B0001<<KPD_ROW_PIN)<<i),GRP_14_ROW);
    25cc:	80 e1       	ldi	r24, 0x10	; 16
    25ce:	90 e0       	ldi	r25, 0x00	; 0
    25d0:	0f 84       	ldd	r0, Y+15	; 0x0f
    25d2:	02 c0       	rjmp	.+4      	; 0x25d8 <KPD_Scan+0x6e>
    25d4:	88 0f       	add	r24, r24
    25d6:	99 1f       	adc	r25, r25
    25d8:	0a 94       	dec	r0
    25da:	e2 f7       	brpl	.-8      	; 0x25d4 <KPD_Scan+0x6a>
    25dc:	80 95       	com	r24
    25de:	6d e0       	ldi	r22, 0x0D	; 13
    25e0:	0e 94 79 0a 	call	0x14f2	; 0x14f2 <DIO_Write>
    25e4:	80 e0       	ldi	r24, 0x00	; 0
    25e6:	90 e0       	ldi	r25, 0x00	; 0
    25e8:	a8 e4       	ldi	r26, 0x48	; 72
    25ea:	b2 e4       	ldi	r27, 0x42	; 66
    25ec:	8b 87       	std	Y+11, r24	; 0x0b
    25ee:	9c 87       	std	Y+12, r25	; 0x0c
    25f0:	ad 87       	std	Y+13, r26	; 0x0d
    25f2:	be 87       	std	Y+14, r27	; 0x0e
 */
void
_delay_ms(double __ms)
{
	uint16_t __ticks;
	double __tmp = ((F_CPU) / 4e3) * __ms;
    25f4:	6b 85       	ldd	r22, Y+11	; 0x0b
    25f6:	7c 85       	ldd	r23, Y+12	; 0x0c
    25f8:	8d 85       	ldd	r24, Y+13	; 0x0d
    25fa:	9e 85       	ldd	r25, Y+14	; 0x0e
    25fc:	20 e0       	ldi	r18, 0x00	; 0
    25fe:	30 e0       	ldi	r19, 0x00	; 0
    2600:	4a ef       	ldi	r20, 0xFA	; 250
    2602:	54 e4       	ldi	r21, 0x44	; 68
    2604:	0e 94 1f 02 	call	0x43e	; 0x43e <__mulsf3>
    2608:	dc 01       	movw	r26, r24
    260a:	cb 01       	movw	r24, r22
    260c:	8f 83       	std	Y+7, r24	; 0x07
    260e:	98 87       	std	Y+8, r25	; 0x08
    2610:	a9 87       	std	Y+9, r26	; 0x09
    2612:	ba 87       	std	Y+10, r27	; 0x0a
	if (__tmp < 1.0)
    2614:	6f 81       	ldd	r22, Y+7	; 0x07
    2616:	78 85       	ldd	r23, Y+8	; 0x08
    2618:	89 85       	ldd	r24, Y+9	; 0x09
    261a:	9a 85       	ldd	r25, Y+10	; 0x0a
    261c:	20 e0       	ldi	r18, 0x00	; 0
    261e:	30 e0       	ldi	r19, 0x00	; 0
    2620:	40 e8       	ldi	r20, 0x80	; 128
    2622:	5f e3       	ldi	r21, 0x3F	; 63
    2624:	0e 94 25 04 	call	0x84a	; 0x84a <__ltsf2>
    2628:	88 23       	and	r24, r24
    262a:	2c f4       	brge	.+10     	; 0x2636 <KPD_Scan+0xcc>
		__ticks = 1;
    262c:	81 e0       	ldi	r24, 0x01	; 1
    262e:	90 e0       	ldi	r25, 0x00	; 0
    2630:	9e 83       	std	Y+6, r25	; 0x06
    2632:	8d 83       	std	Y+5, r24	; 0x05
    2634:	3f c0       	rjmp	.+126    	; 0x26b4 <KPD_Scan+0x14a>
	else if (__tmp > 65535)
    2636:	6f 81       	ldd	r22, Y+7	; 0x07
    2638:	78 85       	ldd	r23, Y+8	; 0x08
    263a:	89 85       	ldd	r24, Y+9	; 0x09
    263c:	9a 85       	ldd	r25, Y+10	; 0x0a
    263e:	20 e0       	ldi	r18, 0x00	; 0
    2640:	3f ef       	ldi	r19, 0xFF	; 255
    2642:	4f e7       	ldi	r20, 0x7F	; 127
    2644:	57 e4       	ldi	r21, 0x47	; 71
    2646:	0e 94 c5 03 	call	0x78a	; 0x78a <__gtsf2>
    264a:	18 16       	cp	r1, r24
    264c:	4c f5       	brge	.+82     	; 0x26a0 <KPD_Scan+0x136>
	{
		//	__ticks = requested delay in 1/10 ms
		__ticks = (uint16_t) (__ms * 10.0);
    264e:	6b 85       	ldd	r22, Y+11	; 0x0b
    2650:	7c 85       	ldd	r23, Y+12	; 0x0c
    2652:	8d 85       	ldd	r24, Y+13	; 0x0d
    2654:	9e 85       	ldd	r25, Y+14	; 0x0e
    2656:	20 e0       	ldi	r18, 0x00	; 0
    2658:	30 e0       	ldi	r19, 0x00	; 0
    265a:	40 e2       	ldi	r20, 0x20	; 32
    265c:	51 e4       	ldi	r21, 0x41	; 65
    265e:	0e 94 1f 02 	call	0x43e	; 0x43e <__mulsf3>
    2662:	dc 01       	movw	r26, r24
    2664:	cb 01       	movw	r24, r22
    2666:	bc 01       	movw	r22, r24
    2668:	cd 01       	movw	r24, r26
    266a:	0e 94 49 00 	call	0x92	; 0x92 <__fixunssfsi>
    266e:	dc 01       	movw	r26, r24
    2670:	cb 01       	movw	r24, r22
    2672:	9e 83       	std	Y+6, r25	; 0x06
    2674:	8d 83       	std	Y+5, r24	; 0x05
    2676:	0f c0       	rjmp	.+30     	; 0x2696 <KPD_Scan+0x12c>
    2678:	88 ec       	ldi	r24, 0xC8	; 200
    267a:	90 e0       	ldi	r25, 0x00	; 0
    267c:	9c 83       	std	Y+4, r25	; 0x04
    267e:	8b 83       	std	Y+3, r24	; 0x03
    2680:	8b 81       	ldd	r24, Y+3	; 0x03
    2682:	9c 81       	ldd	r25, Y+4	; 0x04
    2684:	01 97       	sbiw	r24, 0x01	; 1
    2686:	f1 f7       	brne	.-4      	; 0x2684 <KPD_Scan+0x11a>
    2688:	9c 83       	std	Y+4, r25	; 0x04
    268a:	8b 83       	std	Y+3, r24	; 0x03
		while(__ticks)
		{
			// wait 1/10 ms
			_delay_loop_2(((F_CPU) / 4e3) / 10);
			__ticks --;
    268c:	8d 81       	ldd	r24, Y+5	; 0x05
    268e:	9e 81       	ldd	r25, Y+6	; 0x06
    2690:	01 97       	sbiw	r24, 0x01	; 1
    2692:	9e 83       	std	Y+6, r25	; 0x06
    2694:	8d 83       	std	Y+5, r24	; 0x05
		__ticks = 1;
	else if (__tmp > 65535)
	{
		//	__ticks = requested delay in 1/10 ms
		__ticks = (uint16_t) (__ms * 10.0);
		while(__ticks)
    2696:	8d 81       	ldd	r24, Y+5	; 0x05
    2698:	9e 81       	ldd	r25, Y+6	; 0x06
    269a:	00 97       	sbiw	r24, 0x00	; 0
    269c:	69 f7       	brne	.-38     	; 0x2678 <KPD_Scan+0x10e>
    269e:	14 c0       	rjmp	.+40     	; 0x26c8 <KPD_Scan+0x15e>
			__ticks --;
		}
		return;
	}
	else
		__ticks = (uint16_t)__tmp;
    26a0:	6f 81       	ldd	r22, Y+7	; 0x07
    26a2:	78 85       	ldd	r23, Y+8	; 0x08
    26a4:	89 85       	ldd	r24, Y+9	; 0x09
    26a6:	9a 85       	ldd	r25, Y+10	; 0x0a
    26a8:	0e 94 49 00 	call	0x92	; 0x92 <__fixunssfsi>
    26ac:	dc 01       	movw	r26, r24
    26ae:	cb 01       	movw	r24, r22
    26b0:	9e 83       	std	Y+6, r25	; 0x06
    26b2:	8d 83       	std	Y+5, r24	; 0x05
    26b4:	8d 81       	ldd	r24, Y+5	; 0x05
    26b6:	9e 81       	ldd	r25, Y+6	; 0x06
    26b8:	9a 83       	std	Y+2, r25	; 0x02
    26ba:	89 83       	std	Y+1, r24	; 0x01
    26bc:	89 81       	ldd	r24, Y+1	; 0x01
    26be:	9a 81       	ldd	r25, Y+2	; 0x02
    26c0:	01 97       	sbiw	r24, 0x01	; 1
    26c2:	f1 f7       	brne	.-4      	; 0x26c0 <KPD_Scan+0x156>
    26c4:	9a 83       	std	Y+2, r25	; 0x02
    26c6:	89 83       	std	Y+1, r24	; 0x01
		_delay_ms(50);
		Local_Col_val=DIO_Read(GRP_15_COL);
    26c8:	8e e0       	ldi	r24, 0x0E	; 14
    26ca:	0e 94 d9 0a 	call	0x15b2	; 0x15b2 <DIO_Read>
    26ce:	8a 8b       	std	Y+18, r24	; 0x12
		//Local_Col_val=KPD_Debounce_Filter();
		switch(Local_Col_val)
    26d0:	8a 89       	ldd	r24, Y+18	; 0x12
    26d2:	e8 2f       	mov	r30, r24
    26d4:	f0 e0       	ldi	r31, 0x00	; 0
    26d6:	fc a3       	std	Y+36, r31	; 0x24
    26d8:	eb a3       	std	Y+35, r30	; 0x23
    26da:	2b a1       	ldd	r18, Y+35	; 0x23
    26dc:	3c a1       	ldd	r19, Y+36	; 0x24
    26de:	20 3b       	cpi	r18, 0xB0	; 176
    26e0:	31 05       	cpc	r19, r1
    26e2:	b1 f1       	breq	.+108    	; 0x2750 <KPD_Scan+0x1e6>
    26e4:	8b a1       	ldd	r24, Y+35	; 0x23
    26e6:	9c a1       	ldd	r25, Y+36	; 0x24
    26e8:	81 3b       	cpi	r24, 0xB1	; 177
    26ea:	91 05       	cpc	r25, r1
    26ec:	34 f4       	brge	.+12     	; 0x26fa <KPD_Scan+0x190>
    26ee:	eb a1       	ldd	r30, Y+35	; 0x23
    26f0:	fc a1       	ldd	r31, Y+36	; 0x24
    26f2:	e0 37       	cpi	r30, 0x70	; 112
    26f4:	f1 05       	cpc	r31, r1
    26f6:	e1 f1       	breq	.+120    	; 0x2770 <KPD_Scan+0x206>
    26f8:	4b c0       	rjmp	.+150    	; 0x2790 <KPD_Scan+0x226>
    26fa:	2b a1       	ldd	r18, Y+35	; 0x23
    26fc:	3c a1       	ldd	r19, Y+36	; 0x24
    26fe:	20 3d       	cpi	r18, 0xD0	; 208
    2700:	31 05       	cpc	r19, r1
    2702:	a9 f0       	breq	.+42     	; 0x272e <KPD_Scan+0x1c4>
    2704:	8b a1       	ldd	r24, Y+35	; 0x23
    2706:	9c a1       	ldd	r25, Y+36	; 0x24
    2708:	80 3e       	cpi	r24, 0xE0	; 224
    270a:	91 05       	cpc	r25, r1
    270c:	09 f0       	breq	.+2      	; 0x2710 <KPD_Scan+0x1a6>
    270e:	40 c0       	rjmp	.+128    	; 0x2790 <KPD_Scan+0x226>
		{
			case (0B1110 <<KPD_COL_PIN):
			{
				KPD_ReturnValue = KPD_keyValue[0+(i*4)];
    2710:	8f 85       	ldd	r24, Y+15	; 0x0f
    2712:	98 89       	ldd	r25, Y+16	; 0x10
    2714:	9c 01       	movw	r18, r24
    2716:	22 0f       	add	r18, r18
    2718:	33 1f       	adc	r19, r19
    271a:	22 0f       	add	r18, r18
    271c:	33 1f       	adc	r19, r19
    271e:	ce 01       	movw	r24, r28
    2720:	43 96       	adiw	r24, 0x13	; 19
    2722:	fc 01       	movw	r30, r24
    2724:	e2 0f       	add	r30, r18
    2726:	f3 1f       	adc	r31, r19
    2728:	80 81       	ld	r24, Z
    272a:	89 8b       	std	Y+17, r24	; 0x11
    272c:	31 c0       	rjmp	.+98     	; 0x2790 <KPD_Scan+0x226>
				break;
			}
			case ( 0B1101<<KPD_COL_PIN):
			{
				KPD_ReturnValue = KPD_keyValue[1+(i*4)];
    272e:	8f 85       	ldd	r24, Y+15	; 0x0f
    2730:	98 89       	ldd	r25, Y+16	; 0x10
    2732:	88 0f       	add	r24, r24
    2734:	99 1f       	adc	r25, r25
    2736:	88 0f       	add	r24, r24
    2738:	99 1f       	adc	r25, r25
    273a:	9c 01       	movw	r18, r24
    273c:	2f 5f       	subi	r18, 0xFF	; 255
    273e:	3f 4f       	sbci	r19, 0xFF	; 255
    2740:	ce 01       	movw	r24, r28
    2742:	43 96       	adiw	r24, 0x13	; 19
    2744:	fc 01       	movw	r30, r24
    2746:	e2 0f       	add	r30, r18
    2748:	f3 1f       	adc	r31, r19
    274a:	80 81       	ld	r24, Z
    274c:	89 8b       	std	Y+17, r24	; 0x11
    274e:	20 c0       	rjmp	.+64     	; 0x2790 <KPD_Scan+0x226>
				break;
			}
			case (0B1011<<KPD_COL_PIN):
			{
				KPD_ReturnValue = KPD_keyValue[2+(i*4)];
    2750:	8f 85       	ldd	r24, Y+15	; 0x0f
    2752:	98 89       	ldd	r25, Y+16	; 0x10
    2754:	88 0f       	add	r24, r24
    2756:	99 1f       	adc	r25, r25
    2758:	01 96       	adiw	r24, 0x01	; 1
    275a:	9c 01       	movw	r18, r24
    275c:	22 0f       	add	r18, r18
    275e:	33 1f       	adc	r19, r19
    2760:	ce 01       	movw	r24, r28
    2762:	43 96       	adiw	r24, 0x13	; 19
    2764:	fc 01       	movw	r30, r24
    2766:	e2 0f       	add	r30, r18
    2768:	f3 1f       	adc	r31, r19
    276a:	80 81       	ld	r24, Z
    276c:	89 8b       	std	Y+17, r24	; 0x11
    276e:	10 c0       	rjmp	.+32     	; 0x2790 <KPD_Scan+0x226>
				break;
			}
			case (0B0111 <<KPD_COL_PIN):
			{
				KPD_ReturnValue = KPD_keyValue[3+(i*4)];
    2770:	8f 85       	ldd	r24, Y+15	; 0x0f
    2772:	98 89       	ldd	r25, Y+16	; 0x10
    2774:	88 0f       	add	r24, r24
    2776:	99 1f       	adc	r25, r25
    2778:	88 0f       	add	r24, r24
    277a:	99 1f       	adc	r25, r25
    277c:	9c 01       	movw	r18, r24
    277e:	2d 5f       	subi	r18, 0xFD	; 253
    2780:	3f 4f       	sbci	r19, 0xFF	; 255
    2782:	ce 01       	movw	r24, r28
    2784:	43 96       	adiw	r24, 0x13	; 19
    2786:	fc 01       	movw	r30, r24
    2788:	e2 0f       	add	r30, r18
    278a:	f3 1f       	adc	r31, r19
    278c:	80 81       	ld	r24, Z
    278e:	89 8b       	std	Y+17, r24	; 0x11
			}
		}

		//DIO_Write((0B1111<<KPD_ROW_PIN),GRP_14_ROW);
		//_delay_ms(150);
		if(KPD_ReturnValue != 0)
    2790:	89 89       	ldd	r24, Y+17	; 0x11
    2792:	88 23       	and	r24, r24
    2794:	59 f4       	brne	.+22     	; 0x27ac <KPD_Scan+0x242>
	u8 Local_Col_val;
	u8 KPD_keyValue[]={'7','8','9','/','4','5','6','*','1','2','3','-','C','0','=','+'};
	u8 KPD_ReturnValue=0;

	int i;
	for(i=0 ; i< 4 ; i++)
    2796:	8f 85       	ldd	r24, Y+15	; 0x0f
    2798:	98 89       	ldd	r25, Y+16	; 0x10
    279a:	01 96       	adiw	r24, 0x01	; 1
    279c:	98 8b       	std	Y+16, r25	; 0x10
    279e:	8f 87       	std	Y+15, r24	; 0x0f
    27a0:	8f 85       	ldd	r24, Y+15	; 0x0f
    27a2:	98 89       	ldd	r25, Y+16	; 0x10
    27a4:	84 30       	cpi	r24, 0x04	; 4
    27a6:	91 05       	cpc	r25, r1
    27a8:	0c f4       	brge	.+2      	; 0x27ac <KPD_Scan+0x242>
    27aa:	10 cf       	rjmp	.-480    	; 0x25cc <KPD_Scan+0x62>
		//DIO_Write((0B1111<<KPD_ROW_PIN),GRP_14_ROW);
		//_delay_ms(150);
		if(KPD_ReturnValue != 0)
			break;
	}
	return KPD_ReturnValue;
    27ac:	89 89       	ldd	r24, Y+17	; 0x11
}
    27ae:	a9 96       	adiw	r28, 0x29	; 41
    27b0:	0f b6       	in	r0, 0x3f	; 63
    27b2:	f8 94       	cli
    27b4:	de bf       	out	0x3e, r29	; 62
    27b6:	0f be       	out	0x3f, r0	; 63
    27b8:	cd bf       	out	0x3d, r28	; 61
    27ba:	cf 91       	pop	r28
    27bc:	df 91       	pop	r29
    27be:	08 95       	ret

000027c0 <LCD_busy>:

//void LCD_void_SendCMD(u8 order);
//void LCD_void_SendData(u8 data_byte);

void LCD_busy(void)
{
    27c0:	df 93       	push	r29
    27c2:	cf 93       	push	r28
    27c4:	cd b7       	in	r28, 0x3d	; 61
    27c6:	de b7       	in	r29, 0x3e	; 62
    CLR_BIT(DDR(DIO_groups[DATA_GP].port_id) , LCD_PIN_SHIFT) ;
    27c8:	80 91 f0 03 	lds	r24, 0x03F0
    27cc:	88 2f       	mov	r24, r24
    27ce:	90 e0       	ldi	r25, 0x00	; 0
    27d0:	88 0f       	add	r24, r24
    27d2:	99 1f       	adc	r25, r25
    27d4:	88 0f       	add	r24, r24
    27d6:	99 1f       	adc	r25, r25
    27d8:	fc 01       	movw	r30, r24
    27da:	e7 56       	subi	r30, 0x67	; 103
    27dc:	fc 4f       	sbci	r31, 0xFC	; 252
    27de:	80 81       	ld	r24, Z
    27e0:	28 2f       	mov	r18, r24
    27e2:	30 e0       	ldi	r19, 0x00	; 0
    27e4:	c9 01       	movw	r24, r18
    27e6:	88 0f       	add	r24, r24
    27e8:	99 1f       	adc	r25, r25
    27ea:	82 0f       	add	r24, r18
    27ec:	93 1f       	adc	r25, r19
    27ee:	90 95       	com	r25
    27f0:	81 95       	neg	r24
    27f2:	9f 4f       	sbci	r25, 0xFF	; 255
    27f4:	dc 01       	movw	r26, r24
    27f6:	da 96       	adiw	r26, 0x3a	; 58
    27f8:	80 91 f0 03 	lds	r24, 0x03F0
    27fc:	88 2f       	mov	r24, r24
    27fe:	90 e0       	ldi	r25, 0x00	; 0
    2800:	88 0f       	add	r24, r24
    2802:	99 1f       	adc	r25, r25
    2804:	88 0f       	add	r24, r24
    2806:	99 1f       	adc	r25, r25
    2808:	fc 01       	movw	r30, r24
    280a:	e7 56       	subi	r30, 0x67	; 103
    280c:	fc 4f       	sbci	r31, 0xFC	; 252
    280e:	80 81       	ld	r24, Z
    2810:	28 2f       	mov	r18, r24
    2812:	30 e0       	ldi	r19, 0x00	; 0
    2814:	c9 01       	movw	r24, r18
    2816:	88 0f       	add	r24, r24
    2818:	99 1f       	adc	r25, r25
    281a:	82 0f       	add	r24, r18
    281c:	93 1f       	adc	r25, r19
    281e:	90 95       	com	r25
    2820:	81 95       	neg	r24
    2822:	9f 4f       	sbci	r25, 0xFF	; 255
    2824:	fc 01       	movw	r30, r24
    2826:	fa 96       	adiw	r30, 0x3a	; 58
    2828:	80 81       	ld	r24, Z
    282a:	8f 7e       	andi	r24, 0xEF	; 239
    282c:	8c 93       	st	X, r24
    //while(GET_BIT(PORT(DIO_groups[DATA_GP].port_id) ,LCD_PIN_SHIFT ) );

    DIO_Write(0X00,EN_GP);
    282e:	90 91 ed 03 	lds	r25, 0x03ED
    2832:	80 e0       	ldi	r24, 0x00	; 0
    2834:	69 2f       	mov	r22, r25
    2836:	0e 94 79 0a 	call	0x14f2	; 0x14f2 <DIO_Write>
    SET_BIT(DDR(DIO_groups[DATA_GP].port_id), LCD_PIN_SHIFT);
    283a:	80 91 f0 03 	lds	r24, 0x03F0
    283e:	88 2f       	mov	r24, r24
    2840:	90 e0       	ldi	r25, 0x00	; 0
    2842:	88 0f       	add	r24, r24
    2844:	99 1f       	adc	r25, r25
    2846:	88 0f       	add	r24, r24
    2848:	99 1f       	adc	r25, r25
    284a:	fc 01       	movw	r30, r24
    284c:	e7 56       	subi	r30, 0x67	; 103
    284e:	fc 4f       	sbci	r31, 0xFC	; 252
    2850:	80 81       	ld	r24, Z
    2852:	28 2f       	mov	r18, r24
    2854:	30 e0       	ldi	r19, 0x00	; 0
    2856:	c9 01       	movw	r24, r18
    2858:	88 0f       	add	r24, r24
    285a:	99 1f       	adc	r25, r25
    285c:	82 0f       	add	r24, r18
    285e:	93 1f       	adc	r25, r19
    2860:	90 95       	com	r25
    2862:	81 95       	neg	r24
    2864:	9f 4f       	sbci	r25, 0xFF	; 255
    2866:	dc 01       	movw	r26, r24
    2868:	da 96       	adiw	r26, 0x3a	; 58
    286a:	80 91 f0 03 	lds	r24, 0x03F0
    286e:	88 2f       	mov	r24, r24
    2870:	90 e0       	ldi	r25, 0x00	; 0
    2872:	88 0f       	add	r24, r24
    2874:	99 1f       	adc	r25, r25
    2876:	88 0f       	add	r24, r24
    2878:	99 1f       	adc	r25, r25
    287a:	fc 01       	movw	r30, r24
    287c:	e7 56       	subi	r30, 0x67	; 103
    287e:	fc 4f       	sbci	r31, 0xFC	; 252
    2880:	80 81       	ld	r24, Z
    2882:	28 2f       	mov	r18, r24
    2884:	30 e0       	ldi	r19, 0x00	; 0
    2886:	c9 01       	movw	r24, r18
    2888:	88 0f       	add	r24, r24
    288a:	99 1f       	adc	r25, r25
    288c:	82 0f       	add	r24, r18
    288e:	93 1f       	adc	r25, r19
    2890:	90 95       	com	r25
    2892:	81 95       	neg	r24
    2894:	9f 4f       	sbci	r25, 0xFF	; 255
    2896:	fc 01       	movw	r30, r24
    2898:	fa 96       	adiw	r30, 0x3a	; 58
    289a:	80 81       	ld	r24, Z
    289c:	80 61       	ori	r24, 0x10	; 16
    289e:	8c 93       	st	X, r24

}
    28a0:	cf 91       	pop	r28
    28a2:	df 91       	pop	r29
    28a4:	08 95       	ret

000028a6 <LCD_void_CMD>:
void LCD_void_CMD(u8 order)
{
    28a6:	df 93       	push	r29
    28a8:	cf 93       	push	r28
    28aa:	cd b7       	in	r28, 0x3d	; 61
    28ac:	de b7       	in	r29, 0x3e	; 62
    28ae:	e9 97       	sbiw	r28, 0x39	; 57
    28b0:	0f b6       	in	r0, 0x3f	; 63
    28b2:	f8 94       	cli
    28b4:	de bf       	out	0x3e, r29	; 62
    28b6:	0f be       	out	0x3f, r0	; 63
    28b8:	cd bf       	out	0x3d, r28	; 61
    28ba:	89 af       	std	Y+57, r24	; 0x39
	LCD_busy();
    28bc:	0e 94 e0 13 	call	0x27c0	; 0x27c0 <LCD_busy>
	DIO_Write(0X00,RS_GP);
    28c0:	90 91 ef 03 	lds	r25, 0x03EF
    28c4:	80 e0       	ldi	r24, 0x00	; 0
    28c6:	69 2f       	mov	r22, r25
    28c8:	0e 94 79 0a 	call	0x14f2	; 0x14f2 <DIO_Write>
	DIO_Write(0X00,RW_GP);
    28cc:	90 91 ee 03 	lds	r25, 0x03EE
    28d0:	80 e0       	ldi	r24, 0x00	; 0
    28d2:	69 2f       	mov	r22, r25
    28d4:	0e 94 79 0a 	call	0x14f2	; 0x14f2 <DIO_Write>
	DIO_Write((order),DATA_GP);
    28d8:	90 91 f0 03 	lds	r25, 0x03F0
    28dc:	89 ad       	ldd	r24, Y+57	; 0x39
    28de:	69 2f       	mov	r22, r25
    28e0:	0e 94 79 0a 	call	0x14f2	; 0x14f2 <DIO_Write>
	DIO_Write(0XFF,EN_GP);
    28e4:	90 91 ed 03 	lds	r25, 0x03ED
    28e8:	8f ef       	ldi	r24, 0xFF	; 255
    28ea:	69 2f       	mov	r22, r25
    28ec:	0e 94 79 0a 	call	0x14f2	; 0x14f2 <DIO_Write>
    28f0:	80 e0       	ldi	r24, 0x00	; 0
    28f2:	90 e0       	ldi	r25, 0x00	; 0
    28f4:	a0 e8       	ldi	r26, 0x80	; 128
    28f6:	bf e3       	ldi	r27, 0x3F	; 63
    28f8:	8d ab       	std	Y+53, r24	; 0x35
    28fa:	9e ab       	std	Y+54, r25	; 0x36
    28fc:	af ab       	std	Y+55, r26	; 0x37
    28fe:	b8 af       	std	Y+56, r27	; 0x38
 */
void
_delay_ms(double __ms)
{
	uint16_t __ticks;
	double __tmp = ((F_CPU) / 4e3) * __ms;
    2900:	6d a9       	ldd	r22, Y+53	; 0x35
    2902:	7e a9       	ldd	r23, Y+54	; 0x36
    2904:	8f a9       	ldd	r24, Y+55	; 0x37
    2906:	98 ad       	ldd	r25, Y+56	; 0x38
    2908:	20 e0       	ldi	r18, 0x00	; 0
    290a:	30 e0       	ldi	r19, 0x00	; 0
    290c:	4a ef       	ldi	r20, 0xFA	; 250
    290e:	54 e4       	ldi	r21, 0x44	; 68
    2910:	0e 94 1f 02 	call	0x43e	; 0x43e <__mulsf3>
    2914:	dc 01       	movw	r26, r24
    2916:	cb 01       	movw	r24, r22
    2918:	89 ab       	std	Y+49, r24	; 0x31
    291a:	9a ab       	std	Y+50, r25	; 0x32
    291c:	ab ab       	std	Y+51, r26	; 0x33
    291e:	bc ab       	std	Y+52, r27	; 0x34
	if (__tmp < 1.0)
    2920:	69 a9       	ldd	r22, Y+49	; 0x31
    2922:	7a a9       	ldd	r23, Y+50	; 0x32
    2924:	8b a9       	ldd	r24, Y+51	; 0x33
    2926:	9c a9       	ldd	r25, Y+52	; 0x34
    2928:	20 e0       	ldi	r18, 0x00	; 0
    292a:	30 e0       	ldi	r19, 0x00	; 0
    292c:	40 e8       	ldi	r20, 0x80	; 128
    292e:	5f e3       	ldi	r21, 0x3F	; 63
    2930:	0e 94 25 04 	call	0x84a	; 0x84a <__ltsf2>
    2934:	88 23       	and	r24, r24
    2936:	2c f4       	brge	.+10     	; 0x2942 <LCD_void_CMD+0x9c>
		__ticks = 1;
    2938:	81 e0       	ldi	r24, 0x01	; 1
    293a:	90 e0       	ldi	r25, 0x00	; 0
    293c:	98 ab       	std	Y+48, r25	; 0x30
    293e:	8f a7       	std	Y+47, r24	; 0x2f
    2940:	3f c0       	rjmp	.+126    	; 0x29c0 <LCD_void_CMD+0x11a>
	else if (__tmp > 65535)
    2942:	69 a9       	ldd	r22, Y+49	; 0x31
    2944:	7a a9       	ldd	r23, Y+50	; 0x32
    2946:	8b a9       	ldd	r24, Y+51	; 0x33
    2948:	9c a9       	ldd	r25, Y+52	; 0x34
    294a:	20 e0       	ldi	r18, 0x00	; 0
    294c:	3f ef       	ldi	r19, 0xFF	; 255
    294e:	4f e7       	ldi	r20, 0x7F	; 127
    2950:	57 e4       	ldi	r21, 0x47	; 71
    2952:	0e 94 c5 03 	call	0x78a	; 0x78a <__gtsf2>
    2956:	18 16       	cp	r1, r24
    2958:	4c f5       	brge	.+82     	; 0x29ac <LCD_void_CMD+0x106>
	{
		//	__ticks = requested delay in 1/10 ms
		__ticks = (uint16_t) (__ms * 10.0);
    295a:	6d a9       	ldd	r22, Y+53	; 0x35
    295c:	7e a9       	ldd	r23, Y+54	; 0x36
    295e:	8f a9       	ldd	r24, Y+55	; 0x37
    2960:	98 ad       	ldd	r25, Y+56	; 0x38
    2962:	20 e0       	ldi	r18, 0x00	; 0
    2964:	30 e0       	ldi	r19, 0x00	; 0
    2966:	40 e2       	ldi	r20, 0x20	; 32
    2968:	51 e4       	ldi	r21, 0x41	; 65
    296a:	0e 94 1f 02 	call	0x43e	; 0x43e <__mulsf3>
    296e:	dc 01       	movw	r26, r24
    2970:	cb 01       	movw	r24, r22
    2972:	bc 01       	movw	r22, r24
    2974:	cd 01       	movw	r24, r26
    2976:	0e 94 49 00 	call	0x92	; 0x92 <__fixunssfsi>
    297a:	dc 01       	movw	r26, r24
    297c:	cb 01       	movw	r24, r22
    297e:	98 ab       	std	Y+48, r25	; 0x30
    2980:	8f a7       	std	Y+47, r24	; 0x2f
    2982:	0f c0       	rjmp	.+30     	; 0x29a2 <LCD_void_CMD+0xfc>
    2984:	88 ec       	ldi	r24, 0xC8	; 200
    2986:	90 e0       	ldi	r25, 0x00	; 0
    2988:	9e a7       	std	Y+46, r25	; 0x2e
    298a:	8d a7       	std	Y+45, r24	; 0x2d
    298c:	8d a5       	ldd	r24, Y+45	; 0x2d
    298e:	9e a5       	ldd	r25, Y+46	; 0x2e
    2990:	01 97       	sbiw	r24, 0x01	; 1
    2992:	f1 f7       	brne	.-4      	; 0x2990 <LCD_void_CMD+0xea>
    2994:	9e a7       	std	Y+46, r25	; 0x2e
    2996:	8d a7       	std	Y+45, r24	; 0x2d
		while(__ticks)
		{
			// wait 1/10 ms
			_delay_loop_2(((F_CPU) / 4e3) / 10);
			__ticks --;
    2998:	8f a5       	ldd	r24, Y+47	; 0x2f
    299a:	98 a9       	ldd	r25, Y+48	; 0x30
    299c:	01 97       	sbiw	r24, 0x01	; 1
    299e:	98 ab       	std	Y+48, r25	; 0x30
    29a0:	8f a7       	std	Y+47, r24	; 0x2f
		__ticks = 1;
	else if (__tmp > 65535)
	{
		//	__ticks = requested delay in 1/10 ms
		__ticks = (uint16_t) (__ms * 10.0);
		while(__ticks)
    29a2:	8f a5       	ldd	r24, Y+47	; 0x2f
    29a4:	98 a9       	ldd	r25, Y+48	; 0x30
    29a6:	00 97       	sbiw	r24, 0x00	; 0
    29a8:	69 f7       	brne	.-38     	; 0x2984 <LCD_void_CMD+0xde>
    29aa:	14 c0       	rjmp	.+40     	; 0x29d4 <LCD_void_CMD+0x12e>
			__ticks --;
		}
		return;
	}
	else
		__ticks = (uint16_t)__tmp;
    29ac:	69 a9       	ldd	r22, Y+49	; 0x31
    29ae:	7a a9       	ldd	r23, Y+50	; 0x32
    29b0:	8b a9       	ldd	r24, Y+51	; 0x33
    29b2:	9c a9       	ldd	r25, Y+52	; 0x34
    29b4:	0e 94 49 00 	call	0x92	; 0x92 <__fixunssfsi>
    29b8:	dc 01       	movw	r26, r24
    29ba:	cb 01       	movw	r24, r22
    29bc:	98 ab       	std	Y+48, r25	; 0x30
    29be:	8f a7       	std	Y+47, r24	; 0x2f
    29c0:	8f a5       	ldd	r24, Y+47	; 0x2f
    29c2:	98 a9       	ldd	r25, Y+48	; 0x30
    29c4:	9c a7       	std	Y+44, r25	; 0x2c
    29c6:	8b a7       	std	Y+43, r24	; 0x2b
    29c8:	8b a5       	ldd	r24, Y+43	; 0x2b
    29ca:	9c a5       	ldd	r25, Y+44	; 0x2c
    29cc:	01 97       	sbiw	r24, 0x01	; 1
    29ce:	f1 f7       	brne	.-4      	; 0x29cc <LCD_void_CMD+0x126>
    29d0:	9c a7       	std	Y+44, r25	; 0x2c
    29d2:	8b a7       	std	Y+43, r24	; 0x2b
	_delay_ms(1);
	DIO_Write(0X00,EN_GP);
    29d4:	90 91 ed 03 	lds	r25, 0x03ED
    29d8:	80 e0       	ldi	r24, 0x00	; 0
    29da:	69 2f       	mov	r22, r25
    29dc:	0e 94 79 0a 	call	0x14f2	; 0x14f2 <DIO_Write>
    29e0:	80 e0       	ldi	r24, 0x00	; 0
    29e2:	90 e0       	ldi	r25, 0x00	; 0
    29e4:	a0 e0       	ldi	r26, 0x00	; 0
    29e6:	b0 e4       	ldi	r27, 0x40	; 64
    29e8:	8f a3       	std	Y+39, r24	; 0x27
    29ea:	98 a7       	std	Y+40, r25	; 0x28
    29ec:	a9 a7       	std	Y+41, r26	; 0x29
    29ee:	ba a7       	std	Y+42, r27	; 0x2a
 */
void
_delay_ms(double __ms)
{
	uint16_t __ticks;
	double __tmp = ((F_CPU) / 4e3) * __ms;
    29f0:	6f a1       	ldd	r22, Y+39	; 0x27
    29f2:	78 a5       	ldd	r23, Y+40	; 0x28
    29f4:	89 a5       	ldd	r24, Y+41	; 0x29
    29f6:	9a a5       	ldd	r25, Y+42	; 0x2a
    29f8:	20 e0       	ldi	r18, 0x00	; 0
    29fa:	30 e0       	ldi	r19, 0x00	; 0
    29fc:	4a ef       	ldi	r20, 0xFA	; 250
    29fe:	54 e4       	ldi	r21, 0x44	; 68
    2a00:	0e 94 1f 02 	call	0x43e	; 0x43e <__mulsf3>
    2a04:	dc 01       	movw	r26, r24
    2a06:	cb 01       	movw	r24, r22
    2a08:	8b a3       	std	Y+35, r24	; 0x23
    2a0a:	9c a3       	std	Y+36, r25	; 0x24
    2a0c:	ad a3       	std	Y+37, r26	; 0x25
    2a0e:	be a3       	std	Y+38, r27	; 0x26
	if (__tmp < 1.0)
    2a10:	6b a1       	ldd	r22, Y+35	; 0x23
    2a12:	7c a1       	ldd	r23, Y+36	; 0x24
    2a14:	8d a1       	ldd	r24, Y+37	; 0x25
    2a16:	9e a1       	ldd	r25, Y+38	; 0x26
    2a18:	20 e0       	ldi	r18, 0x00	; 0
    2a1a:	30 e0       	ldi	r19, 0x00	; 0
    2a1c:	40 e8       	ldi	r20, 0x80	; 128
    2a1e:	5f e3       	ldi	r21, 0x3F	; 63
    2a20:	0e 94 25 04 	call	0x84a	; 0x84a <__ltsf2>
    2a24:	88 23       	and	r24, r24
    2a26:	2c f4       	brge	.+10     	; 0x2a32 <LCD_void_CMD+0x18c>
		__ticks = 1;
    2a28:	81 e0       	ldi	r24, 0x01	; 1
    2a2a:	90 e0       	ldi	r25, 0x00	; 0
    2a2c:	9a a3       	std	Y+34, r25	; 0x22
    2a2e:	89 a3       	std	Y+33, r24	; 0x21
    2a30:	3f c0       	rjmp	.+126    	; 0x2ab0 <LCD_void_CMD+0x20a>
	else if (__tmp > 65535)
    2a32:	6b a1       	ldd	r22, Y+35	; 0x23
    2a34:	7c a1       	ldd	r23, Y+36	; 0x24
    2a36:	8d a1       	ldd	r24, Y+37	; 0x25
    2a38:	9e a1       	ldd	r25, Y+38	; 0x26
    2a3a:	20 e0       	ldi	r18, 0x00	; 0
    2a3c:	3f ef       	ldi	r19, 0xFF	; 255
    2a3e:	4f e7       	ldi	r20, 0x7F	; 127
    2a40:	57 e4       	ldi	r21, 0x47	; 71
    2a42:	0e 94 c5 03 	call	0x78a	; 0x78a <__gtsf2>
    2a46:	18 16       	cp	r1, r24
    2a48:	4c f5       	brge	.+82     	; 0x2a9c <LCD_void_CMD+0x1f6>
	{
		//	__ticks = requested delay in 1/10 ms
		__ticks = (uint16_t) (__ms * 10.0);
    2a4a:	6f a1       	ldd	r22, Y+39	; 0x27
    2a4c:	78 a5       	ldd	r23, Y+40	; 0x28
    2a4e:	89 a5       	ldd	r24, Y+41	; 0x29
    2a50:	9a a5       	ldd	r25, Y+42	; 0x2a
    2a52:	20 e0       	ldi	r18, 0x00	; 0
    2a54:	30 e0       	ldi	r19, 0x00	; 0
    2a56:	40 e2       	ldi	r20, 0x20	; 32
    2a58:	51 e4       	ldi	r21, 0x41	; 65
    2a5a:	0e 94 1f 02 	call	0x43e	; 0x43e <__mulsf3>
    2a5e:	dc 01       	movw	r26, r24
    2a60:	cb 01       	movw	r24, r22
    2a62:	bc 01       	movw	r22, r24
    2a64:	cd 01       	movw	r24, r26
    2a66:	0e 94 49 00 	call	0x92	; 0x92 <__fixunssfsi>
    2a6a:	dc 01       	movw	r26, r24
    2a6c:	cb 01       	movw	r24, r22
    2a6e:	9a a3       	std	Y+34, r25	; 0x22
    2a70:	89 a3       	std	Y+33, r24	; 0x21
    2a72:	0f c0       	rjmp	.+30     	; 0x2a92 <LCD_void_CMD+0x1ec>
    2a74:	88 ec       	ldi	r24, 0xC8	; 200
    2a76:	90 e0       	ldi	r25, 0x00	; 0
    2a78:	98 a3       	std	Y+32, r25	; 0x20
    2a7a:	8f 8f       	std	Y+31, r24	; 0x1f
    2a7c:	8f 8d       	ldd	r24, Y+31	; 0x1f
    2a7e:	98 a1       	ldd	r25, Y+32	; 0x20
    2a80:	01 97       	sbiw	r24, 0x01	; 1
    2a82:	f1 f7       	brne	.-4      	; 0x2a80 <LCD_void_CMD+0x1da>
    2a84:	98 a3       	std	Y+32, r25	; 0x20
    2a86:	8f 8f       	std	Y+31, r24	; 0x1f
		while(__ticks)
		{
			// wait 1/10 ms
			_delay_loop_2(((F_CPU) / 4e3) / 10);
			__ticks --;
    2a88:	89 a1       	ldd	r24, Y+33	; 0x21
    2a8a:	9a a1       	ldd	r25, Y+34	; 0x22
    2a8c:	01 97       	sbiw	r24, 0x01	; 1
    2a8e:	9a a3       	std	Y+34, r25	; 0x22
    2a90:	89 a3       	std	Y+33, r24	; 0x21
		__ticks = 1;
	else if (__tmp > 65535)
	{
		//	__ticks = requested delay in 1/10 ms
		__ticks = (uint16_t) (__ms * 10.0);
		while(__ticks)
    2a92:	89 a1       	ldd	r24, Y+33	; 0x21
    2a94:	9a a1       	ldd	r25, Y+34	; 0x22
    2a96:	00 97       	sbiw	r24, 0x00	; 0
    2a98:	69 f7       	brne	.-38     	; 0x2a74 <LCD_void_CMD+0x1ce>
    2a9a:	14 c0       	rjmp	.+40     	; 0x2ac4 <LCD_void_CMD+0x21e>
			__ticks --;
		}
		return;
	}
	else
		__ticks = (uint16_t)__tmp;
    2a9c:	6b a1       	ldd	r22, Y+35	; 0x23
    2a9e:	7c a1       	ldd	r23, Y+36	; 0x24
    2aa0:	8d a1       	ldd	r24, Y+37	; 0x25
    2aa2:	9e a1       	ldd	r25, Y+38	; 0x26
    2aa4:	0e 94 49 00 	call	0x92	; 0x92 <__fixunssfsi>
    2aa8:	dc 01       	movw	r26, r24
    2aaa:	cb 01       	movw	r24, r22
    2aac:	9a a3       	std	Y+34, r25	; 0x22
    2aae:	89 a3       	std	Y+33, r24	; 0x21
    2ab0:	89 a1       	ldd	r24, Y+33	; 0x21
    2ab2:	9a a1       	ldd	r25, Y+34	; 0x22
    2ab4:	9e 8f       	std	Y+30, r25	; 0x1e
    2ab6:	8d 8f       	std	Y+29, r24	; 0x1d
    2ab8:	8d 8d       	ldd	r24, Y+29	; 0x1d
    2aba:	9e 8d       	ldd	r25, Y+30	; 0x1e
    2abc:	01 97       	sbiw	r24, 0x01	; 1
    2abe:	f1 f7       	brne	.-4      	; 0x2abc <LCD_void_CMD+0x216>
    2ac0:	9e 8f       	std	Y+30, r25	; 0x1e
    2ac2:	8d 8f       	std	Y+29, r24	; 0x1d

	_delay_ms(2);

	DIO_Write((order<<LCD_PIN_SHIFT),DATA_GP);
    2ac4:	89 ad       	ldd	r24, Y+57	; 0x39
    2ac6:	82 95       	swap	r24
    2ac8:	80 7f       	andi	r24, 0xF0	; 240
    2aca:	90 91 f0 03 	lds	r25, 0x03F0
    2ace:	69 2f       	mov	r22, r25
    2ad0:	0e 94 79 0a 	call	0x14f2	; 0x14f2 <DIO_Write>
	DIO_Write(0XFF,EN_GP);
    2ad4:	90 91 ed 03 	lds	r25, 0x03ED
    2ad8:	8f ef       	ldi	r24, 0xFF	; 255
    2ada:	69 2f       	mov	r22, r25
    2adc:	0e 94 79 0a 	call	0x14f2	; 0x14f2 <DIO_Write>
    2ae0:	80 e0       	ldi	r24, 0x00	; 0
    2ae2:	90 e0       	ldi	r25, 0x00	; 0
    2ae4:	a0 e8       	ldi	r26, 0x80	; 128
    2ae6:	bf e3       	ldi	r27, 0x3F	; 63
    2ae8:	89 8f       	std	Y+25, r24	; 0x19
    2aea:	9a 8f       	std	Y+26, r25	; 0x1a
    2aec:	ab 8f       	std	Y+27, r26	; 0x1b
    2aee:	bc 8f       	std	Y+28, r27	; 0x1c
 */
void
_delay_ms(double __ms)
{
	uint16_t __ticks;
	double __tmp = ((F_CPU) / 4e3) * __ms;
    2af0:	69 8d       	ldd	r22, Y+25	; 0x19
    2af2:	7a 8d       	ldd	r23, Y+26	; 0x1a
    2af4:	8b 8d       	ldd	r24, Y+27	; 0x1b
    2af6:	9c 8d       	ldd	r25, Y+28	; 0x1c
    2af8:	20 e0       	ldi	r18, 0x00	; 0
    2afa:	30 e0       	ldi	r19, 0x00	; 0
    2afc:	4a ef       	ldi	r20, 0xFA	; 250
    2afe:	54 e4       	ldi	r21, 0x44	; 68
    2b00:	0e 94 1f 02 	call	0x43e	; 0x43e <__mulsf3>
    2b04:	dc 01       	movw	r26, r24
    2b06:	cb 01       	movw	r24, r22
    2b08:	8d 8b       	std	Y+21, r24	; 0x15
    2b0a:	9e 8b       	std	Y+22, r25	; 0x16
    2b0c:	af 8b       	std	Y+23, r26	; 0x17
    2b0e:	b8 8f       	std	Y+24, r27	; 0x18
	if (__tmp < 1.0)
    2b10:	6d 89       	ldd	r22, Y+21	; 0x15
    2b12:	7e 89       	ldd	r23, Y+22	; 0x16
    2b14:	8f 89       	ldd	r24, Y+23	; 0x17
    2b16:	98 8d       	ldd	r25, Y+24	; 0x18
    2b18:	20 e0       	ldi	r18, 0x00	; 0
    2b1a:	30 e0       	ldi	r19, 0x00	; 0
    2b1c:	40 e8       	ldi	r20, 0x80	; 128
    2b1e:	5f e3       	ldi	r21, 0x3F	; 63
    2b20:	0e 94 25 04 	call	0x84a	; 0x84a <__ltsf2>
    2b24:	88 23       	and	r24, r24
    2b26:	2c f4       	brge	.+10     	; 0x2b32 <LCD_void_CMD+0x28c>
		__ticks = 1;
    2b28:	81 e0       	ldi	r24, 0x01	; 1
    2b2a:	90 e0       	ldi	r25, 0x00	; 0
    2b2c:	9c 8b       	std	Y+20, r25	; 0x14
    2b2e:	8b 8b       	std	Y+19, r24	; 0x13
    2b30:	3f c0       	rjmp	.+126    	; 0x2bb0 <LCD_void_CMD+0x30a>
	else if (__tmp > 65535)
    2b32:	6d 89       	ldd	r22, Y+21	; 0x15
    2b34:	7e 89       	ldd	r23, Y+22	; 0x16
    2b36:	8f 89       	ldd	r24, Y+23	; 0x17
    2b38:	98 8d       	ldd	r25, Y+24	; 0x18
    2b3a:	20 e0       	ldi	r18, 0x00	; 0
    2b3c:	3f ef       	ldi	r19, 0xFF	; 255
    2b3e:	4f e7       	ldi	r20, 0x7F	; 127
    2b40:	57 e4       	ldi	r21, 0x47	; 71
    2b42:	0e 94 c5 03 	call	0x78a	; 0x78a <__gtsf2>
    2b46:	18 16       	cp	r1, r24
    2b48:	4c f5       	brge	.+82     	; 0x2b9c <LCD_void_CMD+0x2f6>
	{
		//	__ticks = requested delay in 1/10 ms
		__ticks = (uint16_t) (__ms * 10.0);
    2b4a:	69 8d       	ldd	r22, Y+25	; 0x19
    2b4c:	7a 8d       	ldd	r23, Y+26	; 0x1a
    2b4e:	8b 8d       	ldd	r24, Y+27	; 0x1b
    2b50:	9c 8d       	ldd	r25, Y+28	; 0x1c
    2b52:	20 e0       	ldi	r18, 0x00	; 0
    2b54:	30 e0       	ldi	r19, 0x00	; 0
    2b56:	40 e2       	ldi	r20, 0x20	; 32
    2b58:	51 e4       	ldi	r21, 0x41	; 65
    2b5a:	0e 94 1f 02 	call	0x43e	; 0x43e <__mulsf3>
    2b5e:	dc 01       	movw	r26, r24
    2b60:	cb 01       	movw	r24, r22
    2b62:	bc 01       	movw	r22, r24
    2b64:	cd 01       	movw	r24, r26
    2b66:	0e 94 49 00 	call	0x92	; 0x92 <__fixunssfsi>
    2b6a:	dc 01       	movw	r26, r24
    2b6c:	cb 01       	movw	r24, r22
    2b6e:	9c 8b       	std	Y+20, r25	; 0x14
    2b70:	8b 8b       	std	Y+19, r24	; 0x13
    2b72:	0f c0       	rjmp	.+30     	; 0x2b92 <LCD_void_CMD+0x2ec>
    2b74:	88 ec       	ldi	r24, 0xC8	; 200
    2b76:	90 e0       	ldi	r25, 0x00	; 0
    2b78:	9a 8b       	std	Y+18, r25	; 0x12
    2b7a:	89 8b       	std	Y+17, r24	; 0x11
    2b7c:	89 89       	ldd	r24, Y+17	; 0x11
    2b7e:	9a 89       	ldd	r25, Y+18	; 0x12
    2b80:	01 97       	sbiw	r24, 0x01	; 1
    2b82:	f1 f7       	brne	.-4      	; 0x2b80 <LCD_void_CMD+0x2da>
    2b84:	9a 8b       	std	Y+18, r25	; 0x12
    2b86:	89 8b       	std	Y+17, r24	; 0x11
		while(__ticks)
		{
			// wait 1/10 ms
			_delay_loop_2(((F_CPU) / 4e3) / 10);
			__ticks --;
    2b88:	8b 89       	ldd	r24, Y+19	; 0x13
    2b8a:	9c 89       	ldd	r25, Y+20	; 0x14
    2b8c:	01 97       	sbiw	r24, 0x01	; 1
    2b8e:	9c 8b       	std	Y+20, r25	; 0x14
    2b90:	8b 8b       	std	Y+19, r24	; 0x13
		__ticks = 1;
	else if (__tmp > 65535)
	{
		//	__ticks = requested delay in 1/10 ms
		__ticks = (uint16_t) (__ms * 10.0);
		while(__ticks)
    2b92:	8b 89       	ldd	r24, Y+19	; 0x13
    2b94:	9c 89       	ldd	r25, Y+20	; 0x14
    2b96:	00 97       	sbiw	r24, 0x00	; 0
    2b98:	69 f7       	brne	.-38     	; 0x2b74 <LCD_void_CMD+0x2ce>
    2b9a:	14 c0       	rjmp	.+40     	; 0x2bc4 <LCD_void_CMD+0x31e>
			__ticks --;
		}
		return;
	}
	else
		__ticks = (uint16_t)__tmp;
    2b9c:	6d 89       	ldd	r22, Y+21	; 0x15
    2b9e:	7e 89       	ldd	r23, Y+22	; 0x16
    2ba0:	8f 89       	ldd	r24, Y+23	; 0x17
    2ba2:	98 8d       	ldd	r25, Y+24	; 0x18
    2ba4:	0e 94 49 00 	call	0x92	; 0x92 <__fixunssfsi>
    2ba8:	dc 01       	movw	r26, r24
    2baa:	cb 01       	movw	r24, r22
    2bac:	9c 8b       	std	Y+20, r25	; 0x14
    2bae:	8b 8b       	std	Y+19, r24	; 0x13
    2bb0:	8b 89       	ldd	r24, Y+19	; 0x13
    2bb2:	9c 89       	ldd	r25, Y+20	; 0x14
    2bb4:	98 8b       	std	Y+16, r25	; 0x10
    2bb6:	8f 87       	std	Y+15, r24	; 0x0f
    2bb8:	8f 85       	ldd	r24, Y+15	; 0x0f
    2bba:	98 89       	ldd	r25, Y+16	; 0x10
    2bbc:	01 97       	sbiw	r24, 0x01	; 1
    2bbe:	f1 f7       	brne	.-4      	; 0x2bbc <LCD_void_CMD+0x316>
    2bc0:	98 8b       	std	Y+16, r25	; 0x10
    2bc2:	8f 87       	std	Y+15, r24	; 0x0f
	_delay_ms(1);
	DIO_Write(0X00,EN_GP);
    2bc4:	90 91 ed 03 	lds	r25, 0x03ED
    2bc8:	80 e0       	ldi	r24, 0x00	; 0
    2bca:	69 2f       	mov	r22, r25
    2bcc:	0e 94 79 0a 	call	0x14f2	; 0x14f2 <DIO_Write>
    2bd0:	80 e0       	ldi	r24, 0x00	; 0
    2bd2:	90 e0       	ldi	r25, 0x00	; 0
    2bd4:	a0 e0       	ldi	r26, 0x00	; 0
    2bd6:	b0 e4       	ldi	r27, 0x40	; 64
    2bd8:	8b 87       	std	Y+11, r24	; 0x0b
    2bda:	9c 87       	std	Y+12, r25	; 0x0c
    2bdc:	ad 87       	std	Y+13, r26	; 0x0d
    2bde:	be 87       	std	Y+14, r27	; 0x0e
 */
void
_delay_ms(double __ms)
{
	uint16_t __ticks;
	double __tmp = ((F_CPU) / 4e3) * __ms;
    2be0:	6b 85       	ldd	r22, Y+11	; 0x0b
    2be2:	7c 85       	ldd	r23, Y+12	; 0x0c
    2be4:	8d 85       	ldd	r24, Y+13	; 0x0d
    2be6:	9e 85       	ldd	r25, Y+14	; 0x0e
    2be8:	20 e0       	ldi	r18, 0x00	; 0
    2bea:	30 e0       	ldi	r19, 0x00	; 0
    2bec:	4a ef       	ldi	r20, 0xFA	; 250
    2bee:	54 e4       	ldi	r21, 0x44	; 68
    2bf0:	0e 94 1f 02 	call	0x43e	; 0x43e <__mulsf3>
    2bf4:	dc 01       	movw	r26, r24
    2bf6:	cb 01       	movw	r24, r22
    2bf8:	8f 83       	std	Y+7, r24	; 0x07
    2bfa:	98 87       	std	Y+8, r25	; 0x08
    2bfc:	a9 87       	std	Y+9, r26	; 0x09
    2bfe:	ba 87       	std	Y+10, r27	; 0x0a
	if (__tmp < 1.0)
    2c00:	6f 81       	ldd	r22, Y+7	; 0x07
    2c02:	78 85       	ldd	r23, Y+8	; 0x08
    2c04:	89 85       	ldd	r24, Y+9	; 0x09
    2c06:	9a 85       	ldd	r25, Y+10	; 0x0a
    2c08:	20 e0       	ldi	r18, 0x00	; 0
    2c0a:	30 e0       	ldi	r19, 0x00	; 0
    2c0c:	40 e8       	ldi	r20, 0x80	; 128
    2c0e:	5f e3       	ldi	r21, 0x3F	; 63
    2c10:	0e 94 25 04 	call	0x84a	; 0x84a <__ltsf2>
    2c14:	88 23       	and	r24, r24
    2c16:	2c f4       	brge	.+10     	; 0x2c22 <LCD_void_CMD+0x37c>
		__ticks = 1;
    2c18:	81 e0       	ldi	r24, 0x01	; 1
    2c1a:	90 e0       	ldi	r25, 0x00	; 0
    2c1c:	9e 83       	std	Y+6, r25	; 0x06
    2c1e:	8d 83       	std	Y+5, r24	; 0x05
    2c20:	3f c0       	rjmp	.+126    	; 0x2ca0 <LCD_void_CMD+0x3fa>
	else if (__tmp > 65535)
    2c22:	6f 81       	ldd	r22, Y+7	; 0x07
    2c24:	78 85       	ldd	r23, Y+8	; 0x08
    2c26:	89 85       	ldd	r24, Y+9	; 0x09
    2c28:	9a 85       	ldd	r25, Y+10	; 0x0a
    2c2a:	20 e0       	ldi	r18, 0x00	; 0
    2c2c:	3f ef       	ldi	r19, 0xFF	; 255
    2c2e:	4f e7       	ldi	r20, 0x7F	; 127
    2c30:	57 e4       	ldi	r21, 0x47	; 71
    2c32:	0e 94 c5 03 	call	0x78a	; 0x78a <__gtsf2>
    2c36:	18 16       	cp	r1, r24
    2c38:	4c f5       	brge	.+82     	; 0x2c8c <LCD_void_CMD+0x3e6>
	{
		//	__ticks = requested delay in 1/10 ms
		__ticks = (uint16_t) (__ms * 10.0);
    2c3a:	6b 85       	ldd	r22, Y+11	; 0x0b
    2c3c:	7c 85       	ldd	r23, Y+12	; 0x0c
    2c3e:	8d 85       	ldd	r24, Y+13	; 0x0d
    2c40:	9e 85       	ldd	r25, Y+14	; 0x0e
    2c42:	20 e0       	ldi	r18, 0x00	; 0
    2c44:	30 e0       	ldi	r19, 0x00	; 0
    2c46:	40 e2       	ldi	r20, 0x20	; 32
    2c48:	51 e4       	ldi	r21, 0x41	; 65
    2c4a:	0e 94 1f 02 	call	0x43e	; 0x43e <__mulsf3>
    2c4e:	dc 01       	movw	r26, r24
    2c50:	cb 01       	movw	r24, r22
    2c52:	bc 01       	movw	r22, r24
    2c54:	cd 01       	movw	r24, r26
    2c56:	0e 94 49 00 	call	0x92	; 0x92 <__fixunssfsi>
    2c5a:	dc 01       	movw	r26, r24
    2c5c:	cb 01       	movw	r24, r22
    2c5e:	9e 83       	std	Y+6, r25	; 0x06
    2c60:	8d 83       	std	Y+5, r24	; 0x05
    2c62:	0f c0       	rjmp	.+30     	; 0x2c82 <LCD_void_CMD+0x3dc>
    2c64:	88 ec       	ldi	r24, 0xC8	; 200
    2c66:	90 e0       	ldi	r25, 0x00	; 0
    2c68:	9c 83       	std	Y+4, r25	; 0x04
    2c6a:	8b 83       	std	Y+3, r24	; 0x03
    2c6c:	8b 81       	ldd	r24, Y+3	; 0x03
    2c6e:	9c 81       	ldd	r25, Y+4	; 0x04
    2c70:	01 97       	sbiw	r24, 0x01	; 1
    2c72:	f1 f7       	brne	.-4      	; 0x2c70 <LCD_void_CMD+0x3ca>
    2c74:	9c 83       	std	Y+4, r25	; 0x04
    2c76:	8b 83       	std	Y+3, r24	; 0x03
		while(__ticks)
		{
			// wait 1/10 ms
			_delay_loop_2(((F_CPU) / 4e3) / 10);
			__ticks --;
    2c78:	8d 81       	ldd	r24, Y+5	; 0x05
    2c7a:	9e 81       	ldd	r25, Y+6	; 0x06
    2c7c:	01 97       	sbiw	r24, 0x01	; 1
    2c7e:	9e 83       	std	Y+6, r25	; 0x06
    2c80:	8d 83       	std	Y+5, r24	; 0x05
		__ticks = 1;
	else if (__tmp > 65535)
	{
		//	__ticks = requested delay in 1/10 ms
		__ticks = (uint16_t) (__ms * 10.0);
		while(__ticks)
    2c82:	8d 81       	ldd	r24, Y+5	; 0x05
    2c84:	9e 81       	ldd	r25, Y+6	; 0x06
    2c86:	00 97       	sbiw	r24, 0x00	; 0
    2c88:	69 f7       	brne	.-38     	; 0x2c64 <LCD_void_CMD+0x3be>
    2c8a:	14 c0       	rjmp	.+40     	; 0x2cb4 <LCD_void_CMD+0x40e>
			__ticks --;
		}
		return;
	}
	else
		__ticks = (uint16_t)__tmp;
    2c8c:	6f 81       	ldd	r22, Y+7	; 0x07
    2c8e:	78 85       	ldd	r23, Y+8	; 0x08
    2c90:	89 85       	ldd	r24, Y+9	; 0x09
    2c92:	9a 85       	ldd	r25, Y+10	; 0x0a
    2c94:	0e 94 49 00 	call	0x92	; 0x92 <__fixunssfsi>
    2c98:	dc 01       	movw	r26, r24
    2c9a:	cb 01       	movw	r24, r22
    2c9c:	9e 83       	std	Y+6, r25	; 0x06
    2c9e:	8d 83       	std	Y+5, r24	; 0x05
    2ca0:	8d 81       	ldd	r24, Y+5	; 0x05
    2ca2:	9e 81       	ldd	r25, Y+6	; 0x06
    2ca4:	9a 83       	std	Y+2, r25	; 0x02
    2ca6:	89 83       	std	Y+1, r24	; 0x01
    2ca8:	89 81       	ldd	r24, Y+1	; 0x01
    2caa:	9a 81       	ldd	r25, Y+2	; 0x02
    2cac:	01 97       	sbiw	r24, 0x01	; 1
    2cae:	f1 f7       	brne	.-4      	; 0x2cac <LCD_void_CMD+0x406>
    2cb0:	9a 83       	std	Y+2, r25	; 0x02
    2cb2:	89 83       	std	Y+1, r24	; 0x01

	_delay_ms(2);
}
    2cb4:	e9 96       	adiw	r28, 0x39	; 57
    2cb6:	0f b6       	in	r0, 0x3f	; 63
    2cb8:	f8 94       	cli
    2cba:	de bf       	out	0x3e, r29	; 62
    2cbc:	0f be       	out	0x3f, r0	; 63
    2cbe:	cd bf       	out	0x3d, r28	; 61
    2cc0:	cf 91       	pop	r28
    2cc2:	df 91       	pop	r29
    2cc4:	08 95       	ret

00002cc6 <LCD_void_Data>:

void LCD_void_Data(u8 data_byte)
{
    2cc6:	df 93       	push	r29
    2cc8:	cf 93       	push	r28
    2cca:	cd b7       	in	r28, 0x3d	; 61
    2ccc:	de b7       	in	r29, 0x3e	; 62
    2cce:	e9 97       	sbiw	r28, 0x39	; 57
    2cd0:	0f b6       	in	r0, 0x3f	; 63
    2cd2:	f8 94       	cli
    2cd4:	de bf       	out	0x3e, r29	; 62
    2cd6:	0f be       	out	0x3f, r0	; 63
    2cd8:	cd bf       	out	0x3d, r28	; 61
    2cda:	89 af       	std	Y+57, r24	; 0x39
	LCD_busy();
    2cdc:	0e 94 e0 13 	call	0x27c0	; 0x27c0 <LCD_busy>

	DIO_Write((data_byte),DATA_GP);
    2ce0:	90 91 f0 03 	lds	r25, 0x03F0
    2ce4:	89 ad       	ldd	r24, Y+57	; 0x39
    2ce6:	69 2f       	mov	r22, r25
    2ce8:	0e 94 79 0a 	call	0x14f2	; 0x14f2 <DIO_Write>
	DIO_Write(0XFF,RS_GP);
    2cec:	90 91 ef 03 	lds	r25, 0x03EF
    2cf0:	8f ef       	ldi	r24, 0xFF	; 255
    2cf2:	69 2f       	mov	r22, r25
    2cf4:	0e 94 79 0a 	call	0x14f2	; 0x14f2 <DIO_Write>
	DIO_Write(0X00,RW_GP);
    2cf8:	90 91 ee 03 	lds	r25, 0x03EE
    2cfc:	80 e0       	ldi	r24, 0x00	; 0
    2cfe:	69 2f       	mov	r22, r25
    2d00:	0e 94 79 0a 	call	0x14f2	; 0x14f2 <DIO_Write>

	DIO_Write(0XFF,EN_GP);	//enable pulse
    2d04:	90 91 ed 03 	lds	r25, 0x03ED
    2d08:	8f ef       	ldi	r24, 0xFF	; 255
    2d0a:	69 2f       	mov	r22, r25
    2d0c:	0e 94 79 0a 	call	0x14f2	; 0x14f2 <DIO_Write>
    2d10:	80 e0       	ldi	r24, 0x00	; 0
    2d12:	90 e0       	ldi	r25, 0x00	; 0
    2d14:	a0 e8       	ldi	r26, 0x80	; 128
    2d16:	bf e3       	ldi	r27, 0x3F	; 63
    2d18:	8d ab       	std	Y+53, r24	; 0x35
    2d1a:	9e ab       	std	Y+54, r25	; 0x36
    2d1c:	af ab       	std	Y+55, r26	; 0x37
    2d1e:	b8 af       	std	Y+56, r27	; 0x38
 */
void
_delay_ms(double __ms)
{
	uint16_t __ticks;
	double __tmp = ((F_CPU) / 4e3) * __ms;
    2d20:	6d a9       	ldd	r22, Y+53	; 0x35
    2d22:	7e a9       	ldd	r23, Y+54	; 0x36
    2d24:	8f a9       	ldd	r24, Y+55	; 0x37
    2d26:	98 ad       	ldd	r25, Y+56	; 0x38
    2d28:	20 e0       	ldi	r18, 0x00	; 0
    2d2a:	30 e0       	ldi	r19, 0x00	; 0
    2d2c:	4a ef       	ldi	r20, 0xFA	; 250
    2d2e:	54 e4       	ldi	r21, 0x44	; 68
    2d30:	0e 94 1f 02 	call	0x43e	; 0x43e <__mulsf3>
    2d34:	dc 01       	movw	r26, r24
    2d36:	cb 01       	movw	r24, r22
    2d38:	89 ab       	std	Y+49, r24	; 0x31
    2d3a:	9a ab       	std	Y+50, r25	; 0x32
    2d3c:	ab ab       	std	Y+51, r26	; 0x33
    2d3e:	bc ab       	std	Y+52, r27	; 0x34
	if (__tmp < 1.0)
    2d40:	69 a9       	ldd	r22, Y+49	; 0x31
    2d42:	7a a9       	ldd	r23, Y+50	; 0x32
    2d44:	8b a9       	ldd	r24, Y+51	; 0x33
    2d46:	9c a9       	ldd	r25, Y+52	; 0x34
    2d48:	20 e0       	ldi	r18, 0x00	; 0
    2d4a:	30 e0       	ldi	r19, 0x00	; 0
    2d4c:	40 e8       	ldi	r20, 0x80	; 128
    2d4e:	5f e3       	ldi	r21, 0x3F	; 63
    2d50:	0e 94 25 04 	call	0x84a	; 0x84a <__ltsf2>
    2d54:	88 23       	and	r24, r24
    2d56:	2c f4       	brge	.+10     	; 0x2d62 <LCD_void_Data+0x9c>
		__ticks = 1;
    2d58:	81 e0       	ldi	r24, 0x01	; 1
    2d5a:	90 e0       	ldi	r25, 0x00	; 0
    2d5c:	98 ab       	std	Y+48, r25	; 0x30
    2d5e:	8f a7       	std	Y+47, r24	; 0x2f
    2d60:	3f c0       	rjmp	.+126    	; 0x2de0 <LCD_void_Data+0x11a>
	else if (__tmp > 65535)
    2d62:	69 a9       	ldd	r22, Y+49	; 0x31
    2d64:	7a a9       	ldd	r23, Y+50	; 0x32
    2d66:	8b a9       	ldd	r24, Y+51	; 0x33
    2d68:	9c a9       	ldd	r25, Y+52	; 0x34
    2d6a:	20 e0       	ldi	r18, 0x00	; 0
    2d6c:	3f ef       	ldi	r19, 0xFF	; 255
    2d6e:	4f e7       	ldi	r20, 0x7F	; 127
    2d70:	57 e4       	ldi	r21, 0x47	; 71
    2d72:	0e 94 c5 03 	call	0x78a	; 0x78a <__gtsf2>
    2d76:	18 16       	cp	r1, r24
    2d78:	4c f5       	brge	.+82     	; 0x2dcc <LCD_void_Data+0x106>
	{
		//	__ticks = requested delay in 1/10 ms
		__ticks = (uint16_t) (__ms * 10.0);
    2d7a:	6d a9       	ldd	r22, Y+53	; 0x35
    2d7c:	7e a9       	ldd	r23, Y+54	; 0x36
    2d7e:	8f a9       	ldd	r24, Y+55	; 0x37
    2d80:	98 ad       	ldd	r25, Y+56	; 0x38
    2d82:	20 e0       	ldi	r18, 0x00	; 0
    2d84:	30 e0       	ldi	r19, 0x00	; 0
    2d86:	40 e2       	ldi	r20, 0x20	; 32
    2d88:	51 e4       	ldi	r21, 0x41	; 65
    2d8a:	0e 94 1f 02 	call	0x43e	; 0x43e <__mulsf3>
    2d8e:	dc 01       	movw	r26, r24
    2d90:	cb 01       	movw	r24, r22
    2d92:	bc 01       	movw	r22, r24
    2d94:	cd 01       	movw	r24, r26
    2d96:	0e 94 49 00 	call	0x92	; 0x92 <__fixunssfsi>
    2d9a:	dc 01       	movw	r26, r24
    2d9c:	cb 01       	movw	r24, r22
    2d9e:	98 ab       	std	Y+48, r25	; 0x30
    2da0:	8f a7       	std	Y+47, r24	; 0x2f
    2da2:	0f c0       	rjmp	.+30     	; 0x2dc2 <LCD_void_Data+0xfc>
    2da4:	88 ec       	ldi	r24, 0xC8	; 200
    2da6:	90 e0       	ldi	r25, 0x00	; 0
    2da8:	9e a7       	std	Y+46, r25	; 0x2e
    2daa:	8d a7       	std	Y+45, r24	; 0x2d
    2dac:	8d a5       	ldd	r24, Y+45	; 0x2d
    2dae:	9e a5       	ldd	r25, Y+46	; 0x2e
    2db0:	01 97       	sbiw	r24, 0x01	; 1
    2db2:	f1 f7       	brne	.-4      	; 0x2db0 <LCD_void_Data+0xea>
    2db4:	9e a7       	std	Y+46, r25	; 0x2e
    2db6:	8d a7       	std	Y+45, r24	; 0x2d
		while(__ticks)
		{
			// wait 1/10 ms
			_delay_loop_2(((F_CPU) / 4e3) / 10);
			__ticks --;
    2db8:	8f a5       	ldd	r24, Y+47	; 0x2f
    2dba:	98 a9       	ldd	r25, Y+48	; 0x30
    2dbc:	01 97       	sbiw	r24, 0x01	; 1
    2dbe:	98 ab       	std	Y+48, r25	; 0x30
    2dc0:	8f a7       	std	Y+47, r24	; 0x2f
		__ticks = 1;
	else if (__tmp > 65535)
	{
		//	__ticks = requested delay in 1/10 ms
		__ticks = (uint16_t) (__ms * 10.0);
		while(__ticks)
    2dc2:	8f a5       	ldd	r24, Y+47	; 0x2f
    2dc4:	98 a9       	ldd	r25, Y+48	; 0x30
    2dc6:	00 97       	sbiw	r24, 0x00	; 0
    2dc8:	69 f7       	brne	.-38     	; 0x2da4 <LCD_void_Data+0xde>
    2dca:	14 c0       	rjmp	.+40     	; 0x2df4 <LCD_void_Data+0x12e>
			__ticks --;
		}
		return;
	}
	else
		__ticks = (uint16_t)__tmp;
    2dcc:	69 a9       	ldd	r22, Y+49	; 0x31
    2dce:	7a a9       	ldd	r23, Y+50	; 0x32
    2dd0:	8b a9       	ldd	r24, Y+51	; 0x33
    2dd2:	9c a9       	ldd	r25, Y+52	; 0x34
    2dd4:	0e 94 49 00 	call	0x92	; 0x92 <__fixunssfsi>
    2dd8:	dc 01       	movw	r26, r24
    2dda:	cb 01       	movw	r24, r22
    2ddc:	98 ab       	std	Y+48, r25	; 0x30
    2dde:	8f a7       	std	Y+47, r24	; 0x2f
    2de0:	8f a5       	ldd	r24, Y+47	; 0x2f
    2de2:	98 a9       	ldd	r25, Y+48	; 0x30
    2de4:	9c a7       	std	Y+44, r25	; 0x2c
    2de6:	8b a7       	std	Y+43, r24	; 0x2b
    2de8:	8b a5       	ldd	r24, Y+43	; 0x2b
    2dea:	9c a5       	ldd	r25, Y+44	; 0x2c
    2dec:	01 97       	sbiw	r24, 0x01	; 1
    2dee:	f1 f7       	brne	.-4      	; 0x2dec <LCD_void_Data+0x126>
    2df0:	9c a7       	std	Y+44, r25	; 0x2c
    2df2:	8b a7       	std	Y+43, r24	; 0x2b
	_delay_ms(1);
	DIO_Write(0X00,EN_GP);
    2df4:	90 91 ed 03 	lds	r25, 0x03ED
    2df8:	80 e0       	ldi	r24, 0x00	; 0
    2dfa:	69 2f       	mov	r22, r25
    2dfc:	0e 94 79 0a 	call	0x14f2	; 0x14f2 <DIO_Write>
    2e00:	80 e0       	ldi	r24, 0x00	; 0
    2e02:	90 e0       	ldi	r25, 0x00	; 0
    2e04:	a0 ea       	ldi	r26, 0xA0	; 160
    2e06:	b0 e4       	ldi	r27, 0x40	; 64
    2e08:	8f a3       	std	Y+39, r24	; 0x27
    2e0a:	98 a7       	std	Y+40, r25	; 0x28
    2e0c:	a9 a7       	std	Y+41, r26	; 0x29
    2e0e:	ba a7       	std	Y+42, r27	; 0x2a
 */
void
_delay_ms(double __ms)
{
	uint16_t __ticks;
	double __tmp = ((F_CPU) / 4e3) * __ms;
    2e10:	6f a1       	ldd	r22, Y+39	; 0x27
    2e12:	78 a5       	ldd	r23, Y+40	; 0x28
    2e14:	89 a5       	ldd	r24, Y+41	; 0x29
    2e16:	9a a5       	ldd	r25, Y+42	; 0x2a
    2e18:	20 e0       	ldi	r18, 0x00	; 0
    2e1a:	30 e0       	ldi	r19, 0x00	; 0
    2e1c:	4a ef       	ldi	r20, 0xFA	; 250
    2e1e:	54 e4       	ldi	r21, 0x44	; 68
    2e20:	0e 94 1f 02 	call	0x43e	; 0x43e <__mulsf3>
    2e24:	dc 01       	movw	r26, r24
    2e26:	cb 01       	movw	r24, r22
    2e28:	8b a3       	std	Y+35, r24	; 0x23
    2e2a:	9c a3       	std	Y+36, r25	; 0x24
    2e2c:	ad a3       	std	Y+37, r26	; 0x25
    2e2e:	be a3       	std	Y+38, r27	; 0x26
	if (__tmp < 1.0)
    2e30:	6b a1       	ldd	r22, Y+35	; 0x23
    2e32:	7c a1       	ldd	r23, Y+36	; 0x24
    2e34:	8d a1       	ldd	r24, Y+37	; 0x25
    2e36:	9e a1       	ldd	r25, Y+38	; 0x26
    2e38:	20 e0       	ldi	r18, 0x00	; 0
    2e3a:	30 e0       	ldi	r19, 0x00	; 0
    2e3c:	40 e8       	ldi	r20, 0x80	; 128
    2e3e:	5f e3       	ldi	r21, 0x3F	; 63
    2e40:	0e 94 25 04 	call	0x84a	; 0x84a <__ltsf2>
    2e44:	88 23       	and	r24, r24
    2e46:	2c f4       	brge	.+10     	; 0x2e52 <LCD_void_Data+0x18c>
		__ticks = 1;
    2e48:	81 e0       	ldi	r24, 0x01	; 1
    2e4a:	90 e0       	ldi	r25, 0x00	; 0
    2e4c:	9a a3       	std	Y+34, r25	; 0x22
    2e4e:	89 a3       	std	Y+33, r24	; 0x21
    2e50:	3f c0       	rjmp	.+126    	; 0x2ed0 <LCD_void_Data+0x20a>
	else if (__tmp > 65535)
    2e52:	6b a1       	ldd	r22, Y+35	; 0x23
    2e54:	7c a1       	ldd	r23, Y+36	; 0x24
    2e56:	8d a1       	ldd	r24, Y+37	; 0x25
    2e58:	9e a1       	ldd	r25, Y+38	; 0x26
    2e5a:	20 e0       	ldi	r18, 0x00	; 0
    2e5c:	3f ef       	ldi	r19, 0xFF	; 255
    2e5e:	4f e7       	ldi	r20, 0x7F	; 127
    2e60:	57 e4       	ldi	r21, 0x47	; 71
    2e62:	0e 94 c5 03 	call	0x78a	; 0x78a <__gtsf2>
    2e66:	18 16       	cp	r1, r24
    2e68:	4c f5       	brge	.+82     	; 0x2ebc <LCD_void_Data+0x1f6>
	{
		//	__ticks = requested delay in 1/10 ms
		__ticks = (uint16_t) (__ms * 10.0);
    2e6a:	6f a1       	ldd	r22, Y+39	; 0x27
    2e6c:	78 a5       	ldd	r23, Y+40	; 0x28
    2e6e:	89 a5       	ldd	r24, Y+41	; 0x29
    2e70:	9a a5       	ldd	r25, Y+42	; 0x2a
    2e72:	20 e0       	ldi	r18, 0x00	; 0
    2e74:	30 e0       	ldi	r19, 0x00	; 0
    2e76:	40 e2       	ldi	r20, 0x20	; 32
    2e78:	51 e4       	ldi	r21, 0x41	; 65
    2e7a:	0e 94 1f 02 	call	0x43e	; 0x43e <__mulsf3>
    2e7e:	dc 01       	movw	r26, r24
    2e80:	cb 01       	movw	r24, r22
    2e82:	bc 01       	movw	r22, r24
    2e84:	cd 01       	movw	r24, r26
    2e86:	0e 94 49 00 	call	0x92	; 0x92 <__fixunssfsi>
    2e8a:	dc 01       	movw	r26, r24
    2e8c:	cb 01       	movw	r24, r22
    2e8e:	9a a3       	std	Y+34, r25	; 0x22
    2e90:	89 a3       	std	Y+33, r24	; 0x21
    2e92:	0f c0       	rjmp	.+30     	; 0x2eb2 <LCD_void_Data+0x1ec>
    2e94:	88 ec       	ldi	r24, 0xC8	; 200
    2e96:	90 e0       	ldi	r25, 0x00	; 0
    2e98:	98 a3       	std	Y+32, r25	; 0x20
    2e9a:	8f 8f       	std	Y+31, r24	; 0x1f
    2e9c:	8f 8d       	ldd	r24, Y+31	; 0x1f
    2e9e:	98 a1       	ldd	r25, Y+32	; 0x20
    2ea0:	01 97       	sbiw	r24, 0x01	; 1
    2ea2:	f1 f7       	brne	.-4      	; 0x2ea0 <LCD_void_Data+0x1da>
    2ea4:	98 a3       	std	Y+32, r25	; 0x20
    2ea6:	8f 8f       	std	Y+31, r24	; 0x1f
		while(__ticks)
		{
			// wait 1/10 ms
			_delay_loop_2(((F_CPU) / 4e3) / 10);
			__ticks --;
    2ea8:	89 a1       	ldd	r24, Y+33	; 0x21
    2eaa:	9a a1       	ldd	r25, Y+34	; 0x22
    2eac:	01 97       	sbiw	r24, 0x01	; 1
    2eae:	9a a3       	std	Y+34, r25	; 0x22
    2eb0:	89 a3       	std	Y+33, r24	; 0x21
		__ticks = 1;
	else if (__tmp > 65535)
	{
		//	__ticks = requested delay in 1/10 ms
		__ticks = (uint16_t) (__ms * 10.0);
		while(__ticks)
    2eb2:	89 a1       	ldd	r24, Y+33	; 0x21
    2eb4:	9a a1       	ldd	r25, Y+34	; 0x22
    2eb6:	00 97       	sbiw	r24, 0x00	; 0
    2eb8:	69 f7       	brne	.-38     	; 0x2e94 <LCD_void_Data+0x1ce>
    2eba:	14 c0       	rjmp	.+40     	; 0x2ee4 <LCD_void_Data+0x21e>
			__ticks --;
		}
		return;
	}
	else
		__ticks = (uint16_t)__tmp;
    2ebc:	6b a1       	ldd	r22, Y+35	; 0x23
    2ebe:	7c a1       	ldd	r23, Y+36	; 0x24
    2ec0:	8d a1       	ldd	r24, Y+37	; 0x25
    2ec2:	9e a1       	ldd	r25, Y+38	; 0x26
    2ec4:	0e 94 49 00 	call	0x92	; 0x92 <__fixunssfsi>
    2ec8:	dc 01       	movw	r26, r24
    2eca:	cb 01       	movw	r24, r22
    2ecc:	9a a3       	std	Y+34, r25	; 0x22
    2ece:	89 a3       	std	Y+33, r24	; 0x21
    2ed0:	89 a1       	ldd	r24, Y+33	; 0x21
    2ed2:	9a a1       	ldd	r25, Y+34	; 0x22
    2ed4:	9e 8f       	std	Y+30, r25	; 0x1e
    2ed6:	8d 8f       	std	Y+29, r24	; 0x1d
    2ed8:	8d 8d       	ldd	r24, Y+29	; 0x1d
    2eda:	9e 8d       	ldd	r25, Y+30	; 0x1e
    2edc:	01 97       	sbiw	r24, 0x01	; 1
    2ede:	f1 f7       	brne	.-4      	; 0x2edc <LCD_void_Data+0x216>
    2ee0:	9e 8f       	std	Y+30, r25	; 0x1e
    2ee2:	8d 8f       	std	Y+29, r24	; 0x1d
	_delay_ms(5);
	DIO_Write((data_byte<<LCD_PIN_SHIFT),DATA_GP);
    2ee4:	89 ad       	ldd	r24, Y+57	; 0x39
    2ee6:	82 95       	swap	r24
    2ee8:	80 7f       	andi	r24, 0xF0	; 240
    2eea:	90 91 f0 03 	lds	r25, 0x03F0
    2eee:	69 2f       	mov	r22, r25
    2ef0:	0e 94 79 0a 	call	0x14f2	; 0x14f2 <DIO_Write>
	DIO_Write(0XFF,EN_GP);
    2ef4:	90 91 ed 03 	lds	r25, 0x03ED
    2ef8:	8f ef       	ldi	r24, 0xFF	; 255
    2efa:	69 2f       	mov	r22, r25
    2efc:	0e 94 79 0a 	call	0x14f2	; 0x14f2 <DIO_Write>
    2f00:	80 e0       	ldi	r24, 0x00	; 0
    2f02:	90 e0       	ldi	r25, 0x00	; 0
    2f04:	a0 e8       	ldi	r26, 0x80	; 128
    2f06:	bf e3       	ldi	r27, 0x3F	; 63
    2f08:	89 8f       	std	Y+25, r24	; 0x19
    2f0a:	9a 8f       	std	Y+26, r25	; 0x1a
    2f0c:	ab 8f       	std	Y+27, r26	; 0x1b
    2f0e:	bc 8f       	std	Y+28, r27	; 0x1c
 */
void
_delay_ms(double __ms)
{
	uint16_t __ticks;
	double __tmp = ((F_CPU) / 4e3) * __ms;
    2f10:	69 8d       	ldd	r22, Y+25	; 0x19
    2f12:	7a 8d       	ldd	r23, Y+26	; 0x1a
    2f14:	8b 8d       	ldd	r24, Y+27	; 0x1b
    2f16:	9c 8d       	ldd	r25, Y+28	; 0x1c
    2f18:	20 e0       	ldi	r18, 0x00	; 0
    2f1a:	30 e0       	ldi	r19, 0x00	; 0
    2f1c:	4a ef       	ldi	r20, 0xFA	; 250
    2f1e:	54 e4       	ldi	r21, 0x44	; 68
    2f20:	0e 94 1f 02 	call	0x43e	; 0x43e <__mulsf3>
    2f24:	dc 01       	movw	r26, r24
    2f26:	cb 01       	movw	r24, r22
    2f28:	8d 8b       	std	Y+21, r24	; 0x15
    2f2a:	9e 8b       	std	Y+22, r25	; 0x16
    2f2c:	af 8b       	std	Y+23, r26	; 0x17
    2f2e:	b8 8f       	std	Y+24, r27	; 0x18
	if (__tmp < 1.0)
    2f30:	6d 89       	ldd	r22, Y+21	; 0x15
    2f32:	7e 89       	ldd	r23, Y+22	; 0x16
    2f34:	8f 89       	ldd	r24, Y+23	; 0x17
    2f36:	98 8d       	ldd	r25, Y+24	; 0x18
    2f38:	20 e0       	ldi	r18, 0x00	; 0
    2f3a:	30 e0       	ldi	r19, 0x00	; 0
    2f3c:	40 e8       	ldi	r20, 0x80	; 128
    2f3e:	5f e3       	ldi	r21, 0x3F	; 63
    2f40:	0e 94 25 04 	call	0x84a	; 0x84a <__ltsf2>
    2f44:	88 23       	and	r24, r24
    2f46:	2c f4       	brge	.+10     	; 0x2f52 <LCD_void_Data+0x28c>
		__ticks = 1;
    2f48:	81 e0       	ldi	r24, 0x01	; 1
    2f4a:	90 e0       	ldi	r25, 0x00	; 0
    2f4c:	9c 8b       	std	Y+20, r25	; 0x14
    2f4e:	8b 8b       	std	Y+19, r24	; 0x13
    2f50:	3f c0       	rjmp	.+126    	; 0x2fd0 <LCD_void_Data+0x30a>
	else if (__tmp > 65535)
    2f52:	6d 89       	ldd	r22, Y+21	; 0x15
    2f54:	7e 89       	ldd	r23, Y+22	; 0x16
    2f56:	8f 89       	ldd	r24, Y+23	; 0x17
    2f58:	98 8d       	ldd	r25, Y+24	; 0x18
    2f5a:	20 e0       	ldi	r18, 0x00	; 0
    2f5c:	3f ef       	ldi	r19, 0xFF	; 255
    2f5e:	4f e7       	ldi	r20, 0x7F	; 127
    2f60:	57 e4       	ldi	r21, 0x47	; 71
    2f62:	0e 94 c5 03 	call	0x78a	; 0x78a <__gtsf2>
    2f66:	18 16       	cp	r1, r24
    2f68:	4c f5       	brge	.+82     	; 0x2fbc <LCD_void_Data+0x2f6>
	{
		//	__ticks = requested delay in 1/10 ms
		__ticks = (uint16_t) (__ms * 10.0);
    2f6a:	69 8d       	ldd	r22, Y+25	; 0x19
    2f6c:	7a 8d       	ldd	r23, Y+26	; 0x1a
    2f6e:	8b 8d       	ldd	r24, Y+27	; 0x1b
    2f70:	9c 8d       	ldd	r25, Y+28	; 0x1c
    2f72:	20 e0       	ldi	r18, 0x00	; 0
    2f74:	30 e0       	ldi	r19, 0x00	; 0
    2f76:	40 e2       	ldi	r20, 0x20	; 32
    2f78:	51 e4       	ldi	r21, 0x41	; 65
    2f7a:	0e 94 1f 02 	call	0x43e	; 0x43e <__mulsf3>
    2f7e:	dc 01       	movw	r26, r24
    2f80:	cb 01       	movw	r24, r22
    2f82:	bc 01       	movw	r22, r24
    2f84:	cd 01       	movw	r24, r26
    2f86:	0e 94 49 00 	call	0x92	; 0x92 <__fixunssfsi>
    2f8a:	dc 01       	movw	r26, r24
    2f8c:	cb 01       	movw	r24, r22
    2f8e:	9c 8b       	std	Y+20, r25	; 0x14
    2f90:	8b 8b       	std	Y+19, r24	; 0x13
    2f92:	0f c0       	rjmp	.+30     	; 0x2fb2 <LCD_void_Data+0x2ec>
    2f94:	88 ec       	ldi	r24, 0xC8	; 200
    2f96:	90 e0       	ldi	r25, 0x00	; 0
    2f98:	9a 8b       	std	Y+18, r25	; 0x12
    2f9a:	89 8b       	std	Y+17, r24	; 0x11
    2f9c:	89 89       	ldd	r24, Y+17	; 0x11
    2f9e:	9a 89       	ldd	r25, Y+18	; 0x12
    2fa0:	01 97       	sbiw	r24, 0x01	; 1
    2fa2:	f1 f7       	brne	.-4      	; 0x2fa0 <LCD_void_Data+0x2da>
    2fa4:	9a 8b       	std	Y+18, r25	; 0x12
    2fa6:	89 8b       	std	Y+17, r24	; 0x11
		while(__ticks)
		{
			// wait 1/10 ms
			_delay_loop_2(((F_CPU) / 4e3) / 10);
			__ticks --;
    2fa8:	8b 89       	ldd	r24, Y+19	; 0x13
    2faa:	9c 89       	ldd	r25, Y+20	; 0x14
    2fac:	01 97       	sbiw	r24, 0x01	; 1
    2fae:	9c 8b       	std	Y+20, r25	; 0x14
    2fb0:	8b 8b       	std	Y+19, r24	; 0x13
		__ticks = 1;
	else if (__tmp > 65535)
	{
		//	__ticks = requested delay in 1/10 ms
		__ticks = (uint16_t) (__ms * 10.0);
		while(__ticks)
    2fb2:	8b 89       	ldd	r24, Y+19	; 0x13
    2fb4:	9c 89       	ldd	r25, Y+20	; 0x14
    2fb6:	00 97       	sbiw	r24, 0x00	; 0
    2fb8:	69 f7       	brne	.-38     	; 0x2f94 <LCD_void_Data+0x2ce>
    2fba:	14 c0       	rjmp	.+40     	; 0x2fe4 <LCD_void_Data+0x31e>
			__ticks --;
		}
		return;
	}
	else
		__ticks = (uint16_t)__tmp;
    2fbc:	6d 89       	ldd	r22, Y+21	; 0x15
    2fbe:	7e 89       	ldd	r23, Y+22	; 0x16
    2fc0:	8f 89       	ldd	r24, Y+23	; 0x17
    2fc2:	98 8d       	ldd	r25, Y+24	; 0x18
    2fc4:	0e 94 49 00 	call	0x92	; 0x92 <__fixunssfsi>
    2fc8:	dc 01       	movw	r26, r24
    2fca:	cb 01       	movw	r24, r22
    2fcc:	9c 8b       	std	Y+20, r25	; 0x14
    2fce:	8b 8b       	std	Y+19, r24	; 0x13
    2fd0:	8b 89       	ldd	r24, Y+19	; 0x13
    2fd2:	9c 89       	ldd	r25, Y+20	; 0x14
    2fd4:	98 8b       	std	Y+16, r25	; 0x10
    2fd6:	8f 87       	std	Y+15, r24	; 0x0f
    2fd8:	8f 85       	ldd	r24, Y+15	; 0x0f
    2fda:	98 89       	ldd	r25, Y+16	; 0x10
    2fdc:	01 97       	sbiw	r24, 0x01	; 1
    2fde:	f1 f7       	brne	.-4      	; 0x2fdc <LCD_void_Data+0x316>
    2fe0:	98 8b       	std	Y+16, r25	; 0x10
    2fe2:	8f 87       	std	Y+15, r24	; 0x0f
	_delay_ms(1);
	DIO_Write(0X00,EN_GP);
    2fe4:	90 91 ed 03 	lds	r25, 0x03ED
    2fe8:	80 e0       	ldi	r24, 0x00	; 0
    2fea:	69 2f       	mov	r22, r25
    2fec:	0e 94 79 0a 	call	0x14f2	; 0x14f2 <DIO_Write>
    2ff0:	80 e0       	ldi	r24, 0x00	; 0
    2ff2:	90 e0       	ldi	r25, 0x00	; 0
    2ff4:	a0 ea       	ldi	r26, 0xA0	; 160
    2ff6:	b0 e4       	ldi	r27, 0x40	; 64
    2ff8:	8b 87       	std	Y+11, r24	; 0x0b
    2ffa:	9c 87       	std	Y+12, r25	; 0x0c
    2ffc:	ad 87       	std	Y+13, r26	; 0x0d
    2ffe:	be 87       	std	Y+14, r27	; 0x0e
 */
void
_delay_ms(double __ms)
{
	uint16_t __ticks;
	double __tmp = ((F_CPU) / 4e3) * __ms;
    3000:	6b 85       	ldd	r22, Y+11	; 0x0b
    3002:	7c 85       	ldd	r23, Y+12	; 0x0c
    3004:	8d 85       	ldd	r24, Y+13	; 0x0d
    3006:	9e 85       	ldd	r25, Y+14	; 0x0e
    3008:	20 e0       	ldi	r18, 0x00	; 0
    300a:	30 e0       	ldi	r19, 0x00	; 0
    300c:	4a ef       	ldi	r20, 0xFA	; 250
    300e:	54 e4       	ldi	r21, 0x44	; 68
    3010:	0e 94 1f 02 	call	0x43e	; 0x43e <__mulsf3>
    3014:	dc 01       	movw	r26, r24
    3016:	cb 01       	movw	r24, r22
    3018:	8f 83       	std	Y+7, r24	; 0x07
    301a:	98 87       	std	Y+8, r25	; 0x08
    301c:	a9 87       	std	Y+9, r26	; 0x09
    301e:	ba 87       	std	Y+10, r27	; 0x0a
	if (__tmp < 1.0)
    3020:	6f 81       	ldd	r22, Y+7	; 0x07
    3022:	78 85       	ldd	r23, Y+8	; 0x08
    3024:	89 85       	ldd	r24, Y+9	; 0x09
    3026:	9a 85       	ldd	r25, Y+10	; 0x0a
    3028:	20 e0       	ldi	r18, 0x00	; 0
    302a:	30 e0       	ldi	r19, 0x00	; 0
    302c:	40 e8       	ldi	r20, 0x80	; 128
    302e:	5f e3       	ldi	r21, 0x3F	; 63
    3030:	0e 94 25 04 	call	0x84a	; 0x84a <__ltsf2>
    3034:	88 23       	and	r24, r24
    3036:	2c f4       	brge	.+10     	; 0x3042 <LCD_void_Data+0x37c>
		__ticks = 1;
    3038:	81 e0       	ldi	r24, 0x01	; 1
    303a:	90 e0       	ldi	r25, 0x00	; 0
    303c:	9e 83       	std	Y+6, r25	; 0x06
    303e:	8d 83       	std	Y+5, r24	; 0x05
    3040:	3f c0       	rjmp	.+126    	; 0x30c0 <LCD_void_Data+0x3fa>
	else if (__tmp > 65535)
    3042:	6f 81       	ldd	r22, Y+7	; 0x07
    3044:	78 85       	ldd	r23, Y+8	; 0x08
    3046:	89 85       	ldd	r24, Y+9	; 0x09
    3048:	9a 85       	ldd	r25, Y+10	; 0x0a
    304a:	20 e0       	ldi	r18, 0x00	; 0
    304c:	3f ef       	ldi	r19, 0xFF	; 255
    304e:	4f e7       	ldi	r20, 0x7F	; 127
    3050:	57 e4       	ldi	r21, 0x47	; 71
    3052:	0e 94 c5 03 	call	0x78a	; 0x78a <__gtsf2>
    3056:	18 16       	cp	r1, r24
    3058:	4c f5       	brge	.+82     	; 0x30ac <LCD_void_Data+0x3e6>
	{
		//	__ticks = requested delay in 1/10 ms
		__ticks = (uint16_t) (__ms * 10.0);
    305a:	6b 85       	ldd	r22, Y+11	; 0x0b
    305c:	7c 85       	ldd	r23, Y+12	; 0x0c
    305e:	8d 85       	ldd	r24, Y+13	; 0x0d
    3060:	9e 85       	ldd	r25, Y+14	; 0x0e
    3062:	20 e0       	ldi	r18, 0x00	; 0
    3064:	30 e0       	ldi	r19, 0x00	; 0
    3066:	40 e2       	ldi	r20, 0x20	; 32
    3068:	51 e4       	ldi	r21, 0x41	; 65
    306a:	0e 94 1f 02 	call	0x43e	; 0x43e <__mulsf3>
    306e:	dc 01       	movw	r26, r24
    3070:	cb 01       	movw	r24, r22
    3072:	bc 01       	movw	r22, r24
    3074:	cd 01       	movw	r24, r26
    3076:	0e 94 49 00 	call	0x92	; 0x92 <__fixunssfsi>
    307a:	dc 01       	movw	r26, r24
    307c:	cb 01       	movw	r24, r22
    307e:	9e 83       	std	Y+6, r25	; 0x06
    3080:	8d 83       	std	Y+5, r24	; 0x05
    3082:	0f c0       	rjmp	.+30     	; 0x30a2 <LCD_void_Data+0x3dc>
    3084:	88 ec       	ldi	r24, 0xC8	; 200
    3086:	90 e0       	ldi	r25, 0x00	; 0
    3088:	9c 83       	std	Y+4, r25	; 0x04
    308a:	8b 83       	std	Y+3, r24	; 0x03
    308c:	8b 81       	ldd	r24, Y+3	; 0x03
    308e:	9c 81       	ldd	r25, Y+4	; 0x04
    3090:	01 97       	sbiw	r24, 0x01	; 1
    3092:	f1 f7       	brne	.-4      	; 0x3090 <LCD_void_Data+0x3ca>
    3094:	9c 83       	std	Y+4, r25	; 0x04
    3096:	8b 83       	std	Y+3, r24	; 0x03
		while(__ticks)
		{
			// wait 1/10 ms
			_delay_loop_2(((F_CPU) / 4e3) / 10);
			__ticks --;
    3098:	8d 81       	ldd	r24, Y+5	; 0x05
    309a:	9e 81       	ldd	r25, Y+6	; 0x06
    309c:	01 97       	sbiw	r24, 0x01	; 1
    309e:	9e 83       	std	Y+6, r25	; 0x06
    30a0:	8d 83       	std	Y+5, r24	; 0x05
		__ticks = 1;
	else if (__tmp > 65535)
	{
		//	__ticks = requested delay in 1/10 ms
		__ticks = (uint16_t) (__ms * 10.0);
		while(__ticks)
    30a2:	8d 81       	ldd	r24, Y+5	; 0x05
    30a4:	9e 81       	ldd	r25, Y+6	; 0x06
    30a6:	00 97       	sbiw	r24, 0x00	; 0
    30a8:	69 f7       	brne	.-38     	; 0x3084 <LCD_void_Data+0x3be>
    30aa:	14 c0       	rjmp	.+40     	; 0x30d4 <LCD_void_Data+0x40e>
			__ticks --;
		}
		return;
	}
	else
		__ticks = (uint16_t)__tmp;
    30ac:	6f 81       	ldd	r22, Y+7	; 0x07
    30ae:	78 85       	ldd	r23, Y+8	; 0x08
    30b0:	89 85       	ldd	r24, Y+9	; 0x09
    30b2:	9a 85       	ldd	r25, Y+10	; 0x0a
    30b4:	0e 94 49 00 	call	0x92	; 0x92 <__fixunssfsi>
    30b8:	dc 01       	movw	r26, r24
    30ba:	cb 01       	movw	r24, r22
    30bc:	9e 83       	std	Y+6, r25	; 0x06
    30be:	8d 83       	std	Y+5, r24	; 0x05
    30c0:	8d 81       	ldd	r24, Y+5	; 0x05
    30c2:	9e 81       	ldd	r25, Y+6	; 0x06
    30c4:	9a 83       	std	Y+2, r25	; 0x02
    30c6:	89 83       	std	Y+1, r24	; 0x01
    30c8:	89 81       	ldd	r24, Y+1	; 0x01
    30ca:	9a 81       	ldd	r25, Y+2	; 0x02
    30cc:	01 97       	sbiw	r24, 0x01	; 1
    30ce:	f1 f7       	brne	.-4      	; 0x30cc <LCD_void_Data+0x406>
    30d0:	9a 83       	std	Y+2, r25	; 0x02
    30d2:	89 83       	std	Y+1, r24	; 0x01
	_delay_ms(5);
	DIO_Write(0X00,RS_GP);
    30d4:	90 91 ef 03 	lds	r25, 0x03EF
    30d8:	80 e0       	ldi	r24, 0x00	; 0
    30da:	69 2f       	mov	r22, r25
    30dc:	0e 94 79 0a 	call	0x14f2	; 0x14f2 <DIO_Write>
}
    30e0:	e9 96       	adiw	r28, 0x39	; 57
    30e2:	0f b6       	in	r0, 0x3f	; 63
    30e4:	f8 94       	cli
    30e6:	de bf       	out	0x3e, r29	; 62
    30e8:	0f be       	out	0x3f, r0	; 63
    30ea:	cd bf       	out	0x3d, r28	; 61
    30ec:	cf 91       	pop	r28
    30ee:	df 91       	pop	r29
    30f0:	08 95       	ret

000030f2 <LCD_void_Init>:
void LCD_void_Init(void)
{
    30f2:	df 93       	push	r29
    30f4:	cf 93       	push	r28
    30f6:	cd b7       	in	r28, 0x3d	; 61
    30f8:	de b7       	in	r29, 0x3e	; 62
    30fa:	6c 97       	sbiw	r28, 0x1c	; 28
    30fc:	0f b6       	in	r0, 0x3f	; 63
    30fe:	f8 94       	cli
    3100:	de bf       	out	0x3e, r29	; 62
    3102:	0f be       	out	0x3f, r0	; 63
    3104:	cd bf       	out	0x3d, r28	; 61
    3106:	80 e0       	ldi	r24, 0x00	; 0
    3108:	90 e0       	ldi	r25, 0x00	; 0
    310a:	aa ef       	ldi	r26, 0xFA	; 250
    310c:	b4 e4       	ldi	r27, 0x44	; 68
    310e:	89 8f       	std	Y+25, r24	; 0x19
    3110:	9a 8f       	std	Y+26, r25	; 0x1a
    3112:	ab 8f       	std	Y+27, r26	; 0x1b
    3114:	bc 8f       	std	Y+28, r27	; 0x1c
 */
void
_delay_ms(double __ms)
{
	uint16_t __ticks;
	double __tmp = ((F_CPU) / 4e3) * __ms;
    3116:	69 8d       	ldd	r22, Y+25	; 0x19
    3118:	7a 8d       	ldd	r23, Y+26	; 0x1a
    311a:	8b 8d       	ldd	r24, Y+27	; 0x1b
    311c:	9c 8d       	ldd	r25, Y+28	; 0x1c
    311e:	20 e0       	ldi	r18, 0x00	; 0
    3120:	30 e0       	ldi	r19, 0x00	; 0
    3122:	4a ef       	ldi	r20, 0xFA	; 250
    3124:	54 e4       	ldi	r21, 0x44	; 68
    3126:	0e 94 1f 02 	call	0x43e	; 0x43e <__mulsf3>
    312a:	dc 01       	movw	r26, r24
    312c:	cb 01       	movw	r24, r22
    312e:	8d 8b       	std	Y+21, r24	; 0x15
    3130:	9e 8b       	std	Y+22, r25	; 0x16
    3132:	af 8b       	std	Y+23, r26	; 0x17
    3134:	b8 8f       	std	Y+24, r27	; 0x18
	if (__tmp < 1.0)
    3136:	6d 89       	ldd	r22, Y+21	; 0x15
    3138:	7e 89       	ldd	r23, Y+22	; 0x16
    313a:	8f 89       	ldd	r24, Y+23	; 0x17
    313c:	98 8d       	ldd	r25, Y+24	; 0x18
    313e:	20 e0       	ldi	r18, 0x00	; 0
    3140:	30 e0       	ldi	r19, 0x00	; 0
    3142:	40 e8       	ldi	r20, 0x80	; 128
    3144:	5f e3       	ldi	r21, 0x3F	; 63
    3146:	0e 94 25 04 	call	0x84a	; 0x84a <__ltsf2>
    314a:	88 23       	and	r24, r24
    314c:	2c f4       	brge	.+10     	; 0x3158 <LCD_void_Init+0x66>
		__ticks = 1;
    314e:	81 e0       	ldi	r24, 0x01	; 1
    3150:	90 e0       	ldi	r25, 0x00	; 0
    3152:	9c 8b       	std	Y+20, r25	; 0x14
    3154:	8b 8b       	std	Y+19, r24	; 0x13
    3156:	3f c0       	rjmp	.+126    	; 0x31d6 <LCD_void_Init+0xe4>
	else if (__tmp > 65535)
    3158:	6d 89       	ldd	r22, Y+21	; 0x15
    315a:	7e 89       	ldd	r23, Y+22	; 0x16
    315c:	8f 89       	ldd	r24, Y+23	; 0x17
    315e:	98 8d       	ldd	r25, Y+24	; 0x18
    3160:	20 e0       	ldi	r18, 0x00	; 0
    3162:	3f ef       	ldi	r19, 0xFF	; 255
    3164:	4f e7       	ldi	r20, 0x7F	; 127
    3166:	57 e4       	ldi	r21, 0x47	; 71
    3168:	0e 94 c5 03 	call	0x78a	; 0x78a <__gtsf2>
    316c:	18 16       	cp	r1, r24
    316e:	4c f5       	brge	.+82     	; 0x31c2 <LCD_void_Init+0xd0>
	{
		//	__ticks = requested delay in 1/10 ms
		__ticks = (uint16_t) (__ms * 10.0);
    3170:	69 8d       	ldd	r22, Y+25	; 0x19
    3172:	7a 8d       	ldd	r23, Y+26	; 0x1a
    3174:	8b 8d       	ldd	r24, Y+27	; 0x1b
    3176:	9c 8d       	ldd	r25, Y+28	; 0x1c
    3178:	20 e0       	ldi	r18, 0x00	; 0
    317a:	30 e0       	ldi	r19, 0x00	; 0
    317c:	40 e2       	ldi	r20, 0x20	; 32
    317e:	51 e4       	ldi	r21, 0x41	; 65
    3180:	0e 94 1f 02 	call	0x43e	; 0x43e <__mulsf3>
    3184:	dc 01       	movw	r26, r24
    3186:	cb 01       	movw	r24, r22
    3188:	bc 01       	movw	r22, r24
    318a:	cd 01       	movw	r24, r26
    318c:	0e 94 49 00 	call	0x92	; 0x92 <__fixunssfsi>
    3190:	dc 01       	movw	r26, r24
    3192:	cb 01       	movw	r24, r22
    3194:	9c 8b       	std	Y+20, r25	; 0x14
    3196:	8b 8b       	std	Y+19, r24	; 0x13
    3198:	0f c0       	rjmp	.+30     	; 0x31b8 <LCD_void_Init+0xc6>
    319a:	88 ec       	ldi	r24, 0xC8	; 200
    319c:	90 e0       	ldi	r25, 0x00	; 0
    319e:	9a 8b       	std	Y+18, r25	; 0x12
    31a0:	89 8b       	std	Y+17, r24	; 0x11
    31a2:	89 89       	ldd	r24, Y+17	; 0x11
    31a4:	9a 89       	ldd	r25, Y+18	; 0x12
    31a6:	01 97       	sbiw	r24, 0x01	; 1
    31a8:	f1 f7       	brne	.-4      	; 0x31a6 <LCD_void_Init+0xb4>
    31aa:	9a 8b       	std	Y+18, r25	; 0x12
    31ac:	89 8b       	std	Y+17, r24	; 0x11
		while(__ticks)
		{
			// wait 1/10 ms
			_delay_loop_2(((F_CPU) / 4e3) / 10);
			__ticks --;
    31ae:	8b 89       	ldd	r24, Y+19	; 0x13
    31b0:	9c 89       	ldd	r25, Y+20	; 0x14
    31b2:	01 97       	sbiw	r24, 0x01	; 1
    31b4:	9c 8b       	std	Y+20, r25	; 0x14
    31b6:	8b 8b       	std	Y+19, r24	; 0x13
		__ticks = 1;
	else if (__tmp > 65535)
	{
		//	__ticks = requested delay in 1/10 ms
		__ticks = (uint16_t) (__ms * 10.0);
		while(__ticks)
    31b8:	8b 89       	ldd	r24, Y+19	; 0x13
    31ba:	9c 89       	ldd	r25, Y+20	; 0x14
    31bc:	00 97       	sbiw	r24, 0x00	; 0
    31be:	69 f7       	brne	.-38     	; 0x319a <LCD_void_Init+0xa8>
    31c0:	14 c0       	rjmp	.+40     	; 0x31ea <LCD_void_Init+0xf8>
			__ticks --;
		}
		return;
	}
	else
		__ticks = (uint16_t)__tmp;
    31c2:	6d 89       	ldd	r22, Y+21	; 0x15
    31c4:	7e 89       	ldd	r23, Y+22	; 0x16
    31c6:	8f 89       	ldd	r24, Y+23	; 0x17
    31c8:	98 8d       	ldd	r25, Y+24	; 0x18
    31ca:	0e 94 49 00 	call	0x92	; 0x92 <__fixunssfsi>
    31ce:	dc 01       	movw	r26, r24
    31d0:	cb 01       	movw	r24, r22
    31d2:	9c 8b       	std	Y+20, r25	; 0x14
    31d4:	8b 8b       	std	Y+19, r24	; 0x13
    31d6:	8b 89       	ldd	r24, Y+19	; 0x13
    31d8:	9c 89       	ldd	r25, Y+20	; 0x14
    31da:	98 8b       	std	Y+16, r25	; 0x10
    31dc:	8f 87       	std	Y+15, r24	; 0x0f
    31de:	8f 85       	ldd	r24, Y+15	; 0x0f
    31e0:	98 89       	ldd	r25, Y+16	; 0x10
    31e2:	01 97       	sbiw	r24, 0x01	; 1
    31e4:	f1 f7       	brne	.-4      	; 0x31e2 <LCD_void_Init+0xf0>
    31e6:	98 8b       	std	Y+16, r25	; 0x10
    31e8:	8f 87       	std	Y+15, r24	; 0x0f

	_delay_ms(2000);

	DIO_Write(0X00,EN_GP);
    31ea:	90 91 ed 03 	lds	r25, 0x03ED
    31ee:	80 e0       	ldi	r24, 0x00	; 0
    31f0:	69 2f       	mov	r22, r25
    31f2:	0e 94 79 0a 	call	0x14f2	; 0x14f2 <DIO_Write>

	LCD_void_CMD(0x33);
    31f6:	83 e3       	ldi	r24, 0x33	; 51
    31f8:	0e 94 53 14 	call	0x28a6	; 0x28a6 <LCD_void_CMD>
	LCD_void_CMD(0x32);
    31fc:	82 e3       	ldi	r24, 0x32	; 50
    31fe:	0e 94 53 14 	call	0x28a6	; 0x28a6 <LCD_void_CMD>
	LCD_void_CMD(0x28);
    3202:	88 e2       	ldi	r24, 0x28	; 40
    3204:	0e 94 53 14 	call	0x28a6	; 0x28a6 <LCD_void_CMD>
	LCD_void_CMD(0x0C);
    3208:	8c e0       	ldi	r24, 0x0C	; 12
    320a:	0e 94 53 14 	call	0x28a6	; 0x28a6 <LCD_void_CMD>
	LCD_void_CMD(0x01);
    320e:	81 e0       	ldi	r24, 0x01	; 1
    3210:	0e 94 53 14 	call	0x28a6	; 0x28a6 <LCD_void_CMD>
    3214:	80 e0       	ldi	r24, 0x00	; 0
    3216:	90 e0       	ldi	r25, 0x00	; 0
    3218:	a8 e4       	ldi	r26, 0x48	; 72
    321a:	b2 e4       	ldi	r27, 0x42	; 66
    321c:	8b 87       	std	Y+11, r24	; 0x0b
    321e:	9c 87       	std	Y+12, r25	; 0x0c
    3220:	ad 87       	std	Y+13, r26	; 0x0d
    3222:	be 87       	std	Y+14, r27	; 0x0e
 */
void
_delay_ms(double __ms)
{
	uint16_t __ticks;
	double __tmp = ((F_CPU) / 4e3) * __ms;
    3224:	6b 85       	ldd	r22, Y+11	; 0x0b
    3226:	7c 85       	ldd	r23, Y+12	; 0x0c
    3228:	8d 85       	ldd	r24, Y+13	; 0x0d
    322a:	9e 85       	ldd	r25, Y+14	; 0x0e
    322c:	20 e0       	ldi	r18, 0x00	; 0
    322e:	30 e0       	ldi	r19, 0x00	; 0
    3230:	4a ef       	ldi	r20, 0xFA	; 250
    3232:	54 e4       	ldi	r21, 0x44	; 68
    3234:	0e 94 1f 02 	call	0x43e	; 0x43e <__mulsf3>
    3238:	dc 01       	movw	r26, r24
    323a:	cb 01       	movw	r24, r22
    323c:	8f 83       	std	Y+7, r24	; 0x07
    323e:	98 87       	std	Y+8, r25	; 0x08
    3240:	a9 87       	std	Y+9, r26	; 0x09
    3242:	ba 87       	std	Y+10, r27	; 0x0a
	if (__tmp < 1.0)
    3244:	6f 81       	ldd	r22, Y+7	; 0x07
    3246:	78 85       	ldd	r23, Y+8	; 0x08
    3248:	89 85       	ldd	r24, Y+9	; 0x09
    324a:	9a 85       	ldd	r25, Y+10	; 0x0a
    324c:	20 e0       	ldi	r18, 0x00	; 0
    324e:	30 e0       	ldi	r19, 0x00	; 0
    3250:	40 e8       	ldi	r20, 0x80	; 128
    3252:	5f e3       	ldi	r21, 0x3F	; 63
    3254:	0e 94 25 04 	call	0x84a	; 0x84a <__ltsf2>
    3258:	88 23       	and	r24, r24
    325a:	2c f4       	brge	.+10     	; 0x3266 <LCD_void_Init+0x174>
		__ticks = 1;
    325c:	81 e0       	ldi	r24, 0x01	; 1
    325e:	90 e0       	ldi	r25, 0x00	; 0
    3260:	9e 83       	std	Y+6, r25	; 0x06
    3262:	8d 83       	std	Y+5, r24	; 0x05
    3264:	3f c0       	rjmp	.+126    	; 0x32e4 <LCD_void_Init+0x1f2>
	else if (__tmp > 65535)
    3266:	6f 81       	ldd	r22, Y+7	; 0x07
    3268:	78 85       	ldd	r23, Y+8	; 0x08
    326a:	89 85       	ldd	r24, Y+9	; 0x09
    326c:	9a 85       	ldd	r25, Y+10	; 0x0a
    326e:	20 e0       	ldi	r18, 0x00	; 0
    3270:	3f ef       	ldi	r19, 0xFF	; 255
    3272:	4f e7       	ldi	r20, 0x7F	; 127
    3274:	57 e4       	ldi	r21, 0x47	; 71
    3276:	0e 94 c5 03 	call	0x78a	; 0x78a <__gtsf2>
    327a:	18 16       	cp	r1, r24
    327c:	4c f5       	brge	.+82     	; 0x32d0 <LCD_void_Init+0x1de>
	{
		//	__ticks = requested delay in 1/10 ms
		__ticks = (uint16_t) (__ms * 10.0);
    327e:	6b 85       	ldd	r22, Y+11	; 0x0b
    3280:	7c 85       	ldd	r23, Y+12	; 0x0c
    3282:	8d 85       	ldd	r24, Y+13	; 0x0d
    3284:	9e 85       	ldd	r25, Y+14	; 0x0e
    3286:	20 e0       	ldi	r18, 0x00	; 0
    3288:	30 e0       	ldi	r19, 0x00	; 0
    328a:	40 e2       	ldi	r20, 0x20	; 32
    328c:	51 e4       	ldi	r21, 0x41	; 65
    328e:	0e 94 1f 02 	call	0x43e	; 0x43e <__mulsf3>
    3292:	dc 01       	movw	r26, r24
    3294:	cb 01       	movw	r24, r22
    3296:	bc 01       	movw	r22, r24
    3298:	cd 01       	movw	r24, r26
    329a:	0e 94 49 00 	call	0x92	; 0x92 <__fixunssfsi>
    329e:	dc 01       	movw	r26, r24
    32a0:	cb 01       	movw	r24, r22
    32a2:	9e 83       	std	Y+6, r25	; 0x06
    32a4:	8d 83       	std	Y+5, r24	; 0x05
    32a6:	0f c0       	rjmp	.+30     	; 0x32c6 <LCD_void_Init+0x1d4>
    32a8:	88 ec       	ldi	r24, 0xC8	; 200
    32aa:	90 e0       	ldi	r25, 0x00	; 0
    32ac:	9c 83       	std	Y+4, r25	; 0x04
    32ae:	8b 83       	std	Y+3, r24	; 0x03
    32b0:	8b 81       	ldd	r24, Y+3	; 0x03
    32b2:	9c 81       	ldd	r25, Y+4	; 0x04
    32b4:	01 97       	sbiw	r24, 0x01	; 1
    32b6:	f1 f7       	brne	.-4      	; 0x32b4 <LCD_void_Init+0x1c2>
    32b8:	9c 83       	std	Y+4, r25	; 0x04
    32ba:	8b 83       	std	Y+3, r24	; 0x03
		while(__ticks)
		{
			// wait 1/10 ms
			_delay_loop_2(((F_CPU) / 4e3) / 10);
			__ticks --;
    32bc:	8d 81       	ldd	r24, Y+5	; 0x05
    32be:	9e 81       	ldd	r25, Y+6	; 0x06
    32c0:	01 97       	sbiw	r24, 0x01	; 1
    32c2:	9e 83       	std	Y+6, r25	; 0x06
    32c4:	8d 83       	std	Y+5, r24	; 0x05
		__ticks = 1;
	else if (__tmp > 65535)
	{
		//	__ticks = requested delay in 1/10 ms
		__ticks = (uint16_t) (__ms * 10.0);
		while(__ticks)
    32c6:	8d 81       	ldd	r24, Y+5	; 0x05
    32c8:	9e 81       	ldd	r25, Y+6	; 0x06
    32ca:	00 97       	sbiw	r24, 0x00	; 0
    32cc:	69 f7       	brne	.-38     	; 0x32a8 <LCD_void_Init+0x1b6>
    32ce:	14 c0       	rjmp	.+40     	; 0x32f8 <LCD_void_Init+0x206>
			__ticks --;
		}
		return;
	}
	else
		__ticks = (uint16_t)__tmp;
    32d0:	6f 81       	ldd	r22, Y+7	; 0x07
    32d2:	78 85       	ldd	r23, Y+8	; 0x08
    32d4:	89 85       	ldd	r24, Y+9	; 0x09
    32d6:	9a 85       	ldd	r25, Y+10	; 0x0a
    32d8:	0e 94 49 00 	call	0x92	; 0x92 <__fixunssfsi>
    32dc:	dc 01       	movw	r26, r24
    32de:	cb 01       	movw	r24, r22
    32e0:	9e 83       	std	Y+6, r25	; 0x06
    32e2:	8d 83       	std	Y+5, r24	; 0x05
    32e4:	8d 81       	ldd	r24, Y+5	; 0x05
    32e6:	9e 81       	ldd	r25, Y+6	; 0x06
    32e8:	9a 83       	std	Y+2, r25	; 0x02
    32ea:	89 83       	std	Y+1, r24	; 0x01
    32ec:	89 81       	ldd	r24, Y+1	; 0x01
    32ee:	9a 81       	ldd	r25, Y+2	; 0x02
    32f0:	01 97       	sbiw	r24, 0x01	; 1
    32f2:	f1 f7       	brne	.-4      	; 0x32f0 <LCD_void_Init+0x1fe>
    32f4:	9a 83       	std	Y+2, r25	; 0x02
    32f6:	89 83       	std	Y+1, r24	; 0x01
	_delay_ms(50);
	LCD_void_CMD(0x06);
    32f8:	86 e0       	ldi	r24, 0x06	; 6
    32fa:	0e 94 53 14 	call	0x28a6	; 0x28a6 <LCD_void_CMD>
}
    32fe:	6c 96       	adiw	r28, 0x1c	; 28
    3300:	0f b6       	in	r0, 0x3f	; 63
    3302:	f8 94       	cli
    3304:	de bf       	out	0x3e, r29	; 62
    3306:	0f be       	out	0x3f, r0	; 63
    3308:	cd bf       	out	0x3d, r28	; 61
    330a:	cf 91       	pop	r28
    330c:	df 91       	pop	r29
    330e:	08 95       	ret

00003310 <LCD_void_SendString>:



void LCD_void_SendString (u8 *s)
{
    3310:	df 93       	push	r29
    3312:	cf 93       	push	r28
    3314:	00 d0       	rcall	.+0      	; 0x3316 <LCD_void_SendString+0x6>
    3316:	cd b7       	in	r28, 0x3d	; 61
    3318:	de b7       	in	r29, 0x3e	; 62
    331a:	9a 83       	std	Y+2, r25	; 0x02
    331c:	89 83       	std	Y+1, r24	; 0x01
    331e:	0a c0       	rjmp	.+20     	; 0x3334 <LCD_void_SendString+0x24>
	while(*s)
	{
		LCD_void_Data(*s);
    3320:	e9 81       	ldd	r30, Y+1	; 0x01
    3322:	fa 81       	ldd	r31, Y+2	; 0x02
    3324:	80 81       	ld	r24, Z
    3326:	0e 94 63 16 	call	0x2cc6	; 0x2cc6 <LCD_void_Data>
		s++;
    332a:	89 81       	ldd	r24, Y+1	; 0x01
    332c:	9a 81       	ldd	r25, Y+2	; 0x02
    332e:	01 96       	adiw	r24, 0x01	; 1
    3330:	9a 83       	std	Y+2, r25	; 0x02
    3332:	89 83       	std	Y+1, r24	; 0x01



void LCD_void_SendString (u8 *s)
{
	while(*s)
    3334:	e9 81       	ldd	r30, Y+1	; 0x01
    3336:	fa 81       	ldd	r31, Y+2	; 0x02
    3338:	80 81       	ld	r24, Z
    333a:	88 23       	and	r24, r24
    333c:	89 f7       	brne	.-30     	; 0x3320 <LCD_void_SendString+0x10>
	{
		LCD_void_Data(*s);
		s++;
	}
}
    333e:	0f 90       	pop	r0
    3340:	0f 90       	pop	r0
    3342:	cf 91       	pop	r28
    3344:	df 91       	pop	r29
    3346:	08 95       	ret

00003348 <LCD_GoTO>:

void LCD_GoTO(u8 x,u8 y)
{
    3348:	df 93       	push	r29
    334a:	cf 93       	push	r28
    334c:	cd b7       	in	r28, 0x3d	; 61
    334e:	de b7       	in	r29, 0x3e	; 62
    3350:	64 97       	sbiw	r28, 0x14	; 20
    3352:	0f b6       	in	r0, 0x3f	; 63
    3354:	f8 94       	cli
    3356:	de bf       	out	0x3e, r29	; 62
    3358:	0f be       	out	0x3f, r0	; 63
    335a:	cd bf       	out	0x3d, r28	; 61
    335c:	8b 8b       	std	Y+19, r24	; 0x13
    335e:	6c 8b       	std	Y+20, r22	; 0x14
	u8 First_Char_Address []={0X80,0XC0,0X94,0XD4};
    3360:	80 e8       	ldi	r24, 0x80	; 128
    3362:	8f 87       	std	Y+15, r24	; 0x0f
    3364:	80 ec       	ldi	r24, 0xC0	; 192
    3366:	88 8b       	std	Y+16, r24	; 0x10
    3368:	84 e9       	ldi	r24, 0x94	; 148
    336a:	89 8b       	std	Y+17, r24	; 0x11
    336c:	84 ed       	ldi	r24, 0xD4	; 212
    336e:	8a 8b       	std	Y+18, r24	; 0x12
	LCD_void_CMD(First_Char_Address[y-1]+x-1);
    3370:	8c 89       	ldd	r24, Y+20	; 0x14
    3372:	88 2f       	mov	r24, r24
    3374:	90 e0       	ldi	r25, 0x00	; 0
    3376:	9c 01       	movw	r18, r24
    3378:	21 50       	subi	r18, 0x01	; 1
    337a:	30 40       	sbci	r19, 0x00	; 0
    337c:	ce 01       	movw	r24, r28
    337e:	0f 96       	adiw	r24, 0x0f	; 15
    3380:	fc 01       	movw	r30, r24
    3382:	e2 0f       	add	r30, r18
    3384:	f3 1f       	adc	r31, r19
    3386:	90 81       	ld	r25, Z
    3388:	8b 89       	ldd	r24, Y+19	; 0x13
    338a:	89 0f       	add	r24, r25
    338c:	81 50       	subi	r24, 0x01	; 1
    338e:	0e 94 53 14 	call	0x28a6	; 0x28a6 <LCD_void_CMD>
    3392:	80 e0       	ldi	r24, 0x00	; 0
    3394:	90 e0       	ldi	r25, 0x00	; 0
    3396:	a8 ec       	ldi	r26, 0xC8	; 200
    3398:	b2 e4       	ldi	r27, 0x42	; 66
    339a:	8b 87       	std	Y+11, r24	; 0x0b
    339c:	9c 87       	std	Y+12, r25	; 0x0c
    339e:	ad 87       	std	Y+13, r26	; 0x0d
    33a0:	be 87       	std	Y+14, r27	; 0x0e
 */
void
_delay_ms(double __ms)
{
	uint16_t __ticks;
	double __tmp = ((F_CPU) / 4e3) * __ms;
    33a2:	6b 85       	ldd	r22, Y+11	; 0x0b
    33a4:	7c 85       	ldd	r23, Y+12	; 0x0c
    33a6:	8d 85       	ldd	r24, Y+13	; 0x0d
    33a8:	9e 85       	ldd	r25, Y+14	; 0x0e
    33aa:	20 e0       	ldi	r18, 0x00	; 0
    33ac:	30 e0       	ldi	r19, 0x00	; 0
    33ae:	4a ef       	ldi	r20, 0xFA	; 250
    33b0:	54 e4       	ldi	r21, 0x44	; 68
    33b2:	0e 94 1f 02 	call	0x43e	; 0x43e <__mulsf3>
    33b6:	dc 01       	movw	r26, r24
    33b8:	cb 01       	movw	r24, r22
    33ba:	8f 83       	std	Y+7, r24	; 0x07
    33bc:	98 87       	std	Y+8, r25	; 0x08
    33be:	a9 87       	std	Y+9, r26	; 0x09
    33c0:	ba 87       	std	Y+10, r27	; 0x0a
	if (__tmp < 1.0)
    33c2:	6f 81       	ldd	r22, Y+7	; 0x07
    33c4:	78 85       	ldd	r23, Y+8	; 0x08
    33c6:	89 85       	ldd	r24, Y+9	; 0x09
    33c8:	9a 85       	ldd	r25, Y+10	; 0x0a
    33ca:	20 e0       	ldi	r18, 0x00	; 0
    33cc:	30 e0       	ldi	r19, 0x00	; 0
    33ce:	40 e8       	ldi	r20, 0x80	; 128
    33d0:	5f e3       	ldi	r21, 0x3F	; 63
    33d2:	0e 94 25 04 	call	0x84a	; 0x84a <__ltsf2>
    33d6:	88 23       	and	r24, r24
    33d8:	2c f4       	brge	.+10     	; 0x33e4 <LCD_GoTO+0x9c>
		__ticks = 1;
    33da:	81 e0       	ldi	r24, 0x01	; 1
    33dc:	90 e0       	ldi	r25, 0x00	; 0
    33de:	9e 83       	std	Y+6, r25	; 0x06
    33e0:	8d 83       	std	Y+5, r24	; 0x05
    33e2:	3f c0       	rjmp	.+126    	; 0x3462 <LCD_GoTO+0x11a>
	else if (__tmp > 65535)
    33e4:	6f 81       	ldd	r22, Y+7	; 0x07
    33e6:	78 85       	ldd	r23, Y+8	; 0x08
    33e8:	89 85       	ldd	r24, Y+9	; 0x09
    33ea:	9a 85       	ldd	r25, Y+10	; 0x0a
    33ec:	20 e0       	ldi	r18, 0x00	; 0
    33ee:	3f ef       	ldi	r19, 0xFF	; 255
    33f0:	4f e7       	ldi	r20, 0x7F	; 127
    33f2:	57 e4       	ldi	r21, 0x47	; 71
    33f4:	0e 94 c5 03 	call	0x78a	; 0x78a <__gtsf2>
    33f8:	18 16       	cp	r1, r24
    33fa:	4c f5       	brge	.+82     	; 0x344e <LCD_GoTO+0x106>
	{
		//	__ticks = requested delay in 1/10 ms
		__ticks = (uint16_t) (__ms * 10.0);
    33fc:	6b 85       	ldd	r22, Y+11	; 0x0b
    33fe:	7c 85       	ldd	r23, Y+12	; 0x0c
    3400:	8d 85       	ldd	r24, Y+13	; 0x0d
    3402:	9e 85       	ldd	r25, Y+14	; 0x0e
    3404:	20 e0       	ldi	r18, 0x00	; 0
    3406:	30 e0       	ldi	r19, 0x00	; 0
    3408:	40 e2       	ldi	r20, 0x20	; 32
    340a:	51 e4       	ldi	r21, 0x41	; 65
    340c:	0e 94 1f 02 	call	0x43e	; 0x43e <__mulsf3>
    3410:	dc 01       	movw	r26, r24
    3412:	cb 01       	movw	r24, r22
    3414:	bc 01       	movw	r22, r24
    3416:	cd 01       	movw	r24, r26
    3418:	0e 94 49 00 	call	0x92	; 0x92 <__fixunssfsi>
    341c:	dc 01       	movw	r26, r24
    341e:	cb 01       	movw	r24, r22
    3420:	9e 83       	std	Y+6, r25	; 0x06
    3422:	8d 83       	std	Y+5, r24	; 0x05
    3424:	0f c0       	rjmp	.+30     	; 0x3444 <LCD_GoTO+0xfc>
    3426:	88 ec       	ldi	r24, 0xC8	; 200
    3428:	90 e0       	ldi	r25, 0x00	; 0
    342a:	9c 83       	std	Y+4, r25	; 0x04
    342c:	8b 83       	std	Y+3, r24	; 0x03
    342e:	8b 81       	ldd	r24, Y+3	; 0x03
    3430:	9c 81       	ldd	r25, Y+4	; 0x04
    3432:	01 97       	sbiw	r24, 0x01	; 1
    3434:	f1 f7       	brne	.-4      	; 0x3432 <LCD_GoTO+0xea>
    3436:	9c 83       	std	Y+4, r25	; 0x04
    3438:	8b 83       	std	Y+3, r24	; 0x03
		while(__ticks)
		{
			// wait 1/10 ms
			_delay_loop_2(((F_CPU) / 4e3) / 10);
			__ticks --;
    343a:	8d 81       	ldd	r24, Y+5	; 0x05
    343c:	9e 81       	ldd	r25, Y+6	; 0x06
    343e:	01 97       	sbiw	r24, 0x01	; 1
    3440:	9e 83       	std	Y+6, r25	; 0x06
    3442:	8d 83       	std	Y+5, r24	; 0x05
		__ticks = 1;
	else if (__tmp > 65535)
	{
		//	__ticks = requested delay in 1/10 ms
		__ticks = (uint16_t) (__ms * 10.0);
		while(__ticks)
    3444:	8d 81       	ldd	r24, Y+5	; 0x05
    3446:	9e 81       	ldd	r25, Y+6	; 0x06
    3448:	00 97       	sbiw	r24, 0x00	; 0
    344a:	69 f7       	brne	.-38     	; 0x3426 <LCD_GoTO+0xde>
    344c:	14 c0       	rjmp	.+40     	; 0x3476 <LCD_GoTO+0x12e>
			__ticks --;
		}
		return;
	}
	else
		__ticks = (uint16_t)__tmp;
    344e:	6f 81       	ldd	r22, Y+7	; 0x07
    3450:	78 85       	ldd	r23, Y+8	; 0x08
    3452:	89 85       	ldd	r24, Y+9	; 0x09
    3454:	9a 85       	ldd	r25, Y+10	; 0x0a
    3456:	0e 94 49 00 	call	0x92	; 0x92 <__fixunssfsi>
    345a:	dc 01       	movw	r26, r24
    345c:	cb 01       	movw	r24, r22
    345e:	9e 83       	std	Y+6, r25	; 0x06
    3460:	8d 83       	std	Y+5, r24	; 0x05
    3462:	8d 81       	ldd	r24, Y+5	; 0x05
    3464:	9e 81       	ldd	r25, Y+6	; 0x06
    3466:	9a 83       	std	Y+2, r25	; 0x02
    3468:	89 83       	std	Y+1, r24	; 0x01
    346a:	89 81       	ldd	r24, Y+1	; 0x01
    346c:	9a 81       	ldd	r25, Y+2	; 0x02
    346e:	01 97       	sbiw	r24, 0x01	; 1
    3470:	f1 f7       	brne	.-4      	; 0x346e <LCD_GoTO+0x126>
    3472:	9a 83       	std	Y+2, r25	; 0x02
    3474:	89 83       	std	Y+1, r24	; 0x01
	_delay_ms(100);
}
    3476:	64 96       	adiw	r28, 0x14	; 20
    3478:	0f b6       	in	r0, 0x3f	; 63
    347a:	f8 94       	cli
    347c:	de bf       	out	0x3e, r29	; 62
    347e:	0f be       	out	0x3f, r0	; 63
    3480:	cd bf       	out	0x3d, r28	; 61
    3482:	cf 91       	pop	r28
    3484:	df 91       	pop	r29
    3486:	08 95       	ret

00003488 <LCD_Clear>:

void LCD_Clear(void)
{
    3488:	df 93       	push	r29
    348a:	cf 93       	push	r28
    348c:	cd b7       	in	r28, 0x3d	; 61
    348e:	de b7       	in	r29, 0x3e	; 62
	LCD_void_CMD(0x01);
    3490:	81 e0       	ldi	r24, 0x01	; 1
    3492:	0e 94 53 14 	call	0x28a6	; 0x28a6 <LCD_void_CMD>
}
    3496:	cf 91       	pop	r28
    3498:	df 91       	pop	r29
    349a:	08 95       	ret

0000349c <LCD_On>:
void LCD_On(void)
{
    349c:	df 93       	push	r29
    349e:	cf 93       	push	r28
    34a0:	cd b7       	in	r28, 0x3d	; 61
    34a2:	de b7       	in	r29, 0x3e	; 62
	LCD_void_CMD(0x0E);
    34a4:	8e e0       	ldi	r24, 0x0E	; 14
    34a6:	0e 94 53 14 	call	0x28a6	; 0x28a6 <LCD_void_CMD>
}
    34aa:	cf 91       	pop	r28
    34ac:	df 91       	pop	r29
    34ae:	08 95       	ret

000034b0 <LCD_Off>:
void LCD_Off(void)
{
    34b0:	df 93       	push	r29
    34b2:	cf 93       	push	r28
    34b4:	cd b7       	in	r28, 0x3d	; 61
    34b6:	de b7       	in	r29, 0x3e	; 62
	LCD_void_CMD(0x08);
    34b8:	88 e0       	ldi	r24, 0x08	; 8
    34ba:	0e 94 53 14 	call	0x28a6	; 0x28a6 <LCD_void_CMD>
}
    34be:	cf 91       	pop	r28
    34c0:	df 91       	pop	r29
    34c2:	08 95       	ret

000034c4 <LCD_Shift_Right>:
void LCD_Shift_Right(void)
{
    34c4:	df 93       	push	r29
    34c6:	cf 93       	push	r28
    34c8:	cd b7       	in	r28, 0x3d	; 61
    34ca:	de b7       	in	r29, 0x3e	; 62
	LCD_void_CMD(0x1c);
    34cc:	8c e1       	ldi	r24, 0x1C	; 28
    34ce:	0e 94 53 14 	call	0x28a6	; 0x28a6 <LCD_void_CMD>
}
    34d2:	cf 91       	pop	r28
    34d4:	df 91       	pop	r29
    34d6:	08 95       	ret

000034d8 <LCD_Shift_Left>:
void LCD_Shift_Left(void)
{
    34d8:	df 93       	push	r29
    34da:	cf 93       	push	r28
    34dc:	cd b7       	in	r28, 0x3d	; 61
    34de:	de b7       	in	r29, 0x3e	; 62
	LCD_void_CMD(0x1b);
    34e0:	8b e1       	ldi	r24, 0x1B	; 27
    34e2:	0e 94 53 14 	call	0x28a6	; 0x28a6 <LCD_void_CMD>
}
    34e6:	cf 91       	pop	r28
    34e8:	df 91       	pop	r29
    34ea:	08 95       	ret

000034ec <LCD_Special_Char>:


void LCD_Special_Char(u8* customChar,u8 num_ind)
{
    34ec:	df 93       	push	r29
    34ee:	cf 93       	push	r28
    34f0:	00 d0       	rcall	.+0      	; 0x34f2 <LCD_Special_Char+0x6>
    34f2:	00 d0       	rcall	.+0      	; 0x34f4 <LCD_Special_Char+0x8>
    34f4:	cd b7       	in	r28, 0x3d	; 61
    34f6:	de b7       	in	r29, 0x3e	; 62
    34f8:	9b 83       	std	Y+3, r25	; 0x03
    34fa:	8a 83       	std	Y+2, r24	; 0x02
    34fc:	6c 83       	std	Y+4, r22	; 0x04
	LCD_void_CMD(0x40+(num_ind*8));
    34fe:	8c 81       	ldd	r24, Y+4	; 0x04
    3500:	88 2f       	mov	r24, r24
    3502:	90 e0       	ldi	r25, 0x00	; 0
    3504:	08 96       	adiw	r24, 0x08	; 8
    3506:	88 0f       	add	r24, r24
    3508:	99 1f       	adc	r25, r25
    350a:	88 0f       	add	r24, r24
    350c:	99 1f       	adc	r25, r25
    350e:	88 0f       	add	r24, r24
    3510:	99 1f       	adc	r25, r25
    3512:	0e 94 53 14 	call	0x28a6	; 0x28a6 <LCD_void_CMD>
	//LCD_void_CMD(0x00);

	u8 loop;
	for (loop = 0; loop < 8; ++loop)
    3516:	19 82       	std	Y+1, r1	; 0x01
    3518:	0e c0       	rjmp	.+28     	; 0x3536 <LCD_Special_Char+0x4a>
	{
		LCD_void_Data(customChar[loop]);
    351a:	89 81       	ldd	r24, Y+1	; 0x01
    351c:	28 2f       	mov	r18, r24
    351e:	30 e0       	ldi	r19, 0x00	; 0
    3520:	8a 81       	ldd	r24, Y+2	; 0x02
    3522:	9b 81       	ldd	r25, Y+3	; 0x03
    3524:	fc 01       	movw	r30, r24
    3526:	e2 0f       	add	r30, r18
    3528:	f3 1f       	adc	r31, r19
    352a:	80 81       	ld	r24, Z
    352c:	0e 94 63 16 	call	0x2cc6	; 0x2cc6 <LCD_void_Data>
{
	LCD_void_CMD(0x40+(num_ind*8));
	//LCD_void_CMD(0x00);

	u8 loop;
	for (loop = 0; loop < 8; ++loop)
    3530:	89 81       	ldd	r24, Y+1	; 0x01
    3532:	8f 5f       	subi	r24, 0xFF	; 255
    3534:	89 83       	std	Y+1, r24	; 0x01
    3536:	89 81       	ldd	r24, Y+1	; 0x01
    3538:	88 30       	cpi	r24, 0x08	; 8
    353a:	78 f3       	brcs	.-34     	; 0x351a <LCD_Special_Char+0x2e>
		LCD_void_Data(customChar[loop]);
	}
	//LCD_void_CMD(0x00+(num_ind));
	//LCD_void_CMD(0x80);

}
    353c:	0f 90       	pop	r0
    353e:	0f 90       	pop	r0
    3540:	0f 90       	pop	r0
    3542:	0f 90       	pop	r0
    3544:	cf 91       	pop	r28
    3546:	df 91       	pop	r29
    3548:	08 95       	ret

0000354a <LED1_On>:
 */

#include "../INC/LED.h"

void LED1_On(void)
{
    354a:	df 93       	push	r29
    354c:	cf 93       	push	r28
    354e:	cd b7       	in	r28, 0x3d	; 61
    3550:	de b7       	in	r29, 0x3e	; 62
	DIO_Write(HIGH,GRP_1_LED);
    3552:	8f ef       	ldi	r24, 0xFF	; 255
    3554:	60 e0       	ldi	r22, 0x00	; 0
    3556:	0e 94 79 0a 	call	0x14f2	; 0x14f2 <DIO_Write>
}
    355a:	cf 91       	pop	r28
    355c:	df 91       	pop	r29
    355e:	08 95       	ret

00003560 <LED1_Off>:

void LED1_Off(void)
{
    3560:	df 93       	push	r29
    3562:	cf 93       	push	r28
    3564:	cd b7       	in	r28, 0x3d	; 61
    3566:	de b7       	in	r29, 0x3e	; 62
	DIO_Write(LOW,GRP_1_LED);
    3568:	80 e0       	ldi	r24, 0x00	; 0
    356a:	60 e0       	ldi	r22, 0x00	; 0
    356c:	0e 94 79 0a 	call	0x14f2	; 0x14f2 <DIO_Write>
}
    3570:	cf 91       	pop	r28
    3572:	df 91       	pop	r29
    3574:	08 95       	ret

00003576 <LED1_Toggle>:
void LED1_Toggle(void)
{
    3576:	df 93       	push	r29
    3578:	cf 93       	push	r28
    357a:	cd b7       	in	r28, 0x3d	; 61
    357c:	de b7       	in	r29, 0x3e	; 62
	DIO_Toggle(HIGH,GRP_1_LED);
    357e:	8f ef       	ldi	r24, 0xFF	; 255
    3580:	60 e0       	ldi	r22, 0x00	; 0
    3582:	0e 94 07 0b 	call	0x160e	; 0x160e <DIO_Toggle>
}
    3586:	cf 91       	pop	r28
    3588:	df 91       	pop	r29
    358a:	08 95       	ret

0000358c <LED2_On>:

void LED2_On(void)
{
    358c:	df 93       	push	r29
    358e:	cf 93       	push	r28
    3590:	cd b7       	in	r28, 0x3d	; 61
    3592:	de b7       	in	r29, 0x3e	; 62
	DIO_Write(HIGH,GRP_2_LED);
    3594:	8f ef       	ldi	r24, 0xFF	; 255
    3596:	61 e0       	ldi	r22, 0x01	; 1
    3598:	0e 94 79 0a 	call	0x14f2	; 0x14f2 <DIO_Write>
}
    359c:	cf 91       	pop	r28
    359e:	df 91       	pop	r29
    35a0:	08 95       	ret

000035a2 <LED2_Off>:

void LED2_Off(void)
{
    35a2:	df 93       	push	r29
    35a4:	cf 93       	push	r28
    35a6:	cd b7       	in	r28, 0x3d	; 61
    35a8:	de b7       	in	r29, 0x3e	; 62
	DIO_Write(LOW,GRP_2_LED);
    35aa:	80 e0       	ldi	r24, 0x00	; 0
    35ac:	61 e0       	ldi	r22, 0x01	; 1
    35ae:	0e 94 79 0a 	call	0x14f2	; 0x14f2 <DIO_Write>
}
    35b2:	cf 91       	pop	r28
    35b4:	df 91       	pop	r29
    35b6:	08 95       	ret

000035b8 <LED2_Toggle>:

void LED2_Toggle(void)
{
    35b8:	df 93       	push	r29
    35ba:	cf 93       	push	r28
    35bc:	cd b7       	in	r28, 0x3d	; 61
    35be:	de b7       	in	r29, 0x3e	; 62
	DIO_Toggle(HIGH,GRP_2_LED);
    35c0:	8f ef       	ldi	r24, 0xFF	; 255
    35c2:	61 e0       	ldi	r22, 0x01	; 1
    35c4:	0e 94 07 0b 	call	0x160e	; 0x160e <DIO_Toggle>
}
    35c8:	cf 91       	pop	r28
    35ca:	df 91       	pop	r29
    35cc:	08 95       	ret

000035ce <SVNSEG_Display>:
 */

#include "../INC/SVNSEG.h"

void SVNSEG_Display(u8 number)
{
    35ce:	df 93       	push	r29
    35d0:	cf 93       	push	r28
    35d2:	0f 92       	push	r0
    35d4:	cd b7       	in	r28, 0x3d	; 61
    35d6:	de b7       	in	r29, 0x3e	; 62
    35d8:	89 83       	std	Y+1, r24	; 0x01
	DIO_Write(number<<SEVEN_SEG_PIN,GRP_4_SEG1);
    35da:	89 81       	ldd	r24, Y+1	; 0x01
    35dc:	82 95       	swap	r24
    35de:	80 7f       	andi	r24, 0xF0	; 240
    35e0:	63 e0       	ldi	r22, 0x03	; 3
    35e2:	0e 94 79 0a 	call	0x14f2	; 0x14f2 <DIO_Write>
}
    35e6:	0f 90       	pop	r0
    35e8:	cf 91       	pop	r28
    35ea:	df 91       	pop	r29
    35ec:	08 95       	ret

000035ee <SVNSEG1_EN>:

void SVNSEG1_EN(void)
{
    35ee:	df 93       	push	r29
    35f0:	cf 93       	push	r28
    35f2:	cd b7       	in	r28, 0x3d	; 61
    35f4:	de b7       	in	r29, 0x3e	; 62
	DIO_Write(HIGH,GRP_5_SEG1_EN);
    35f6:	8f ef       	ldi	r24, 0xFF	; 255
    35f8:	64 e0       	ldi	r22, 0x04	; 4
    35fa:	0e 94 79 0a 	call	0x14f2	; 0x14f2 <DIO_Write>
}
    35fe:	cf 91       	pop	r28
    3600:	df 91       	pop	r29
    3602:	08 95       	ret

00003604 <SVNSEG1_DEN>:

void SVNSEG1_DEN(void)
{
    3604:	df 93       	push	r29
    3606:	cf 93       	push	r28
    3608:	cd b7       	in	r28, 0x3d	; 61
    360a:	de b7       	in	r29, 0x3e	; 62
	DIO_Write(LOW,GRP_5_SEG1_EN);
    360c:	80 e0       	ldi	r24, 0x00	; 0
    360e:	64 e0       	ldi	r22, 0x04	; 4
    3610:	0e 94 79 0a 	call	0x14f2	; 0x14f2 <DIO_Write>
}
    3614:	cf 91       	pop	r28
    3616:	df 91       	pop	r29
    3618:	08 95       	ret

0000361a <SVNSEG2_EN>:

void SVNSEG2_EN(void)
{
    361a:	df 93       	push	r29
    361c:	cf 93       	push	r28
    361e:	cd b7       	in	r28, 0x3d	; 61
    3620:	de b7       	in	r29, 0x3e	; 62
	DIO_Write(HIGH,GRP_6_SEG2_EN);
    3622:	8f ef       	ldi	r24, 0xFF	; 255
    3624:	65 e0       	ldi	r22, 0x05	; 5
    3626:	0e 94 79 0a 	call	0x14f2	; 0x14f2 <DIO_Write>
}
    362a:	cf 91       	pop	r28
    362c:	df 91       	pop	r29
    362e:	08 95       	ret

00003630 <SVNSEG2_DEN>:
void SVNSEG2_DEN(void)
{
    3630:	df 93       	push	r29
    3632:	cf 93       	push	r28
    3634:	cd b7       	in	r28, 0x3d	; 61
    3636:	de b7       	in	r29, 0x3e	; 62
	DIO_Write(LOW,GRP_6_SEG2_EN);
    3638:	80 e0       	ldi	r24, 0x00	; 0
    363a:	65 e0       	ldi	r22, 0x05	; 5
    363c:	0e 94 79 0a 	call	0x14f2	; 0x14f2 <DIO_Write>
}
    3640:	cf 91       	pop	r28
    3642:	df 91       	pop	r29
    3644:	08 95       	ret

00003646 <APP_STR_CPY>:
 */

#include "APP_Calc.h"

void APP_STR_CPY(u8*arr , u8*copy_value ,u16 size)
{
    3646:	df 93       	push	r29
    3648:	cf 93       	push	r28
    364a:	cd b7       	in	r28, 0x3d	; 61
    364c:	de b7       	in	r29, 0x3e	; 62
    364e:	28 97       	sbiw	r28, 0x08	; 8
    3650:	0f b6       	in	r0, 0x3f	; 63
    3652:	f8 94       	cli
    3654:	de bf       	out	0x3e, r29	; 62
    3656:	0f be       	out	0x3f, r0	; 63
    3658:	cd bf       	out	0x3d, r28	; 61
    365a:	9c 83       	std	Y+4, r25	; 0x04
    365c:	8b 83       	std	Y+3, r24	; 0x03
    365e:	7e 83       	std	Y+6, r23	; 0x06
    3660:	6d 83       	std	Y+5, r22	; 0x05
    3662:	58 87       	std	Y+8, r21	; 0x08
    3664:	4f 83       	std	Y+7, r20	; 0x07
	int i;
	for (i = 0; i < size; ++i)
    3666:	1a 82       	std	Y+2, r1	; 0x02
    3668:	19 82       	std	Y+1, r1	; 0x01
    366a:	15 c0       	rjmp	.+42     	; 0x3696 <APP_STR_CPY+0x50>
	{
		arr[i]=copy_value[i];
    366c:	29 81       	ldd	r18, Y+1	; 0x01
    366e:	3a 81       	ldd	r19, Y+2	; 0x02
    3670:	8b 81       	ldd	r24, Y+3	; 0x03
    3672:	9c 81       	ldd	r25, Y+4	; 0x04
    3674:	dc 01       	movw	r26, r24
    3676:	a2 0f       	add	r26, r18
    3678:	b3 1f       	adc	r27, r19
    367a:	29 81       	ldd	r18, Y+1	; 0x01
    367c:	3a 81       	ldd	r19, Y+2	; 0x02
    367e:	8d 81       	ldd	r24, Y+5	; 0x05
    3680:	9e 81       	ldd	r25, Y+6	; 0x06
    3682:	fc 01       	movw	r30, r24
    3684:	e2 0f       	add	r30, r18
    3686:	f3 1f       	adc	r31, r19
    3688:	80 81       	ld	r24, Z
    368a:	8c 93       	st	X, r24
#include "APP_Calc.h"

void APP_STR_CPY(u8*arr , u8*copy_value ,u16 size)
{
	int i;
	for (i = 0; i < size; ++i)
    368c:	89 81       	ldd	r24, Y+1	; 0x01
    368e:	9a 81       	ldd	r25, Y+2	; 0x02
    3690:	01 96       	adiw	r24, 0x01	; 1
    3692:	9a 83       	std	Y+2, r25	; 0x02
    3694:	89 83       	std	Y+1, r24	; 0x01
    3696:	29 81       	ldd	r18, Y+1	; 0x01
    3698:	3a 81       	ldd	r19, Y+2	; 0x02
    369a:	8f 81       	ldd	r24, Y+7	; 0x07
    369c:	98 85       	ldd	r25, Y+8	; 0x08
    369e:	28 17       	cp	r18, r24
    36a0:	39 07       	cpc	r19, r25
    36a2:	20 f3       	brcs	.-56     	; 0x366c <APP_STR_CPY+0x26>
	{
		arr[i]=copy_value[i];
	}
}
    36a4:	28 96       	adiw	r28, 0x08	; 8
    36a6:	0f b6       	in	r0, 0x3f	; 63
    36a8:	f8 94       	cli
    36aa:	de bf       	out	0x3e, r29	; 62
    36ac:	0f be       	out	0x3f, r0	; 63
    36ae:	cd bf       	out	0x3d, r28	; 61
    36b0:	cf 91       	pop	r28
    36b2:	df 91       	pop	r29
    36b4:	08 95       	ret

000036b6 <APP_STR_clr>:

void APP_STR_clr(u8*arr  ,u16 size)
{
    36b6:	df 93       	push	r29
    36b8:	cf 93       	push	r28
    36ba:	00 d0       	rcall	.+0      	; 0x36bc <APP_STR_clr+0x6>
    36bc:	00 d0       	rcall	.+0      	; 0x36be <APP_STR_clr+0x8>
    36be:	00 d0       	rcall	.+0      	; 0x36c0 <APP_STR_clr+0xa>
    36c0:	cd b7       	in	r28, 0x3d	; 61
    36c2:	de b7       	in	r29, 0x3e	; 62
    36c4:	9c 83       	std	Y+4, r25	; 0x04
    36c6:	8b 83       	std	Y+3, r24	; 0x03
    36c8:	7e 83       	std	Y+6, r23	; 0x06
    36ca:	6d 83       	std	Y+5, r22	; 0x05
	int i;
	for (i = 0; i < size; ++i)
    36cc:	1a 82       	std	Y+2, r1	; 0x02
    36ce:	19 82       	std	Y+1, r1	; 0x01
    36d0:	0d c0       	rjmp	.+26     	; 0x36ec <APP_STR_clr+0x36>
	{
		arr[i]=0;
    36d2:	29 81       	ldd	r18, Y+1	; 0x01
    36d4:	3a 81       	ldd	r19, Y+2	; 0x02
    36d6:	8b 81       	ldd	r24, Y+3	; 0x03
    36d8:	9c 81       	ldd	r25, Y+4	; 0x04
    36da:	fc 01       	movw	r30, r24
    36dc:	e2 0f       	add	r30, r18
    36de:	f3 1f       	adc	r31, r19
    36e0:	10 82       	st	Z, r1
}

void APP_STR_clr(u8*arr  ,u16 size)
{
	int i;
	for (i = 0; i < size; ++i)
    36e2:	89 81       	ldd	r24, Y+1	; 0x01
    36e4:	9a 81       	ldd	r25, Y+2	; 0x02
    36e6:	01 96       	adiw	r24, 0x01	; 1
    36e8:	9a 83       	std	Y+2, r25	; 0x02
    36ea:	89 83       	std	Y+1, r24	; 0x01
    36ec:	29 81       	ldd	r18, Y+1	; 0x01
    36ee:	3a 81       	ldd	r19, Y+2	; 0x02
    36f0:	8d 81       	ldd	r24, Y+5	; 0x05
    36f2:	9e 81       	ldd	r25, Y+6	; 0x06
    36f4:	28 17       	cp	r18, r24
    36f6:	39 07       	cpc	r19, r25
    36f8:	60 f3       	brcs	.-40     	; 0x36d2 <APP_STR_clr+0x1c>
	{
		arr[i]=0;
	}
}
    36fa:	26 96       	adiw	r28, 0x06	; 6
    36fc:	0f b6       	in	r0, 0x3f	; 63
    36fe:	f8 94       	cli
    3700:	de bf       	out	0x3e, r29	; 62
    3702:	0f be       	out	0x3f, r0	; 63
    3704:	cd bf       	out	0x3d, r28	; 61
    3706:	cf 91       	pop	r28
    3708:	df 91       	pop	r29
    370a:	08 95       	ret

0000370c <APP_CALC_atoi>:
void APP_CALC_atoi(u8 number, u8* arr, u8 size)
{
    370c:	df 93       	push	r29
    370e:	cf 93       	push	r28
    3710:	00 d0       	rcall	.+0      	; 0x3712 <APP_CALC_atoi+0x6>
    3712:	00 d0       	rcall	.+0      	; 0x3714 <APP_CALC_atoi+0x8>
    3714:	cd b7       	in	r28, 0x3d	; 61
    3716:	de b7       	in	r29, 0x3e	; 62
    3718:	89 83       	std	Y+1, r24	; 0x01
    371a:	7b 83       	std	Y+3, r23	; 0x03
    371c:	6a 83       	std	Y+2, r22	; 0x02
    371e:	4c 83       	std	Y+4, r20	; 0x04

}
    3720:	0f 90       	pop	r0
    3722:	0f 90       	pop	r0
    3724:	0f 90       	pop	r0
    3726:	0f 90       	pop	r0
    3728:	cf 91       	pop	r28
    372a:	df 91       	pop	r29
    372c:	08 95       	ret

0000372e <APP_CALCUTATOR>:
u8 operation;
u8 operation_selected=0;
u8 result=0;

void APP_CALCUTATOR(void)
{
    372e:	df 93       	push	r29
    3730:	cf 93       	push	r28
    3732:	00 d0       	rcall	.+0      	; 0x3734 <APP_CALCUTATOR+0x6>
    3734:	cd b7       	in	r28, 0x3d	; 61
    3736:	de b7       	in	r29, 0x3e	; 62
		//CALC_KPD(lcd_display_1, curser);

		if(update_screen)
    3738:	80 91 7d 04 	lds	r24, 0x047D
    373c:	88 23       	and	r24, r24
    373e:	11 f0       	breq	.+4      	; 0x3744 <APP_CALCUTATOR+0x16>
		{
			 CALC_SreenRefresh();
    3740:	0e 94 c2 1c 	call	0x3984	; 0x3984 <CALC_SreenRefresh>
		}

		int i;
		for(i=0;i<curser;i++)
    3744:	1a 82       	std	Y+2, r1	; 0x02
    3746:	19 82       	std	Y+1, r1	; 0x01
    3748:	58 c0       	rjmp	.+176    	; 0x37fa <APP_CALCUTATOR+0xcc>
		{
			if(lcd_display_1[i]>='0' && lcd_display_1[i]<='9')
    374a:	89 81       	ldd	r24, Y+1	; 0x01
    374c:	9a 81       	ldd	r25, Y+2	; 0x02
    374e:	fc 01       	movw	r30, r24
    3750:	ee 50       	subi	r30, 0x0E	; 14
    3752:	fc 4f       	sbci	r31, 0xFC	; 252
    3754:	80 81       	ld	r24, Z
    3756:	80 33       	cpi	r24, 0x30	; 48
    3758:	40 f1       	brcs	.+80     	; 0x37aa <APP_CALCUTATOR+0x7c>
    375a:	89 81       	ldd	r24, Y+1	; 0x01
    375c:	9a 81       	ldd	r25, Y+2	; 0x02
    375e:	fc 01       	movw	r30, r24
    3760:	ee 50       	subi	r30, 0x0E	; 14
    3762:	fc 4f       	sbci	r31, 0xFC	; 252
    3764:	80 81       	ld	r24, Z
    3766:	8a 33       	cpi	r24, 0x3A	; 58
    3768:	00 f5       	brcc	.+64     	; 0x37aa <APP_CALCUTATOR+0x7c>
			{
				if(first_number_flag==0)
    376a:	80 91 7e 04 	lds	r24, 0x047E
    376e:	88 23       	and	r24, r24
    3770:	61 f4       	brne	.+24     	; 0x378a <APP_CALCUTATOR+0x5c>
				{
					first_number=lcd_display_1[i];
    3772:	89 81       	ldd	r24, Y+1	; 0x01
    3774:	9a 81       	ldd	r25, Y+2	; 0x02
    3776:	fc 01       	movw	r30, r24
    3778:	ee 50       	subi	r30, 0x0E	; 14
    377a:	fc 4f       	sbci	r31, 0xFC	; 252
    377c:	80 81       	ld	r24, Z
    377e:	80 93 8b 04 	sts	0x048B, r24
					first_number_flag=1;
    3782:	81 e0       	ldi	r24, 0x01	; 1
    3784:	80 93 7e 04 	sts	0x047E, r24
    3788:	33 c0       	rjmp	.+102    	; 0x37f0 <APP_CALCUTATOR+0xc2>

				}
				else if(first_number_flag ==1)
    378a:	80 91 7e 04 	lds	r24, 0x047E
    378e:	81 30       	cpi	r24, 0x01	; 1
    3790:	79 f5       	brne	.+94     	; 0x37f0 <APP_CALCUTATOR+0xc2>
				{
					second_number=lcd_display_1[i];
    3792:	89 81       	ldd	r24, Y+1	; 0x01
    3794:	9a 81       	ldd	r25, Y+2	; 0x02
    3796:	fc 01       	movw	r30, r24
    3798:	ee 50       	subi	r30, 0x0E	; 14
    379a:	fc 4f       	sbci	r31, 0xFC	; 252
    379c:	80 81       	ld	r24, Z
    379e:	80 93 89 04 	sts	0x0489, r24
					second_number_flag=1;
    37a2:	81 e0       	ldi	r24, 0x01	; 1
    37a4:	80 93 7f 04 	sts	0x047F, r24
    37a8:	23 c0       	rjmp	.+70     	; 0x37f0 <APP_CALCUTATOR+0xc2>


			}
			else
			{
				if(operation_selected ==0)
    37aa:	80 91 80 04 	lds	r24, 0x0480
    37ae:	88 23       	and	r24, r24
    37b0:	49 f4       	brne	.+18     	; 0x37c4 <APP_CALCUTATOR+0x96>
				{
					APP_operation(lcd_display_1[i]);
    37b2:	89 81       	ldd	r24, Y+1	; 0x01
    37b4:	9a 81       	ldd	r25, Y+2	; 0x02
    37b6:	fc 01       	movw	r30, r24
    37b8:	ee 50       	subi	r30, 0x0E	; 14
    37ba:	fc 4f       	sbci	r31, 0xFC	; 252
    37bc:	80 81       	ld	r24, Z
    37be:	0e 94 0c 1c 	call	0x3818	; 0x3818 <APP_operation>
    37c2:	16 c0       	rjmp	.+44     	; 0x37f0 <APP_CALCUTATOR+0xc2>
				}
				else if(operation_selected !=0 && second_number_flag ==1)
    37c4:	80 91 80 04 	lds	r24, 0x0480
    37c8:	88 23       	and	r24, r24
    37ca:	91 f0       	breq	.+36     	; 0x37f0 <APP_CALCUTATOR+0xc2>
    37cc:	80 91 7f 04 	lds	r24, 0x047F
    37d0:	81 30       	cpi	r24, 0x01	; 1
    37d2:	71 f4       	brne	.+28     	; 0x37f0 <APP_CALCUTATOR+0xc2>
				{
					APP_operation('=');
    37d4:	8d e3       	ldi	r24, 0x3D	; 61
    37d6:	0e 94 0c 1c 	call	0x3818	; 0x3818 <APP_operation>
					//APP_STR_clr(lcd_display_1,16);
					//curser=0;
					first_number=result+'0';
    37da:	80 91 81 04 	lds	r24, 0x0481
    37de:	80 5d       	subi	r24, 0xD0	; 208
    37e0:	80 93 8b 04 	sts	0x048B, r24
					first_number_flag=1;
    37e4:	81 e0       	ldi	r24, 0x01	; 1
    37e6:	80 93 7e 04 	sts	0x047E, r24
					//lcd_display_1[curser]=first_number;
					update_screen=1;
    37ea:	81 e0       	ldi	r24, 0x01	; 1
    37ec:	80 93 7d 04 	sts	0x047D, r24
		{
			 CALC_SreenRefresh();
		}

		int i;
		for(i=0;i<curser;i++)
    37f0:	89 81       	ldd	r24, Y+1	; 0x01
    37f2:	9a 81       	ldd	r25, Y+2	; 0x02
    37f4:	01 96       	adiw	r24, 0x01	; 1
    37f6:	9a 83       	std	Y+2, r25	; 0x02
    37f8:	89 83       	std	Y+1, r24	; 0x01
    37fa:	80 91 7c 04 	lds	r24, 0x047C
    37fe:	28 2f       	mov	r18, r24
    3800:	30 e0       	ldi	r19, 0x00	; 0
    3802:	89 81       	ldd	r24, Y+1	; 0x01
    3804:	9a 81       	ldd	r25, Y+2	; 0x02
    3806:	82 17       	cp	r24, r18
    3808:	93 07       	cpc	r25, r19
    380a:	0c f4       	brge	.+2      	; 0x380e <APP_CALCUTATOR+0xe0>
    380c:	9e cf       	rjmp	.-196    	; 0x374a <APP_CALCUTATOR+0x1c>

			}
		}


}
    380e:	0f 90       	pop	r0
    3810:	0f 90       	pop	r0
    3812:	cf 91       	pop	r28
    3814:	df 91       	pop	r29
    3816:	08 95       	ret

00003818 <APP_operation>:

void APP_operation(u8 opprant)
{
    3818:	df 93       	push	r29
    381a:	cf 93       	push	r28
    381c:	00 d0       	rcall	.+0      	; 0x381e <APP_operation+0x6>
    381e:	00 d0       	rcall	.+0      	; 0x3820 <APP_operation+0x8>
    3820:	cd b7       	in	r28, 0x3d	; 61
    3822:	de b7       	in	r29, 0x3e	; 62
    3824:	8a 83       	std	Y+2, r24	; 0x02
	switch (opprant)
    3826:	8a 81       	ldd	r24, Y+2	; 0x02
    3828:	28 2f       	mov	r18, r24
    382a:	30 e0       	ldi	r19, 0x00	; 0
    382c:	3c 83       	std	Y+4, r19	; 0x04
    382e:	2b 83       	std	Y+3, r18	; 0x03
    3830:	8b 81       	ldd	r24, Y+3	; 0x03
    3832:	9c 81       	ldd	r25, Y+4	; 0x04
    3834:	8d 33       	cpi	r24, 0x3D	; 61
    3836:	91 05       	cpc	r25, r1
    3838:	e1 f1       	breq	.+120    	; 0x38b2 <APP_operation+0x9a>
    383a:	2b 81       	ldd	r18, Y+3	; 0x03
    383c:	3c 81       	ldd	r19, Y+4	; 0x04
    383e:	23 34       	cpi	r18, 0x43	; 67
    3840:	31 05       	cpc	r19, r1
    3842:	39 f0       	breq	.+14     	; 0x3852 <APP_operation+0x3a>
    3844:	8b 81       	ldd	r24, Y+3	; 0x03
    3846:	9c 81       	ldd	r25, Y+4	; 0x04
    3848:	8b 32       	cpi	r24, 0x2B	; 43
    384a:	91 05       	cpc	r25, r1
    384c:	09 f4       	brne	.+2      	; 0x3850 <APP_operation+0x38>
    384e:	63 c0       	rjmp	.+198    	; 0x3916 <APP_operation+0xfe>
    3850:	69 c0       	rjmp	.+210    	; 0x3924 <APP_operation+0x10c>
	{
		case'C':
		{

			 curser=0;
    3852:	10 92 7c 04 	sts	0x047C, r1
			 update_screen=0;
    3856:	10 92 7d 04 	sts	0x047D, r1
			 first_number=0;
    385a:	10 92 8b 04 	sts	0x048B, r1
			 first_number_flag=0;
    385e:	10 92 7e 04 	sts	0x047E, r1
			 second_number=0;
    3862:	10 92 89 04 	sts	0x0489, r1
			 second_number_flag=0;
    3866:	10 92 7f 04 	sts	0x047F, r1
			 operation=0;
    386a:	10 92 8a 04 	sts	0x048A, r1
			 operation_selected=0;
    386e:	10 92 80 04 	sts	0x0480, r1
			 result=0;
    3872:	10 92 81 04 	sts	0x0481, r1
			u8 j=0;
    3876:	19 82       	std	Y+1, r1	; 0x01
			for(j=0;j<16;j++)
    3878:	19 82       	std	Y+1, r1	; 0x01
    387a:	11 c0       	rjmp	.+34     	; 0x389e <APP_operation+0x86>
			{
				lcd_display_1[j]=0;
    387c:	89 81       	ldd	r24, Y+1	; 0x01
    387e:	88 2f       	mov	r24, r24
    3880:	90 e0       	ldi	r25, 0x00	; 0
    3882:	fc 01       	movw	r30, r24
    3884:	ee 50       	subi	r30, 0x0E	; 14
    3886:	fc 4f       	sbci	r31, 0xFC	; 252
    3888:	10 82       	st	Z, r1
				lcd_display_2[j]=0;
    388a:	89 81       	ldd	r24, Y+1	; 0x01
    388c:	88 2f       	mov	r24, r24
    388e:	90 e0       	ldi	r25, 0x00	; 0
    3890:	fc 01       	movw	r30, r24
    3892:	ee 5f       	subi	r30, 0xFE	; 254
    3894:	fb 4f       	sbci	r31, 0xFB	; 251
    3896:	10 82       	st	Z, r1
			 second_number_flag=0;
			 operation=0;
			 operation_selected=0;
			 result=0;
			u8 j=0;
			for(j=0;j<16;j++)
    3898:	89 81       	ldd	r24, Y+1	; 0x01
    389a:	8f 5f       	subi	r24, 0xFF	; 255
    389c:	89 83       	std	Y+1, r24	; 0x01
    389e:	89 81       	ldd	r24, Y+1	; 0x01
    38a0:	80 31       	cpi	r24, 0x10	; 16
    38a2:	60 f3       	brcs	.-40     	; 0x387c <APP_operation+0x64>
			{
				lcd_display_1[j]=0;
				lcd_display_2[j]=0;
			}

			LCD_Clear();
    38a4:	0e 94 44 1a 	call	0x3488	; 0x3488 <LCD_Clear>
			LCD_GoTO(1,1);
    38a8:	81 e0       	ldi	r24, 0x01	; 1
    38aa:	61 e0       	ldi	r22, 0x01	; 1
    38ac:	0e 94 a4 19 	call	0x3348	; 0x3348 <LCD_GoTO>
    38b0:	42 c0       	rjmp	.+132    	; 0x3936 <APP_operation+0x11e>
			break;
		}
		case '=':
		{
			if(first_number_flag==1 && operation_selected ==1  && second_number_flag ==1 && operation_selected!=0 )
    38b2:	80 91 7e 04 	lds	r24, 0x047E
    38b6:	81 30       	cpi	r24, 0x01	; 1
    38b8:	09 f0       	breq	.+2      	; 0x38bc <APP_operation+0xa4>
    38ba:	3d c0       	rjmp	.+122    	; 0x3936 <APP_operation+0x11e>
    38bc:	80 91 80 04 	lds	r24, 0x0480
    38c0:	81 30       	cpi	r24, 0x01	; 1
    38c2:	c9 f5       	brne	.+114    	; 0x3936 <APP_operation+0x11e>
    38c4:	80 91 7f 04 	lds	r24, 0x047F
    38c8:	81 30       	cpi	r24, 0x01	; 1
    38ca:	a9 f5       	brne	.+106    	; 0x3936 <APP_operation+0x11e>
    38cc:	80 91 80 04 	lds	r24, 0x0480
    38d0:	88 23       	and	r24, r24
    38d2:	89 f1       	breq	.+98     	; 0x3936 <APP_operation+0x11e>
			{
				switch (operation)
    38d4:	80 91 8a 04 	lds	r24, 0x048A
    38d8:	88 2f       	mov	r24, r24
    38da:	90 e0       	ldi	r25, 0x00	; 0
    38dc:	81 30       	cpi	r24, 0x01	; 1
    38de:	91 05       	cpc	r25, r1
    38e0:	51 f5       	brne	.+84     	; 0x3936 <APP_operation+0x11e>
				{
					case 1:
					{
						result=(first_number-'0')+(second_number-'0');
    38e2:	90 91 8b 04 	lds	r25, 0x048B
    38e6:	80 91 89 04 	lds	r24, 0x0489
    38ea:	89 0f       	add	r24, r25
    38ec:	80 56       	subi	r24, 0x60	; 96
    38ee:	80 93 81 04 	sts	0x0481, r24
						lcd_display_2[0]=result+'0';
    38f2:	80 91 81 04 	lds	r24, 0x0481
    38f6:	80 5d       	subi	r24, 0xD0	; 208
    38f8:	80 93 02 04 	sts	0x0402, r24
						lcd_display_2[15]='\0';
    38fc:	10 92 11 04 	sts	0x0411, r1
						update_screen=1;
    3900:	81 e0       	ldi	r24, 0x01	; 1
    3902:	80 93 7d 04 	sts	0x047D, r24
						operation=0;
    3906:	10 92 8a 04 	sts	0x048A, r1
						operation_selected--;
    390a:	80 91 80 04 	lds	r24, 0x0480
    390e:	81 50       	subi	r24, 0x01	; 1
    3910:	80 93 80 04 	sts	0x0480, r24
    3914:	10 c0       	rjmp	.+32     	; 0x3936 <APP_operation+0x11e>

			break;
		}
		case '+':
		{
			operation=1;
    3916:	81 e0       	ldi	r24, 0x01	; 1
    3918:	80 93 8a 04 	sts	0x048A, r24
			//first_number_flag=1;
			operation_selected=1;
    391c:	81 e0       	ldi	r24, 0x01	; 1
    391e:	80 93 80 04 	sts	0x0480, r24
    3922:	09 c0       	rjmp	.+18     	; 0x3936 <APP_operation+0x11e>
			break;
		}

		default:
		{
			APP_STR_CPY(lcd_display_2,"error",16);
    3924:	82 e0       	ldi	r24, 0x02	; 2
    3926:	94 e0       	ldi	r25, 0x04	; 4
    3928:	20 e6       	ldi	r18, 0x60	; 96
    392a:	30 e0       	ldi	r19, 0x00	; 0
    392c:	b9 01       	movw	r22, r18
    392e:	40 e1       	ldi	r20, 0x10	; 16
    3930:	50 e0       	ldi	r21, 0x00	; 0
    3932:	0e 94 23 1b 	call	0x3646	; 0x3646 <APP_STR_CPY>
			//update_screen=1;
			break;
		}

	}
}
    3936:	0f 90       	pop	r0
    3938:	0f 90       	pop	r0
    393a:	0f 90       	pop	r0
    393c:	0f 90       	pop	r0
    393e:	cf 91       	pop	r28
    3940:	df 91       	pop	r29
    3942:	08 95       	ret

00003944 <CALC_KPD>:

u8 CALC_KPD(void)
{
    3944:	df 93       	push	r29
    3946:	cf 93       	push	r28
    3948:	00 d0       	rcall	.+0      	; 0x394a <CALC_KPD+0x6>
    394a:	0f 92       	push	r0
    394c:	cd b7       	in	r28, 0x3d	; 61
    394e:	de b7       	in	r29, 0x3e	; 62
	u8 key,lastKey,return_key;
	key = KPD_Scan();
    3950:	0e 94 b5 12 	call	0x256a	; 0x256a <KPD_Scan>
    3954:	8b 83       	std	Y+3, r24	; 0x03
	lastKey = key;
    3956:	8b 81       	ldd	r24, Y+3	; 0x03
    3958:	8a 83       	std	Y+2, r24	; 0x02
	key = KPD_Scan();
    395a:	0e 94 b5 12 	call	0x256a	; 0x256a <KPD_Scan>
    395e:	8b 83       	std	Y+3, r24	; 0x03
	if(key != lastKey && key!=0)
    3960:	9b 81       	ldd	r25, Y+3	; 0x03
    3962:	8a 81       	ldd	r24, Y+2	; 0x02
    3964:	98 17       	cp	r25, r24
    3966:	31 f0       	breq	.+12     	; 0x3974 <CALC_KPD+0x30>
    3968:	8b 81       	ldd	r24, Y+3	; 0x03
    396a:	88 23       	and	r24, r24
    396c:	19 f0       	breq	.+6      	; 0x3974 <CALC_KPD+0x30>
	{
		return_key=key;
    396e:	8b 81       	ldd	r24, Y+3	; 0x03
    3970:	89 83       	std	Y+1, r24	; 0x01
    3972:	01 c0       	rjmp	.+2      	; 0x3976 <CALC_KPD+0x32>
	}
	else
	{
		return_key=0;
    3974:	19 82       	std	Y+1, r1	; 0x01
	}
	return return_key;
    3976:	89 81       	ldd	r24, Y+1	; 0x01
}
    3978:	0f 90       	pop	r0
    397a:	0f 90       	pop	r0
    397c:	0f 90       	pop	r0
    397e:	cf 91       	pop	r28
    3980:	df 91       	pop	r29
    3982:	08 95       	ret

00003984 <CALC_SreenRefresh>:

void CALC_SreenRefresh(void)
{
    3984:	df 93       	push	r29
    3986:	cf 93       	push	r28
    3988:	cd b7       	in	r28, 0x3d	; 61
    398a:	de b7       	in	r29, 0x3e	; 62
	if (update_screen)
    398c:	80 91 7d 04 	lds	r24, 0x047D
    3990:	88 23       	and	r24, r24
    3992:	d1 f0       	breq	.+52     	; 0x39c8 <CALC_SreenRefresh+0x44>
	{
		LCD_Clear();
    3994:	0e 94 44 1a 	call	0x3488	; 0x3488 <LCD_Clear>
		LCD_GoTO(1,1);
    3998:	81 e0       	ldi	r24, 0x01	; 1
    399a:	61 e0       	ldi	r22, 0x01	; 1
    399c:	0e 94 a4 19 	call	0x3348	; 0x3348 <LCD_GoTO>
		LCD_void_SendString(lcd_display_1);
    39a0:	82 ef       	ldi	r24, 0xF2	; 242
    39a2:	93 e0       	ldi	r25, 0x03	; 3
    39a4:	0e 94 88 19 	call	0x3310	; 0x3310 <LCD_void_SendString>
		LCD_GoTO(1,2);
    39a8:	81 e0       	ldi	r24, 0x01	; 1
    39aa:	62 e0       	ldi	r22, 0x02	; 2
    39ac:	0e 94 a4 19 	call	0x3348	; 0x3348 <LCD_GoTO>
		LCD_void_SendString(lcd_display_2);
    39b0:	82 e0       	ldi	r24, 0x02	; 2
    39b2:	94 e0       	ldi	r25, 0x04	; 4
    39b4:	0e 94 88 19 	call	0x3310	; 0x3310 <LCD_void_SendString>
		LCD_GoTO(curser+1,1);
    39b8:	80 91 7c 04 	lds	r24, 0x047C
    39bc:	8f 5f       	subi	r24, 0xFF	; 255
    39be:	61 e0       	ldi	r22, 0x01	; 1
    39c0:	0e 94 a4 19 	call	0x3348	; 0x3348 <LCD_GoTO>
		update_screen=0;
    39c4:	10 92 7d 04 	sts	0x047D, r1
	}

}
    39c8:	cf 91       	pop	r28
    39ca:	df 91       	pop	r29
    39cc:	08 95       	ret

000039ce <CALC_getNumber>:

void CALC_getNumber(void)
{
    39ce:	df 93       	push	r29
    39d0:	cf 93       	push	r28
    39d2:	00 d0       	rcall	.+0      	; 0x39d4 <CALC_getNumber+0x6>
    39d4:	cd b7       	in	r28, 0x3d	; 61
    39d6:	de b7       	in	r29, 0x3e	; 62
	static u16 number1=0;
	static u16 number2=0;
	static u32 result=0;
	static u8 index=0;
	u8 temp;
	key =CALC_KPD();
    39d8:	0e 94 a2 1c 	call	0x3944	; 0x3944 <CALC_KPD>
    39dc:	8a 83       	std	Y+2, r24	; 0x02

	if (key !=0 )
    39de:	8a 81       	ldd	r24, Y+2	; 0x02
    39e0:	88 23       	and	r24, r24
    39e2:	09 f4       	brne	.+2      	; 0x39e6 <CALC_getNumber+0x18>
    39e4:	c2 c0       	rjmp	.+388    	; 0x3b6a <CALC_getNumber+0x19c>
	{
		if (index <5 && key>='0' && key<='9')
    39e6:	80 91 82 04 	lds	r24, 0x0482
    39ea:	85 30       	cpi	r24, 0x05	; 5
    39ec:	08 f0       	brcs	.+2      	; 0x39f0 <CALC_getNumber+0x22>
    39ee:	62 c0       	rjmp	.+196    	; 0x3ab4 <CALC_getNumber+0xe6>
    39f0:	8a 81       	ldd	r24, Y+2	; 0x02
    39f2:	80 33       	cpi	r24, 0x30	; 48
    39f4:	08 f4       	brcc	.+2      	; 0x39f8 <CALC_getNumber+0x2a>
    39f6:	5e c0       	rjmp	.+188    	; 0x3ab4 <CALC_getNumber+0xe6>
    39f8:	8a 81       	ldd	r24, Y+2	; 0x02
    39fa:	8a 33       	cpi	r24, 0x3A	; 58
    39fc:	08 f0       	brcs	.+2      	; 0x3a00 <CALC_getNumber+0x32>
    39fe:	5a c0       	rjmp	.+180    	; 0x3ab4 <CALC_getNumber+0xe6>
		{
			if (operation == 0 )
    3a00:	80 91 8a 04 	lds	r24, 0x048A
    3a04:	88 23       	and	r24, r24
    3a06:	59 f5       	brne	.+86     	; 0x3a5e <CALC_getNumber+0x90>
			{
				number1=(10*index)+(key-'0');
    3a08:	80 91 82 04 	lds	r24, 0x0482
    3a0c:	88 2f       	mov	r24, r24
    3a0e:	90 e0       	ldi	r25, 0x00	; 0
    3a10:	9c 01       	movw	r18, r24
    3a12:	22 0f       	add	r18, r18
    3a14:	33 1f       	adc	r19, r19
    3a16:	c9 01       	movw	r24, r18
    3a18:	88 0f       	add	r24, r24
    3a1a:	99 1f       	adc	r25, r25
    3a1c:	88 0f       	add	r24, r24
    3a1e:	99 1f       	adc	r25, r25
    3a20:	28 0f       	add	r18, r24
    3a22:	39 1f       	adc	r19, r25
    3a24:	8a 81       	ldd	r24, Y+2	; 0x02
    3a26:	88 2f       	mov	r24, r24
    3a28:	90 e0       	ldi	r25, 0x00	; 0
    3a2a:	c0 97       	sbiw	r24, 0x30	; 48
    3a2c:	82 0f       	add	r24, r18
    3a2e:	93 1f       	adc	r25, r19
    3a30:	90 93 88 04 	sts	0x0488, r25
    3a34:	80 93 87 04 	sts	0x0487, r24
				lcd_display_1[index+1]=key;
    3a38:	80 91 82 04 	lds	r24, 0x0482
    3a3c:	88 2f       	mov	r24, r24
    3a3e:	90 e0       	ldi	r25, 0x00	; 0
    3a40:	01 96       	adiw	r24, 0x01	; 1
    3a42:	fc 01       	movw	r30, r24
    3a44:	ee 50       	subi	r30, 0x0E	; 14
    3a46:	fc 4f       	sbci	r31, 0xFC	; 252
    3a48:	8a 81       	ldd	r24, Y+2	; 0x02
    3a4a:	80 83       	st	Z, r24
				index++;
    3a4c:	80 91 82 04 	lds	r24, 0x0482
    3a50:	8f 5f       	subi	r24, 0xFF	; 255
    3a52:	80 93 82 04 	sts	0x0482, r24
				update_screen=1;
    3a56:	81 e0       	ldi	r24, 0x01	; 1
    3a58:	80 93 7d 04 	sts	0x047D, r24
    3a5c:	86 c0       	rjmp	.+268    	; 0x3b6a <CALC_getNumber+0x19c>
			}
			else
			{
				number2=(10*index)+(key-'0');
    3a5e:	80 91 82 04 	lds	r24, 0x0482
    3a62:	88 2f       	mov	r24, r24
    3a64:	90 e0       	ldi	r25, 0x00	; 0
    3a66:	9c 01       	movw	r18, r24
    3a68:	22 0f       	add	r18, r18
    3a6a:	33 1f       	adc	r19, r19
    3a6c:	c9 01       	movw	r24, r18
    3a6e:	88 0f       	add	r24, r24
    3a70:	99 1f       	adc	r25, r25
    3a72:	88 0f       	add	r24, r24
    3a74:	99 1f       	adc	r25, r25
    3a76:	28 0f       	add	r18, r24
    3a78:	39 1f       	adc	r19, r25
    3a7a:	8a 81       	ldd	r24, Y+2	; 0x02
    3a7c:	88 2f       	mov	r24, r24
    3a7e:	90 e0       	ldi	r25, 0x00	; 0
    3a80:	c0 97       	sbiw	r24, 0x30	; 48
    3a82:	82 0f       	add	r24, r18
    3a84:	93 1f       	adc	r25, r19
    3a86:	90 93 86 04 	sts	0x0486, r25
    3a8a:	80 93 85 04 	sts	0x0485, r24
				lcd_display_1[index+9]=key;
    3a8e:	80 91 82 04 	lds	r24, 0x0482
    3a92:	88 2f       	mov	r24, r24
    3a94:	90 e0       	ldi	r25, 0x00	; 0
    3a96:	09 96       	adiw	r24, 0x09	; 9
    3a98:	fc 01       	movw	r30, r24
    3a9a:	ee 50       	subi	r30, 0x0E	; 14
    3a9c:	fc 4f       	sbci	r31, 0xFC	; 252
    3a9e:	8a 81       	ldd	r24, Y+2	; 0x02
    3aa0:	80 83       	st	Z, r24
				index++;
    3aa2:	80 91 82 04 	lds	r24, 0x0482
    3aa6:	8f 5f       	subi	r24, 0xFF	; 255
    3aa8:	80 93 82 04 	sts	0x0482, r24
				update_screen=1;
    3aac:	81 e0       	ldi	r24, 0x01	; 1
    3aae:	80 93 7d 04 	sts	0x047D, r24
    3ab2:	5b c0       	rjmp	.+182    	; 0x3b6a <CALC_getNumber+0x19c>
			}

		}
		else if(key =='+')
    3ab4:	8a 81       	ldd	r24, Y+2	; 0x02
    3ab6:	8b 32       	cpi	r24, 0x2B	; 43
    3ab8:	61 f4       	brne	.+24     	; 0x3ad2 <CALC_getNumber+0x104>
		{
			operation=1;
    3aba:	81 e0       	ldi	r24, 0x01	; 1
    3abc:	80 93 8a 04 	sts	0x048A, r24
			lcd_display_1[7]=key;
    3ac0:	8a 81       	ldd	r24, Y+2	; 0x02
    3ac2:	80 93 f9 03 	sts	0x03F9, r24
			update_screen=1;
    3ac6:	81 e0       	ldi	r24, 0x01	; 1
    3ac8:	80 93 7d 04 	sts	0x047D, r24
			index=0;
    3acc:	10 92 82 04 	sts	0x0482, r1
    3ad0:	4c c0       	rjmp	.+152    	; 0x3b6a <CALC_getNumber+0x19c>
		}
		else if(key =='=')
    3ad2:	8a 81       	ldd	r24, Y+2	; 0x02
    3ad4:	8d 33       	cpi	r24, 0x3D	; 61
    3ad6:	09 f0       	breq	.+2      	; 0x3ada <CALC_getNumber+0x10c>
    3ad8:	48 c0       	rjmp	.+144    	; 0x3b6a <CALC_getNumber+0x19c>
		{

			lcd_display_1[15]=key;
    3ada:	8a 81       	ldd	r24, Y+2	; 0x02
    3adc:	80 93 01 04 	sts	0x0401, r24
			switch (operation) {
    3ae0:	80 91 8a 04 	lds	r24, 0x048A
    3ae4:	88 2f       	mov	r24, r24
    3ae6:	90 e0       	ldi	r25, 0x00	; 0
    3ae8:	81 30       	cpi	r24, 0x01	; 1
    3aea:	91 05       	cpc	r25, r1
    3aec:	c9 f5       	brne	.+114    	; 0x3b60 <CALC_getNumber+0x192>
				case 1:
				{
					result=number1+number2;
    3aee:	20 91 87 04 	lds	r18, 0x0487
    3af2:	30 91 88 04 	lds	r19, 0x0488
    3af6:	80 91 85 04 	lds	r24, 0x0485
    3afa:	90 91 86 04 	lds	r25, 0x0486
    3afe:	82 0f       	add	r24, r18
    3b00:	93 1f       	adc	r25, r19
    3b02:	90 93 84 04 	sts	0x0484, r25
    3b06:	80 93 83 04 	sts	0x0483, r24
					temp=result;
    3b0a:	80 91 83 04 	lds	r24, 0x0483
    3b0e:	90 91 84 04 	lds	r25, 0x0484
    3b12:	89 83       	std	Y+1, r24	; 0x01
					index=0;
    3b14:	10 92 82 04 	sts	0x0482, r1
    3b18:	20 c0       	rjmp	.+64     	; 0x3b5a <CALC_getNumber+0x18c>
					//APP_STR_CPY(lcd_display_2,"Result =",7);
					while(temp)
					{
						lcd_display_2[12-index]= temp%10 +'0';
    3b1a:	80 91 82 04 	lds	r24, 0x0482
    3b1e:	28 2f       	mov	r18, r24
    3b20:	30 e0       	ldi	r19, 0x00	; 0
    3b22:	8c e0       	ldi	r24, 0x0C	; 12
    3b24:	90 e0       	ldi	r25, 0x00	; 0
    3b26:	ac 01       	movw	r20, r24
    3b28:	42 1b       	sub	r20, r18
    3b2a:	53 0b       	sbc	r21, r19
    3b2c:	9a 01       	movw	r18, r20
    3b2e:	89 81       	ldd	r24, Y+1	; 0x01
    3b30:	9a e0       	ldi	r25, 0x0A	; 10
    3b32:	69 2f       	mov	r22, r25
    3b34:	0e 94 b6 3c 	call	0x796c	; 0x796c <__udivmodqi4>
    3b38:	89 2f       	mov	r24, r25
    3b3a:	80 5d       	subi	r24, 0xD0	; 208
    3b3c:	f9 01       	movw	r30, r18
    3b3e:	ee 5f       	subi	r30, 0xFE	; 254
    3b40:	fb 4f       	sbci	r31, 0xFB	; 251
    3b42:	80 83       	st	Z, r24
						temp/=10;
    3b44:	89 81       	ldd	r24, Y+1	; 0x01
    3b46:	9a e0       	ldi	r25, 0x0A	; 10
    3b48:	69 2f       	mov	r22, r25
    3b4a:	0e 94 b6 3c 	call	0x796c	; 0x796c <__udivmodqi4>
    3b4e:	89 83       	std	Y+1, r24	; 0x01
						index++;
    3b50:	80 91 82 04 	lds	r24, 0x0482
    3b54:	8f 5f       	subi	r24, 0xFF	; 255
    3b56:	80 93 82 04 	sts	0x0482, r24
				{
					result=number1+number2;
					temp=result;
					index=0;
					//APP_STR_CPY(lcd_display_2,"Result =",7);
					while(temp)
    3b5a:	89 81       	ldd	r24, Y+1	; 0x01
    3b5c:	88 23       	and	r24, r24
    3b5e:	e9 f6       	brne	.-70     	; 0x3b1a <CALC_getNumber+0x14c>
				}

				default:
					break;
			}
			update_screen=1;
    3b60:	81 e0       	ldi	r24, 0x01	; 1
    3b62:	80 93 7d 04 	sts	0x047D, r24
			index=0;
    3b66:	10 92 82 04 	sts	0x0482, r1
		}

	}

	if(number2 == 55)
    3b6a:	80 91 85 04 	lds	r24, 0x0485
    3b6e:	90 91 86 04 	lds	r25, 0x0486
    3b72:	87 33       	cpi	r24, 0x37	; 55
    3b74:	91 05       	cpc	r25, r1
    3b76:	11 f4       	brne	.+4      	; 0x3b7c <CALC_getNumber+0x1ae>
	{
		LED1_On();
    3b78:	0e 94 a5 1a 	call	0x354a	; 0x354a <LED1_On>
	}

}
    3b7c:	0f 90       	pop	r0
    3b7e:	0f 90       	pop	r0
    3b80:	cf 91       	pop	r28
    3b82:	df 91       	pop	r29
    3b84:	08 95       	ret

00003b86 <APP_LCD_story>:
	  0B00110
	};


void APP_LCD_story(void)
{
    3b86:	0f 93       	push	r16
    3b88:	1f 93       	push	r17
    3b8a:	df 93       	push	r29
    3b8c:	cf 93       	push	r28
    3b8e:	cd b7       	in	r28, 0x3d	; 61
    3b90:	de b7       	in	r29, 0x3e	; 62
    3b92:	cd 5d       	subi	r28, 0xDD	; 221
    3b94:	d1 40       	sbci	r29, 0x01	; 1
    3b96:	0f b6       	in	r0, 0x3f	; 63
    3b98:	f8 94       	cli
    3b9a:	de bf       	out	0x3e, r29	; 62
    3b9c:	0f be       	out	0x3f, r0	; 63
    3b9e:	cd bf       	out	0x3d, r28	; 61


		LCD_void_Init();
    3ba0:	0e 94 79 18 	call	0x30f2	; 0x30f2 <LCD_void_Init>
		LCD_Special_Char(customChar_hi,0);
    3ba4:	84 e1       	ldi	r24, 0x14	; 20
    3ba6:	94 e0       	ldi	r25, 0x04	; 4
    3ba8:	60 e0       	ldi	r22, 0x00	; 0
    3baa:	0e 94 76 1a 	call	0x34ec	; 0x34ec <LCD_Special_Char>
		LCD_Special_Char(customChar_stand,1);
    3bae:	8c e1       	ldi	r24, 0x1C	; 28
    3bb0:	94 e0       	ldi	r25, 0x04	; 4
    3bb2:	61 e0       	ldi	r22, 0x01	; 1
    3bb4:	0e 94 76 1a 	call	0x34ec	; 0x34ec <LCD_Special_Char>
		LCD_Special_Char(customChar_dance2,2);
    3bb8:	84 e2       	ldi	r24, 0x24	; 36
    3bba:	94 e0       	ldi	r25, 0x04	; 4
    3bbc:	62 e0       	ldi	r22, 0x02	; 2
    3bbe:	0e 94 76 1a 	call	0x34ec	; 0x34ec <LCD_Special_Char>
		LCD_Special_Char(customChar_book,3);
    3bc2:	8c e2       	ldi	r24, 0x2C	; 44
    3bc4:	94 e0       	ldi	r25, 0x04	; 4
    3bc6:	63 e0       	ldi	r22, 0x03	; 3
    3bc8:	0e 94 76 1a 	call	0x34ec	; 0x34ec <LCD_Special_Char>
		LCD_Special_Char(customChar_lock_close,4);
    3bcc:	84 e3       	ldi	r24, 0x34	; 52
    3bce:	94 e0       	ldi	r25, 0x04	; 4
    3bd0:	64 e0       	ldi	r22, 0x04	; 4
    3bd2:	0e 94 76 1a 	call	0x34ec	; 0x34ec <LCD_Special_Char>
		LCD_Special_Char(customChar_key,5);
    3bd6:	8c e3       	ldi	r24, 0x3C	; 60
    3bd8:	94 e0       	ldi	r25, 0x04	; 4
    3bda:	65 e0       	ldi	r22, 0x05	; 5
    3bdc:	0e 94 76 1a 	call	0x34ec	; 0x34ec <LCD_Special_Char>

		LCD_GoTO(1,1);
    3be0:	81 e0       	ldi	r24, 0x01	; 1
    3be2:	61 e0       	ldi	r22, 0x01	; 1
    3be4:	0e 94 a4 19 	call	0x3348	; 0x3348 <LCD_GoTO>
		LCD_void_SendString((u8*)"Hey ");
    3be8:	86 e6       	ldi	r24, 0x66	; 102
    3bea:	90 e0       	ldi	r25, 0x00	; 0
    3bec:	0e 94 88 19 	call	0x3310	; 0x3310 <LCD_void_SendString>
    3bf0:	fe 01       	movw	r30, r28
    3bf2:	e7 52       	subi	r30, 0x27	; 39
    3bf4:	fe 4f       	sbci	r31, 0xFE	; 254
    3bf6:	80 e0       	ldi	r24, 0x00	; 0
    3bf8:	90 e0       	ldi	r25, 0x00	; 0
    3bfa:	aa ef       	ldi	r26, 0xFA	; 250
    3bfc:	b4 e4       	ldi	r27, 0x44	; 68
    3bfe:	80 83       	st	Z, r24
    3c00:	91 83       	std	Z+1, r25	; 0x01
    3c02:	a2 83       	std	Z+2, r26	; 0x02
    3c04:	b3 83       	std	Z+3, r27	; 0x03
 */
void
_delay_ms(double __ms)
{
	uint16_t __ticks;
	double __tmp = ((F_CPU) / 4e3) * __ms;
    3c06:	8e 01       	movw	r16, r28
    3c08:	0b 52       	subi	r16, 0x2B	; 43
    3c0a:	1e 4f       	sbci	r17, 0xFE	; 254
    3c0c:	fe 01       	movw	r30, r28
    3c0e:	e7 52       	subi	r30, 0x27	; 39
    3c10:	fe 4f       	sbci	r31, 0xFE	; 254
    3c12:	60 81       	ld	r22, Z
    3c14:	71 81       	ldd	r23, Z+1	; 0x01
    3c16:	82 81       	ldd	r24, Z+2	; 0x02
    3c18:	93 81       	ldd	r25, Z+3	; 0x03
    3c1a:	20 e0       	ldi	r18, 0x00	; 0
    3c1c:	30 e0       	ldi	r19, 0x00	; 0
    3c1e:	4a ef       	ldi	r20, 0xFA	; 250
    3c20:	54 e4       	ldi	r21, 0x44	; 68
    3c22:	0e 94 1f 02 	call	0x43e	; 0x43e <__mulsf3>
    3c26:	dc 01       	movw	r26, r24
    3c28:	cb 01       	movw	r24, r22
    3c2a:	f8 01       	movw	r30, r16
    3c2c:	80 83       	st	Z, r24
    3c2e:	91 83       	std	Z+1, r25	; 0x01
    3c30:	a2 83       	std	Z+2, r26	; 0x02
    3c32:	b3 83       	std	Z+3, r27	; 0x03
	if (__tmp < 1.0)
    3c34:	fe 01       	movw	r30, r28
    3c36:	eb 52       	subi	r30, 0x2B	; 43
    3c38:	fe 4f       	sbci	r31, 0xFE	; 254
    3c3a:	60 81       	ld	r22, Z
    3c3c:	71 81       	ldd	r23, Z+1	; 0x01
    3c3e:	82 81       	ldd	r24, Z+2	; 0x02
    3c40:	93 81       	ldd	r25, Z+3	; 0x03
    3c42:	20 e0       	ldi	r18, 0x00	; 0
    3c44:	30 e0       	ldi	r19, 0x00	; 0
    3c46:	40 e8       	ldi	r20, 0x80	; 128
    3c48:	5f e3       	ldi	r21, 0x3F	; 63
    3c4a:	0e 94 25 04 	call	0x84a	; 0x84a <__ltsf2>
    3c4e:	88 23       	and	r24, r24
    3c50:	44 f4       	brge	.+16     	; 0x3c62 <APP_LCD_story+0xdc>
		__ticks = 1;
    3c52:	fe 01       	movw	r30, r28
    3c54:	ed 52       	subi	r30, 0x2D	; 45
    3c56:	fe 4f       	sbci	r31, 0xFE	; 254
    3c58:	81 e0       	ldi	r24, 0x01	; 1
    3c5a:	90 e0       	ldi	r25, 0x00	; 0
    3c5c:	91 83       	std	Z+1, r25	; 0x01
    3c5e:	80 83       	st	Z, r24
    3c60:	64 c0       	rjmp	.+200    	; 0x3d2a <APP_LCD_story+0x1a4>
	else if (__tmp > 65535)
    3c62:	fe 01       	movw	r30, r28
    3c64:	eb 52       	subi	r30, 0x2B	; 43
    3c66:	fe 4f       	sbci	r31, 0xFE	; 254
    3c68:	60 81       	ld	r22, Z
    3c6a:	71 81       	ldd	r23, Z+1	; 0x01
    3c6c:	82 81       	ldd	r24, Z+2	; 0x02
    3c6e:	93 81       	ldd	r25, Z+3	; 0x03
    3c70:	20 e0       	ldi	r18, 0x00	; 0
    3c72:	3f ef       	ldi	r19, 0xFF	; 255
    3c74:	4f e7       	ldi	r20, 0x7F	; 127
    3c76:	57 e4       	ldi	r21, 0x47	; 71
    3c78:	0e 94 c5 03 	call	0x78a	; 0x78a <__gtsf2>
    3c7c:	18 16       	cp	r1, r24
    3c7e:	0c f0       	brlt	.+2      	; 0x3c82 <APP_LCD_story+0xfc>
    3c80:	43 c0       	rjmp	.+134    	; 0x3d08 <APP_LCD_story+0x182>
	{
		//	__ticks = requested delay in 1/10 ms
		__ticks = (uint16_t) (__ms * 10.0);
    3c82:	fe 01       	movw	r30, r28
    3c84:	e7 52       	subi	r30, 0x27	; 39
    3c86:	fe 4f       	sbci	r31, 0xFE	; 254
    3c88:	60 81       	ld	r22, Z
    3c8a:	71 81       	ldd	r23, Z+1	; 0x01
    3c8c:	82 81       	ldd	r24, Z+2	; 0x02
    3c8e:	93 81       	ldd	r25, Z+3	; 0x03
    3c90:	20 e0       	ldi	r18, 0x00	; 0
    3c92:	30 e0       	ldi	r19, 0x00	; 0
    3c94:	40 e2       	ldi	r20, 0x20	; 32
    3c96:	51 e4       	ldi	r21, 0x41	; 65
    3c98:	0e 94 1f 02 	call	0x43e	; 0x43e <__mulsf3>
    3c9c:	dc 01       	movw	r26, r24
    3c9e:	cb 01       	movw	r24, r22
    3ca0:	8e 01       	movw	r16, r28
    3ca2:	0d 52       	subi	r16, 0x2D	; 45
    3ca4:	1e 4f       	sbci	r17, 0xFE	; 254
    3ca6:	bc 01       	movw	r22, r24
    3ca8:	cd 01       	movw	r24, r26
    3caa:	0e 94 49 00 	call	0x92	; 0x92 <__fixunssfsi>
    3cae:	dc 01       	movw	r26, r24
    3cb0:	cb 01       	movw	r24, r22
    3cb2:	f8 01       	movw	r30, r16
    3cb4:	91 83       	std	Z+1, r25	; 0x01
    3cb6:	80 83       	st	Z, r24
    3cb8:	1f c0       	rjmp	.+62     	; 0x3cf8 <APP_LCD_story+0x172>
    3cba:	fe 01       	movw	r30, r28
    3cbc:	ef 52       	subi	r30, 0x2F	; 47
    3cbe:	fe 4f       	sbci	r31, 0xFE	; 254
    3cc0:	88 ec       	ldi	r24, 0xC8	; 200
    3cc2:	90 e0       	ldi	r25, 0x00	; 0
    3cc4:	91 83       	std	Z+1, r25	; 0x01
    3cc6:	80 83       	st	Z, r24
    3cc8:	fe 01       	movw	r30, r28
    3cca:	ef 52       	subi	r30, 0x2F	; 47
    3ccc:	fe 4f       	sbci	r31, 0xFE	; 254
    3cce:	80 81       	ld	r24, Z
    3cd0:	91 81       	ldd	r25, Z+1	; 0x01
    3cd2:	01 97       	sbiw	r24, 0x01	; 1
    3cd4:	f1 f7       	brne	.-4      	; 0x3cd2 <APP_LCD_story+0x14c>
    3cd6:	fe 01       	movw	r30, r28
    3cd8:	ef 52       	subi	r30, 0x2F	; 47
    3cda:	fe 4f       	sbci	r31, 0xFE	; 254
    3cdc:	91 83       	std	Z+1, r25	; 0x01
    3cde:	80 83       	st	Z, r24
		while(__ticks)
		{
			// wait 1/10 ms
			_delay_loop_2(((F_CPU) / 4e3) / 10);
			__ticks --;
    3ce0:	de 01       	movw	r26, r28
    3ce2:	ad 52       	subi	r26, 0x2D	; 45
    3ce4:	be 4f       	sbci	r27, 0xFE	; 254
    3ce6:	fe 01       	movw	r30, r28
    3ce8:	ed 52       	subi	r30, 0x2D	; 45
    3cea:	fe 4f       	sbci	r31, 0xFE	; 254
    3cec:	80 81       	ld	r24, Z
    3cee:	91 81       	ldd	r25, Z+1	; 0x01
    3cf0:	01 97       	sbiw	r24, 0x01	; 1
    3cf2:	11 96       	adiw	r26, 0x01	; 1
    3cf4:	9c 93       	st	X, r25
    3cf6:	8e 93       	st	-X, r24
		__ticks = 1;
	else if (__tmp > 65535)
	{
		//	__ticks = requested delay in 1/10 ms
		__ticks = (uint16_t) (__ms * 10.0);
		while(__ticks)
    3cf8:	fe 01       	movw	r30, r28
    3cfa:	ed 52       	subi	r30, 0x2D	; 45
    3cfc:	fe 4f       	sbci	r31, 0xFE	; 254
    3cfe:	80 81       	ld	r24, Z
    3d00:	91 81       	ldd	r25, Z+1	; 0x01
    3d02:	00 97       	sbiw	r24, 0x00	; 0
    3d04:	d1 f6       	brne	.-76     	; 0x3cba <APP_LCD_story+0x134>
    3d06:	27 c0       	rjmp	.+78     	; 0x3d56 <APP_LCD_story+0x1d0>
			__ticks --;
		}
		return;
	}
	else
		__ticks = (uint16_t)__tmp;
    3d08:	8e 01       	movw	r16, r28
    3d0a:	0d 52       	subi	r16, 0x2D	; 45
    3d0c:	1e 4f       	sbci	r17, 0xFE	; 254
    3d0e:	fe 01       	movw	r30, r28
    3d10:	eb 52       	subi	r30, 0x2B	; 43
    3d12:	fe 4f       	sbci	r31, 0xFE	; 254
    3d14:	60 81       	ld	r22, Z
    3d16:	71 81       	ldd	r23, Z+1	; 0x01
    3d18:	82 81       	ldd	r24, Z+2	; 0x02
    3d1a:	93 81       	ldd	r25, Z+3	; 0x03
    3d1c:	0e 94 49 00 	call	0x92	; 0x92 <__fixunssfsi>
    3d20:	dc 01       	movw	r26, r24
    3d22:	cb 01       	movw	r24, r22
    3d24:	f8 01       	movw	r30, r16
    3d26:	91 83       	std	Z+1, r25	; 0x01
    3d28:	80 83       	st	Z, r24
    3d2a:	de 01       	movw	r26, r28
    3d2c:	a1 53       	subi	r26, 0x31	; 49
    3d2e:	be 4f       	sbci	r27, 0xFE	; 254
    3d30:	fe 01       	movw	r30, r28
    3d32:	ed 52       	subi	r30, 0x2D	; 45
    3d34:	fe 4f       	sbci	r31, 0xFE	; 254
    3d36:	80 81       	ld	r24, Z
    3d38:	91 81       	ldd	r25, Z+1	; 0x01
    3d3a:	8d 93       	st	X+, r24
    3d3c:	9c 93       	st	X, r25
    3d3e:	fe 01       	movw	r30, r28
    3d40:	e1 53       	subi	r30, 0x31	; 49
    3d42:	fe 4f       	sbci	r31, 0xFE	; 254
    3d44:	80 81       	ld	r24, Z
    3d46:	91 81       	ldd	r25, Z+1	; 0x01
    3d48:	01 97       	sbiw	r24, 0x01	; 1
    3d4a:	f1 f7       	brne	.-4      	; 0x3d48 <APP_LCD_story+0x1c2>
    3d4c:	fe 01       	movw	r30, r28
    3d4e:	e1 53       	subi	r30, 0x31	; 49
    3d50:	fe 4f       	sbci	r31, 0xFE	; 254
    3d52:	91 83       	std	Z+1, r25	; 0x01
    3d54:	80 83       	st	Z, r24
		_delay_ms(2000);
		LCD_void_SendString((u8*)"down here");
    3d56:	8b e6       	ldi	r24, 0x6B	; 107
    3d58:	90 e0       	ldi	r25, 0x00	; 0
    3d5a:	0e 94 88 19 	call	0x3310	; 0x3310 <LCD_void_SendString>
    3d5e:	fe 01       	movw	r30, r28
    3d60:	e5 53       	subi	r30, 0x35	; 53
    3d62:	fe 4f       	sbci	r31, 0xFE	; 254
    3d64:	80 e0       	ldi	r24, 0x00	; 0
    3d66:	90 e0       	ldi	r25, 0x00	; 0
    3d68:	aa ef       	ldi	r26, 0xFA	; 250
    3d6a:	b4 e4       	ldi	r27, 0x44	; 68
    3d6c:	80 83       	st	Z, r24
    3d6e:	91 83       	std	Z+1, r25	; 0x01
    3d70:	a2 83       	std	Z+2, r26	; 0x02
    3d72:	b3 83       	std	Z+3, r27	; 0x03
 */
void
_delay_ms(double __ms)
{
	uint16_t __ticks;
	double __tmp = ((F_CPU) / 4e3) * __ms;
    3d74:	8e 01       	movw	r16, r28
    3d76:	09 53       	subi	r16, 0x39	; 57
    3d78:	1e 4f       	sbci	r17, 0xFE	; 254
    3d7a:	fe 01       	movw	r30, r28
    3d7c:	e5 53       	subi	r30, 0x35	; 53
    3d7e:	fe 4f       	sbci	r31, 0xFE	; 254
    3d80:	60 81       	ld	r22, Z
    3d82:	71 81       	ldd	r23, Z+1	; 0x01
    3d84:	82 81       	ldd	r24, Z+2	; 0x02
    3d86:	93 81       	ldd	r25, Z+3	; 0x03
    3d88:	20 e0       	ldi	r18, 0x00	; 0
    3d8a:	30 e0       	ldi	r19, 0x00	; 0
    3d8c:	4a ef       	ldi	r20, 0xFA	; 250
    3d8e:	54 e4       	ldi	r21, 0x44	; 68
    3d90:	0e 94 1f 02 	call	0x43e	; 0x43e <__mulsf3>
    3d94:	dc 01       	movw	r26, r24
    3d96:	cb 01       	movw	r24, r22
    3d98:	f8 01       	movw	r30, r16
    3d9a:	80 83       	st	Z, r24
    3d9c:	91 83       	std	Z+1, r25	; 0x01
    3d9e:	a2 83       	std	Z+2, r26	; 0x02
    3da0:	b3 83       	std	Z+3, r27	; 0x03
	if (__tmp < 1.0)
    3da2:	fe 01       	movw	r30, r28
    3da4:	e9 53       	subi	r30, 0x39	; 57
    3da6:	fe 4f       	sbci	r31, 0xFE	; 254
    3da8:	60 81       	ld	r22, Z
    3daa:	71 81       	ldd	r23, Z+1	; 0x01
    3dac:	82 81       	ldd	r24, Z+2	; 0x02
    3dae:	93 81       	ldd	r25, Z+3	; 0x03
    3db0:	20 e0       	ldi	r18, 0x00	; 0
    3db2:	30 e0       	ldi	r19, 0x00	; 0
    3db4:	40 e8       	ldi	r20, 0x80	; 128
    3db6:	5f e3       	ldi	r21, 0x3F	; 63
    3db8:	0e 94 25 04 	call	0x84a	; 0x84a <__ltsf2>
    3dbc:	88 23       	and	r24, r24
    3dbe:	44 f4       	brge	.+16     	; 0x3dd0 <APP_LCD_story+0x24a>
		__ticks = 1;
    3dc0:	fe 01       	movw	r30, r28
    3dc2:	eb 53       	subi	r30, 0x3B	; 59
    3dc4:	fe 4f       	sbci	r31, 0xFE	; 254
    3dc6:	81 e0       	ldi	r24, 0x01	; 1
    3dc8:	90 e0       	ldi	r25, 0x00	; 0
    3dca:	91 83       	std	Z+1, r25	; 0x01
    3dcc:	80 83       	st	Z, r24
    3dce:	64 c0       	rjmp	.+200    	; 0x3e98 <APP_LCD_story+0x312>
	else if (__tmp > 65535)
    3dd0:	fe 01       	movw	r30, r28
    3dd2:	e9 53       	subi	r30, 0x39	; 57
    3dd4:	fe 4f       	sbci	r31, 0xFE	; 254
    3dd6:	60 81       	ld	r22, Z
    3dd8:	71 81       	ldd	r23, Z+1	; 0x01
    3dda:	82 81       	ldd	r24, Z+2	; 0x02
    3ddc:	93 81       	ldd	r25, Z+3	; 0x03
    3dde:	20 e0       	ldi	r18, 0x00	; 0
    3de0:	3f ef       	ldi	r19, 0xFF	; 255
    3de2:	4f e7       	ldi	r20, 0x7F	; 127
    3de4:	57 e4       	ldi	r21, 0x47	; 71
    3de6:	0e 94 c5 03 	call	0x78a	; 0x78a <__gtsf2>
    3dea:	18 16       	cp	r1, r24
    3dec:	0c f0       	brlt	.+2      	; 0x3df0 <APP_LCD_story+0x26a>
    3dee:	43 c0       	rjmp	.+134    	; 0x3e76 <APP_LCD_story+0x2f0>
	{
		//	__ticks = requested delay in 1/10 ms
		__ticks = (uint16_t) (__ms * 10.0);
    3df0:	fe 01       	movw	r30, r28
    3df2:	e5 53       	subi	r30, 0x35	; 53
    3df4:	fe 4f       	sbci	r31, 0xFE	; 254
    3df6:	60 81       	ld	r22, Z
    3df8:	71 81       	ldd	r23, Z+1	; 0x01
    3dfa:	82 81       	ldd	r24, Z+2	; 0x02
    3dfc:	93 81       	ldd	r25, Z+3	; 0x03
    3dfe:	20 e0       	ldi	r18, 0x00	; 0
    3e00:	30 e0       	ldi	r19, 0x00	; 0
    3e02:	40 e2       	ldi	r20, 0x20	; 32
    3e04:	51 e4       	ldi	r21, 0x41	; 65
    3e06:	0e 94 1f 02 	call	0x43e	; 0x43e <__mulsf3>
    3e0a:	dc 01       	movw	r26, r24
    3e0c:	cb 01       	movw	r24, r22
    3e0e:	8e 01       	movw	r16, r28
    3e10:	0b 53       	subi	r16, 0x3B	; 59
    3e12:	1e 4f       	sbci	r17, 0xFE	; 254
    3e14:	bc 01       	movw	r22, r24
    3e16:	cd 01       	movw	r24, r26
    3e18:	0e 94 49 00 	call	0x92	; 0x92 <__fixunssfsi>
    3e1c:	dc 01       	movw	r26, r24
    3e1e:	cb 01       	movw	r24, r22
    3e20:	f8 01       	movw	r30, r16
    3e22:	91 83       	std	Z+1, r25	; 0x01
    3e24:	80 83       	st	Z, r24
    3e26:	1f c0       	rjmp	.+62     	; 0x3e66 <APP_LCD_story+0x2e0>
    3e28:	fe 01       	movw	r30, r28
    3e2a:	ed 53       	subi	r30, 0x3D	; 61
    3e2c:	fe 4f       	sbci	r31, 0xFE	; 254
    3e2e:	88 ec       	ldi	r24, 0xC8	; 200
    3e30:	90 e0       	ldi	r25, 0x00	; 0
    3e32:	91 83       	std	Z+1, r25	; 0x01
    3e34:	80 83       	st	Z, r24
    3e36:	fe 01       	movw	r30, r28
    3e38:	ed 53       	subi	r30, 0x3D	; 61
    3e3a:	fe 4f       	sbci	r31, 0xFE	; 254
    3e3c:	80 81       	ld	r24, Z
    3e3e:	91 81       	ldd	r25, Z+1	; 0x01
    3e40:	01 97       	sbiw	r24, 0x01	; 1
    3e42:	f1 f7       	brne	.-4      	; 0x3e40 <APP_LCD_story+0x2ba>
    3e44:	fe 01       	movw	r30, r28
    3e46:	ed 53       	subi	r30, 0x3D	; 61
    3e48:	fe 4f       	sbci	r31, 0xFE	; 254
    3e4a:	91 83       	std	Z+1, r25	; 0x01
    3e4c:	80 83       	st	Z, r24
		while(__ticks)
		{
			// wait 1/10 ms
			_delay_loop_2(((F_CPU) / 4e3) / 10);
			__ticks --;
    3e4e:	de 01       	movw	r26, r28
    3e50:	ab 53       	subi	r26, 0x3B	; 59
    3e52:	be 4f       	sbci	r27, 0xFE	; 254
    3e54:	fe 01       	movw	r30, r28
    3e56:	eb 53       	subi	r30, 0x3B	; 59
    3e58:	fe 4f       	sbci	r31, 0xFE	; 254
    3e5a:	80 81       	ld	r24, Z
    3e5c:	91 81       	ldd	r25, Z+1	; 0x01
    3e5e:	01 97       	sbiw	r24, 0x01	; 1
    3e60:	11 96       	adiw	r26, 0x01	; 1
    3e62:	9c 93       	st	X, r25
    3e64:	8e 93       	st	-X, r24
		__ticks = 1;
	else if (__tmp > 65535)
	{
		//	__ticks = requested delay in 1/10 ms
		__ticks = (uint16_t) (__ms * 10.0);
		while(__ticks)
    3e66:	fe 01       	movw	r30, r28
    3e68:	eb 53       	subi	r30, 0x3B	; 59
    3e6a:	fe 4f       	sbci	r31, 0xFE	; 254
    3e6c:	80 81       	ld	r24, Z
    3e6e:	91 81       	ldd	r25, Z+1	; 0x01
    3e70:	00 97       	sbiw	r24, 0x00	; 0
    3e72:	d1 f6       	brne	.-76     	; 0x3e28 <APP_LCD_story+0x2a2>
    3e74:	27 c0       	rjmp	.+78     	; 0x3ec4 <APP_LCD_story+0x33e>
			__ticks --;
		}
		return;
	}
	else
		__ticks = (uint16_t)__tmp;
    3e76:	8e 01       	movw	r16, r28
    3e78:	0b 53       	subi	r16, 0x3B	; 59
    3e7a:	1e 4f       	sbci	r17, 0xFE	; 254
    3e7c:	fe 01       	movw	r30, r28
    3e7e:	e9 53       	subi	r30, 0x39	; 57
    3e80:	fe 4f       	sbci	r31, 0xFE	; 254
    3e82:	60 81       	ld	r22, Z
    3e84:	71 81       	ldd	r23, Z+1	; 0x01
    3e86:	82 81       	ldd	r24, Z+2	; 0x02
    3e88:	93 81       	ldd	r25, Z+3	; 0x03
    3e8a:	0e 94 49 00 	call	0x92	; 0x92 <__fixunssfsi>
    3e8e:	dc 01       	movw	r26, r24
    3e90:	cb 01       	movw	r24, r22
    3e92:	f8 01       	movw	r30, r16
    3e94:	91 83       	std	Z+1, r25	; 0x01
    3e96:	80 83       	st	Z, r24
    3e98:	de 01       	movw	r26, r28
    3e9a:	af 53       	subi	r26, 0x3F	; 63
    3e9c:	be 4f       	sbci	r27, 0xFE	; 254
    3e9e:	fe 01       	movw	r30, r28
    3ea0:	eb 53       	subi	r30, 0x3B	; 59
    3ea2:	fe 4f       	sbci	r31, 0xFE	; 254
    3ea4:	80 81       	ld	r24, Z
    3ea6:	91 81       	ldd	r25, Z+1	; 0x01
    3ea8:	8d 93       	st	X+, r24
    3eaa:	9c 93       	st	X, r25
    3eac:	fe 01       	movw	r30, r28
    3eae:	ef 53       	subi	r30, 0x3F	; 63
    3eb0:	fe 4f       	sbci	r31, 0xFE	; 254
    3eb2:	80 81       	ld	r24, Z
    3eb4:	91 81       	ldd	r25, Z+1	; 0x01
    3eb6:	01 97       	sbiw	r24, 0x01	; 1
    3eb8:	f1 f7       	brne	.-4      	; 0x3eb6 <APP_LCD_story+0x330>
    3eba:	fe 01       	movw	r30, r28
    3ebc:	ef 53       	subi	r30, 0x3F	; 63
    3ebe:	fe 4f       	sbci	r31, 0xFE	; 254
    3ec0:	91 83       	std	Z+1, r25	; 0x01
    3ec2:	80 83       	st	Z, r24
		_delay_ms(2000);
		APP_LCD_Hi();
    3ec4:	0e 94 ba 36 	call	0x6d74	; 0x6d74 <APP_LCD_Hi>

		APP_LCD_ClearLine1();
    3ec8:	0e 94 a7 36 	call	0x6d4e	; 0x6d4e <APP_LCD_ClearLine1>
		LCD_void_SendString((u8*)"This is me     ");
    3ecc:	85 e7       	ldi	r24, 0x75	; 117
    3ece:	90 e0       	ldi	r25, 0x00	; 0
    3ed0:	0e 94 88 19 	call	0x3310	; 0x3310 <LCD_void_SendString>
    3ed4:	fe 01       	movw	r30, r28
    3ed6:	e3 54       	subi	r30, 0x43	; 67
    3ed8:	fe 4f       	sbci	r31, 0xFE	; 254
    3eda:	80 e0       	ldi	r24, 0x00	; 0
    3edc:	90 e0       	ldi	r25, 0x00	; 0
    3ede:	aa ef       	ldi	r26, 0xFA	; 250
    3ee0:	b4 e4       	ldi	r27, 0x44	; 68
    3ee2:	80 83       	st	Z, r24
    3ee4:	91 83       	std	Z+1, r25	; 0x01
    3ee6:	a2 83       	std	Z+2, r26	; 0x02
    3ee8:	b3 83       	std	Z+3, r27	; 0x03
 */
void
_delay_ms(double __ms)
{
	uint16_t __ticks;
	double __tmp = ((F_CPU) / 4e3) * __ms;
    3eea:	8e 01       	movw	r16, r28
    3eec:	07 54       	subi	r16, 0x47	; 71
    3eee:	1e 4f       	sbci	r17, 0xFE	; 254
    3ef0:	fe 01       	movw	r30, r28
    3ef2:	e3 54       	subi	r30, 0x43	; 67
    3ef4:	fe 4f       	sbci	r31, 0xFE	; 254
    3ef6:	60 81       	ld	r22, Z
    3ef8:	71 81       	ldd	r23, Z+1	; 0x01
    3efa:	82 81       	ldd	r24, Z+2	; 0x02
    3efc:	93 81       	ldd	r25, Z+3	; 0x03
    3efe:	20 e0       	ldi	r18, 0x00	; 0
    3f00:	30 e0       	ldi	r19, 0x00	; 0
    3f02:	4a ef       	ldi	r20, 0xFA	; 250
    3f04:	54 e4       	ldi	r21, 0x44	; 68
    3f06:	0e 94 1f 02 	call	0x43e	; 0x43e <__mulsf3>
    3f0a:	dc 01       	movw	r26, r24
    3f0c:	cb 01       	movw	r24, r22
    3f0e:	f8 01       	movw	r30, r16
    3f10:	80 83       	st	Z, r24
    3f12:	91 83       	std	Z+1, r25	; 0x01
    3f14:	a2 83       	std	Z+2, r26	; 0x02
    3f16:	b3 83       	std	Z+3, r27	; 0x03
	if (__tmp < 1.0)
    3f18:	fe 01       	movw	r30, r28
    3f1a:	e7 54       	subi	r30, 0x47	; 71
    3f1c:	fe 4f       	sbci	r31, 0xFE	; 254
    3f1e:	60 81       	ld	r22, Z
    3f20:	71 81       	ldd	r23, Z+1	; 0x01
    3f22:	82 81       	ldd	r24, Z+2	; 0x02
    3f24:	93 81       	ldd	r25, Z+3	; 0x03
    3f26:	20 e0       	ldi	r18, 0x00	; 0
    3f28:	30 e0       	ldi	r19, 0x00	; 0
    3f2a:	40 e8       	ldi	r20, 0x80	; 128
    3f2c:	5f e3       	ldi	r21, 0x3F	; 63
    3f2e:	0e 94 25 04 	call	0x84a	; 0x84a <__ltsf2>
    3f32:	88 23       	and	r24, r24
    3f34:	44 f4       	brge	.+16     	; 0x3f46 <APP_LCD_story+0x3c0>
		__ticks = 1;
    3f36:	fe 01       	movw	r30, r28
    3f38:	e9 54       	subi	r30, 0x49	; 73
    3f3a:	fe 4f       	sbci	r31, 0xFE	; 254
    3f3c:	81 e0       	ldi	r24, 0x01	; 1
    3f3e:	90 e0       	ldi	r25, 0x00	; 0
    3f40:	91 83       	std	Z+1, r25	; 0x01
    3f42:	80 83       	st	Z, r24
    3f44:	64 c0       	rjmp	.+200    	; 0x400e <APP_LCD_story+0x488>
	else if (__tmp > 65535)
    3f46:	fe 01       	movw	r30, r28
    3f48:	e7 54       	subi	r30, 0x47	; 71
    3f4a:	fe 4f       	sbci	r31, 0xFE	; 254
    3f4c:	60 81       	ld	r22, Z
    3f4e:	71 81       	ldd	r23, Z+1	; 0x01
    3f50:	82 81       	ldd	r24, Z+2	; 0x02
    3f52:	93 81       	ldd	r25, Z+3	; 0x03
    3f54:	20 e0       	ldi	r18, 0x00	; 0
    3f56:	3f ef       	ldi	r19, 0xFF	; 255
    3f58:	4f e7       	ldi	r20, 0x7F	; 127
    3f5a:	57 e4       	ldi	r21, 0x47	; 71
    3f5c:	0e 94 c5 03 	call	0x78a	; 0x78a <__gtsf2>
    3f60:	18 16       	cp	r1, r24
    3f62:	0c f0       	brlt	.+2      	; 0x3f66 <APP_LCD_story+0x3e0>
    3f64:	43 c0       	rjmp	.+134    	; 0x3fec <APP_LCD_story+0x466>
	{
		//	__ticks = requested delay in 1/10 ms
		__ticks = (uint16_t) (__ms * 10.0);
    3f66:	fe 01       	movw	r30, r28
    3f68:	e3 54       	subi	r30, 0x43	; 67
    3f6a:	fe 4f       	sbci	r31, 0xFE	; 254
    3f6c:	60 81       	ld	r22, Z
    3f6e:	71 81       	ldd	r23, Z+1	; 0x01
    3f70:	82 81       	ldd	r24, Z+2	; 0x02
    3f72:	93 81       	ldd	r25, Z+3	; 0x03
    3f74:	20 e0       	ldi	r18, 0x00	; 0
    3f76:	30 e0       	ldi	r19, 0x00	; 0
    3f78:	40 e2       	ldi	r20, 0x20	; 32
    3f7a:	51 e4       	ldi	r21, 0x41	; 65
    3f7c:	0e 94 1f 02 	call	0x43e	; 0x43e <__mulsf3>
    3f80:	dc 01       	movw	r26, r24
    3f82:	cb 01       	movw	r24, r22
    3f84:	8e 01       	movw	r16, r28
    3f86:	09 54       	subi	r16, 0x49	; 73
    3f88:	1e 4f       	sbci	r17, 0xFE	; 254
    3f8a:	bc 01       	movw	r22, r24
    3f8c:	cd 01       	movw	r24, r26
    3f8e:	0e 94 49 00 	call	0x92	; 0x92 <__fixunssfsi>
    3f92:	dc 01       	movw	r26, r24
    3f94:	cb 01       	movw	r24, r22
    3f96:	f8 01       	movw	r30, r16
    3f98:	91 83       	std	Z+1, r25	; 0x01
    3f9a:	80 83       	st	Z, r24
    3f9c:	1f c0       	rjmp	.+62     	; 0x3fdc <APP_LCD_story+0x456>
    3f9e:	fe 01       	movw	r30, r28
    3fa0:	eb 54       	subi	r30, 0x4B	; 75
    3fa2:	fe 4f       	sbci	r31, 0xFE	; 254
    3fa4:	88 ec       	ldi	r24, 0xC8	; 200
    3fa6:	90 e0       	ldi	r25, 0x00	; 0
    3fa8:	91 83       	std	Z+1, r25	; 0x01
    3faa:	80 83       	st	Z, r24
    3fac:	fe 01       	movw	r30, r28
    3fae:	eb 54       	subi	r30, 0x4B	; 75
    3fb0:	fe 4f       	sbci	r31, 0xFE	; 254
    3fb2:	80 81       	ld	r24, Z
    3fb4:	91 81       	ldd	r25, Z+1	; 0x01
    3fb6:	01 97       	sbiw	r24, 0x01	; 1
    3fb8:	f1 f7       	brne	.-4      	; 0x3fb6 <APP_LCD_story+0x430>
    3fba:	fe 01       	movw	r30, r28
    3fbc:	eb 54       	subi	r30, 0x4B	; 75
    3fbe:	fe 4f       	sbci	r31, 0xFE	; 254
    3fc0:	91 83       	std	Z+1, r25	; 0x01
    3fc2:	80 83       	st	Z, r24
		while(__ticks)
		{
			// wait 1/10 ms
			_delay_loop_2(((F_CPU) / 4e3) / 10);
			__ticks --;
    3fc4:	de 01       	movw	r26, r28
    3fc6:	a9 54       	subi	r26, 0x49	; 73
    3fc8:	be 4f       	sbci	r27, 0xFE	; 254
    3fca:	fe 01       	movw	r30, r28
    3fcc:	e9 54       	subi	r30, 0x49	; 73
    3fce:	fe 4f       	sbci	r31, 0xFE	; 254
    3fd0:	80 81       	ld	r24, Z
    3fd2:	91 81       	ldd	r25, Z+1	; 0x01
    3fd4:	01 97       	sbiw	r24, 0x01	; 1
    3fd6:	11 96       	adiw	r26, 0x01	; 1
    3fd8:	9c 93       	st	X, r25
    3fda:	8e 93       	st	-X, r24
		__ticks = 1;
	else if (__tmp > 65535)
	{
		//	__ticks = requested delay in 1/10 ms
		__ticks = (uint16_t) (__ms * 10.0);
		while(__ticks)
    3fdc:	fe 01       	movw	r30, r28
    3fde:	e9 54       	subi	r30, 0x49	; 73
    3fe0:	fe 4f       	sbci	r31, 0xFE	; 254
    3fe2:	80 81       	ld	r24, Z
    3fe4:	91 81       	ldd	r25, Z+1	; 0x01
    3fe6:	00 97       	sbiw	r24, 0x00	; 0
    3fe8:	d1 f6       	brne	.-76     	; 0x3f9e <APP_LCD_story+0x418>
    3fea:	27 c0       	rjmp	.+78     	; 0x403a <APP_LCD_story+0x4b4>
			__ticks --;
		}
		return;
	}
	else
		__ticks = (uint16_t)__tmp;
    3fec:	8e 01       	movw	r16, r28
    3fee:	09 54       	subi	r16, 0x49	; 73
    3ff0:	1e 4f       	sbci	r17, 0xFE	; 254
    3ff2:	fe 01       	movw	r30, r28
    3ff4:	e7 54       	subi	r30, 0x47	; 71
    3ff6:	fe 4f       	sbci	r31, 0xFE	; 254
    3ff8:	60 81       	ld	r22, Z
    3ffa:	71 81       	ldd	r23, Z+1	; 0x01
    3ffc:	82 81       	ldd	r24, Z+2	; 0x02
    3ffe:	93 81       	ldd	r25, Z+3	; 0x03
    4000:	0e 94 49 00 	call	0x92	; 0x92 <__fixunssfsi>
    4004:	dc 01       	movw	r26, r24
    4006:	cb 01       	movw	r24, r22
    4008:	f8 01       	movw	r30, r16
    400a:	91 83       	std	Z+1, r25	; 0x01
    400c:	80 83       	st	Z, r24
    400e:	de 01       	movw	r26, r28
    4010:	ad 54       	subi	r26, 0x4D	; 77
    4012:	be 4f       	sbci	r27, 0xFE	; 254
    4014:	fe 01       	movw	r30, r28
    4016:	e9 54       	subi	r30, 0x49	; 73
    4018:	fe 4f       	sbci	r31, 0xFE	; 254
    401a:	80 81       	ld	r24, Z
    401c:	91 81       	ldd	r25, Z+1	; 0x01
    401e:	8d 93       	st	X+, r24
    4020:	9c 93       	st	X, r25
    4022:	fe 01       	movw	r30, r28
    4024:	ed 54       	subi	r30, 0x4D	; 77
    4026:	fe 4f       	sbci	r31, 0xFE	; 254
    4028:	80 81       	ld	r24, Z
    402a:	91 81       	ldd	r25, Z+1	; 0x01
    402c:	01 97       	sbiw	r24, 0x01	; 1
    402e:	f1 f7       	brne	.-4      	; 0x402c <APP_LCD_story+0x4a6>
    4030:	fe 01       	movw	r30, r28
    4032:	ed 54       	subi	r30, 0x4D	; 77
    4034:	fe 4f       	sbci	r31, 0xFE	; 254
    4036:	91 83       	std	Z+1, r25	; 0x01
    4038:	80 83       	st	Z, r24
		_delay_ms(2000);

		APP_LCD_ClearLine1();
    403a:	0e 94 a7 36 	call	0x6d4e	; 0x6d4e <APP_LCD_ClearLine1>
		LCD_void_SendString((u8*)"StickMan ");
    403e:	85 e8       	ldi	r24, 0x85	; 133
    4040:	90 e0       	ldi	r25, 0x00	; 0
    4042:	0e 94 88 19 	call	0x3310	; 0x3310 <LCD_void_SendString>
    4046:	fe 01       	movw	r30, r28
    4048:	e1 55       	subi	r30, 0x51	; 81
    404a:	fe 4f       	sbci	r31, 0xFE	; 254
    404c:	80 e0       	ldi	r24, 0x00	; 0
    404e:	90 e0       	ldi	r25, 0x00	; 0
    4050:	aa ef       	ldi	r26, 0xFA	; 250
    4052:	b4 e4       	ldi	r27, 0x44	; 68
    4054:	80 83       	st	Z, r24
    4056:	91 83       	std	Z+1, r25	; 0x01
    4058:	a2 83       	std	Z+2, r26	; 0x02
    405a:	b3 83       	std	Z+3, r27	; 0x03
 */
void
_delay_ms(double __ms)
{
	uint16_t __ticks;
	double __tmp = ((F_CPU) / 4e3) * __ms;
    405c:	8e 01       	movw	r16, r28
    405e:	05 55       	subi	r16, 0x55	; 85
    4060:	1e 4f       	sbci	r17, 0xFE	; 254
    4062:	fe 01       	movw	r30, r28
    4064:	e1 55       	subi	r30, 0x51	; 81
    4066:	fe 4f       	sbci	r31, 0xFE	; 254
    4068:	60 81       	ld	r22, Z
    406a:	71 81       	ldd	r23, Z+1	; 0x01
    406c:	82 81       	ldd	r24, Z+2	; 0x02
    406e:	93 81       	ldd	r25, Z+3	; 0x03
    4070:	20 e0       	ldi	r18, 0x00	; 0
    4072:	30 e0       	ldi	r19, 0x00	; 0
    4074:	4a ef       	ldi	r20, 0xFA	; 250
    4076:	54 e4       	ldi	r21, 0x44	; 68
    4078:	0e 94 1f 02 	call	0x43e	; 0x43e <__mulsf3>
    407c:	dc 01       	movw	r26, r24
    407e:	cb 01       	movw	r24, r22
    4080:	f8 01       	movw	r30, r16
    4082:	80 83       	st	Z, r24
    4084:	91 83       	std	Z+1, r25	; 0x01
    4086:	a2 83       	std	Z+2, r26	; 0x02
    4088:	b3 83       	std	Z+3, r27	; 0x03
	if (__tmp < 1.0)
    408a:	fe 01       	movw	r30, r28
    408c:	e5 55       	subi	r30, 0x55	; 85
    408e:	fe 4f       	sbci	r31, 0xFE	; 254
    4090:	60 81       	ld	r22, Z
    4092:	71 81       	ldd	r23, Z+1	; 0x01
    4094:	82 81       	ldd	r24, Z+2	; 0x02
    4096:	93 81       	ldd	r25, Z+3	; 0x03
    4098:	20 e0       	ldi	r18, 0x00	; 0
    409a:	30 e0       	ldi	r19, 0x00	; 0
    409c:	40 e8       	ldi	r20, 0x80	; 128
    409e:	5f e3       	ldi	r21, 0x3F	; 63
    40a0:	0e 94 25 04 	call	0x84a	; 0x84a <__ltsf2>
    40a4:	88 23       	and	r24, r24
    40a6:	44 f4       	brge	.+16     	; 0x40b8 <APP_LCD_story+0x532>
		__ticks = 1;
    40a8:	fe 01       	movw	r30, r28
    40aa:	e7 55       	subi	r30, 0x57	; 87
    40ac:	fe 4f       	sbci	r31, 0xFE	; 254
    40ae:	81 e0       	ldi	r24, 0x01	; 1
    40b0:	90 e0       	ldi	r25, 0x00	; 0
    40b2:	91 83       	std	Z+1, r25	; 0x01
    40b4:	80 83       	st	Z, r24
    40b6:	64 c0       	rjmp	.+200    	; 0x4180 <APP_LCD_story+0x5fa>
	else if (__tmp > 65535)
    40b8:	fe 01       	movw	r30, r28
    40ba:	e5 55       	subi	r30, 0x55	; 85
    40bc:	fe 4f       	sbci	r31, 0xFE	; 254
    40be:	60 81       	ld	r22, Z
    40c0:	71 81       	ldd	r23, Z+1	; 0x01
    40c2:	82 81       	ldd	r24, Z+2	; 0x02
    40c4:	93 81       	ldd	r25, Z+3	; 0x03
    40c6:	20 e0       	ldi	r18, 0x00	; 0
    40c8:	3f ef       	ldi	r19, 0xFF	; 255
    40ca:	4f e7       	ldi	r20, 0x7F	; 127
    40cc:	57 e4       	ldi	r21, 0x47	; 71
    40ce:	0e 94 c5 03 	call	0x78a	; 0x78a <__gtsf2>
    40d2:	18 16       	cp	r1, r24
    40d4:	0c f0       	brlt	.+2      	; 0x40d8 <APP_LCD_story+0x552>
    40d6:	43 c0       	rjmp	.+134    	; 0x415e <APP_LCD_story+0x5d8>
	{
		//	__ticks = requested delay in 1/10 ms
		__ticks = (uint16_t) (__ms * 10.0);
    40d8:	fe 01       	movw	r30, r28
    40da:	e1 55       	subi	r30, 0x51	; 81
    40dc:	fe 4f       	sbci	r31, 0xFE	; 254
    40de:	60 81       	ld	r22, Z
    40e0:	71 81       	ldd	r23, Z+1	; 0x01
    40e2:	82 81       	ldd	r24, Z+2	; 0x02
    40e4:	93 81       	ldd	r25, Z+3	; 0x03
    40e6:	20 e0       	ldi	r18, 0x00	; 0
    40e8:	30 e0       	ldi	r19, 0x00	; 0
    40ea:	40 e2       	ldi	r20, 0x20	; 32
    40ec:	51 e4       	ldi	r21, 0x41	; 65
    40ee:	0e 94 1f 02 	call	0x43e	; 0x43e <__mulsf3>
    40f2:	dc 01       	movw	r26, r24
    40f4:	cb 01       	movw	r24, r22
    40f6:	8e 01       	movw	r16, r28
    40f8:	07 55       	subi	r16, 0x57	; 87
    40fa:	1e 4f       	sbci	r17, 0xFE	; 254
    40fc:	bc 01       	movw	r22, r24
    40fe:	cd 01       	movw	r24, r26
    4100:	0e 94 49 00 	call	0x92	; 0x92 <__fixunssfsi>
    4104:	dc 01       	movw	r26, r24
    4106:	cb 01       	movw	r24, r22
    4108:	f8 01       	movw	r30, r16
    410a:	91 83       	std	Z+1, r25	; 0x01
    410c:	80 83       	st	Z, r24
    410e:	1f c0       	rjmp	.+62     	; 0x414e <APP_LCD_story+0x5c8>
    4110:	fe 01       	movw	r30, r28
    4112:	e9 55       	subi	r30, 0x59	; 89
    4114:	fe 4f       	sbci	r31, 0xFE	; 254
    4116:	88 ec       	ldi	r24, 0xC8	; 200
    4118:	90 e0       	ldi	r25, 0x00	; 0
    411a:	91 83       	std	Z+1, r25	; 0x01
    411c:	80 83       	st	Z, r24
    411e:	fe 01       	movw	r30, r28
    4120:	e9 55       	subi	r30, 0x59	; 89
    4122:	fe 4f       	sbci	r31, 0xFE	; 254
    4124:	80 81       	ld	r24, Z
    4126:	91 81       	ldd	r25, Z+1	; 0x01
    4128:	01 97       	sbiw	r24, 0x01	; 1
    412a:	f1 f7       	brne	.-4      	; 0x4128 <APP_LCD_story+0x5a2>
    412c:	fe 01       	movw	r30, r28
    412e:	e9 55       	subi	r30, 0x59	; 89
    4130:	fe 4f       	sbci	r31, 0xFE	; 254
    4132:	91 83       	std	Z+1, r25	; 0x01
    4134:	80 83       	st	Z, r24
		while(__ticks)
		{
			// wait 1/10 ms
			_delay_loop_2(((F_CPU) / 4e3) / 10);
			__ticks --;
    4136:	de 01       	movw	r26, r28
    4138:	a7 55       	subi	r26, 0x57	; 87
    413a:	be 4f       	sbci	r27, 0xFE	; 254
    413c:	fe 01       	movw	r30, r28
    413e:	e7 55       	subi	r30, 0x57	; 87
    4140:	fe 4f       	sbci	r31, 0xFE	; 254
    4142:	80 81       	ld	r24, Z
    4144:	91 81       	ldd	r25, Z+1	; 0x01
    4146:	01 97       	sbiw	r24, 0x01	; 1
    4148:	11 96       	adiw	r26, 0x01	; 1
    414a:	9c 93       	st	X, r25
    414c:	8e 93       	st	-X, r24
		__ticks = 1;
	else if (__tmp > 65535)
	{
		//	__ticks = requested delay in 1/10 ms
		__ticks = (uint16_t) (__ms * 10.0);
		while(__ticks)
    414e:	fe 01       	movw	r30, r28
    4150:	e7 55       	subi	r30, 0x57	; 87
    4152:	fe 4f       	sbci	r31, 0xFE	; 254
    4154:	80 81       	ld	r24, Z
    4156:	91 81       	ldd	r25, Z+1	; 0x01
    4158:	00 97       	sbiw	r24, 0x00	; 0
    415a:	d1 f6       	brne	.-76     	; 0x4110 <APP_LCD_story+0x58a>
    415c:	27 c0       	rjmp	.+78     	; 0x41ac <APP_LCD_story+0x626>
			__ticks --;
		}
		return;
	}
	else
		__ticks = (uint16_t)__tmp;
    415e:	8e 01       	movw	r16, r28
    4160:	07 55       	subi	r16, 0x57	; 87
    4162:	1e 4f       	sbci	r17, 0xFE	; 254
    4164:	fe 01       	movw	r30, r28
    4166:	e5 55       	subi	r30, 0x55	; 85
    4168:	fe 4f       	sbci	r31, 0xFE	; 254
    416a:	60 81       	ld	r22, Z
    416c:	71 81       	ldd	r23, Z+1	; 0x01
    416e:	82 81       	ldd	r24, Z+2	; 0x02
    4170:	93 81       	ldd	r25, Z+3	; 0x03
    4172:	0e 94 49 00 	call	0x92	; 0x92 <__fixunssfsi>
    4176:	dc 01       	movw	r26, r24
    4178:	cb 01       	movw	r24, r22
    417a:	f8 01       	movw	r30, r16
    417c:	91 83       	std	Z+1, r25	; 0x01
    417e:	80 83       	st	Z, r24
    4180:	de 01       	movw	r26, r28
    4182:	ab 55       	subi	r26, 0x5B	; 91
    4184:	be 4f       	sbci	r27, 0xFE	; 254
    4186:	fe 01       	movw	r30, r28
    4188:	e7 55       	subi	r30, 0x57	; 87
    418a:	fe 4f       	sbci	r31, 0xFE	; 254
    418c:	80 81       	ld	r24, Z
    418e:	91 81       	ldd	r25, Z+1	; 0x01
    4190:	8d 93       	st	X+, r24
    4192:	9c 93       	st	X, r25
    4194:	fe 01       	movw	r30, r28
    4196:	eb 55       	subi	r30, 0x5B	; 91
    4198:	fe 4f       	sbci	r31, 0xFE	; 254
    419a:	80 81       	ld	r24, Z
    419c:	91 81       	ldd	r25, Z+1	; 0x01
    419e:	01 97       	sbiw	r24, 0x01	; 1
    41a0:	f1 f7       	brne	.-4      	; 0x419e <APP_LCD_story+0x618>
    41a2:	fe 01       	movw	r30, r28
    41a4:	eb 55       	subi	r30, 0x5B	; 91
    41a6:	fe 4f       	sbci	r31, 0xFE	; 254
    41a8:	91 83       	std	Z+1, r25	; 0x01
    41aa:	80 83       	st	Z, r24
		_delay_ms(2000);

		APP_LCD_ClearLine1();
    41ac:	0e 94 a7 36 	call	0x6d4e	; 0x6d4e <APP_LCD_ClearLine1>
		LCD_void_SendString((u8*)"i need ur help ");
    41b0:	8f e8       	ldi	r24, 0x8F	; 143
    41b2:	90 e0       	ldi	r25, 0x00	; 0
    41b4:	0e 94 88 19 	call	0x3310	; 0x3310 <LCD_void_SendString>
    41b8:	fe 01       	movw	r30, r28
    41ba:	ef 55       	subi	r30, 0x5F	; 95
    41bc:	fe 4f       	sbci	r31, 0xFE	; 254
    41be:	80 e0       	ldi	r24, 0x00	; 0
    41c0:	90 e0       	ldi	r25, 0x00	; 0
    41c2:	aa ef       	ldi	r26, 0xFA	; 250
    41c4:	b4 e4       	ldi	r27, 0x44	; 68
    41c6:	80 83       	st	Z, r24
    41c8:	91 83       	std	Z+1, r25	; 0x01
    41ca:	a2 83       	std	Z+2, r26	; 0x02
    41cc:	b3 83       	std	Z+3, r27	; 0x03
 */
void
_delay_ms(double __ms)
{
	uint16_t __ticks;
	double __tmp = ((F_CPU) / 4e3) * __ms;
    41ce:	8e 01       	movw	r16, r28
    41d0:	03 56       	subi	r16, 0x63	; 99
    41d2:	1e 4f       	sbci	r17, 0xFE	; 254
    41d4:	fe 01       	movw	r30, r28
    41d6:	ef 55       	subi	r30, 0x5F	; 95
    41d8:	fe 4f       	sbci	r31, 0xFE	; 254
    41da:	60 81       	ld	r22, Z
    41dc:	71 81       	ldd	r23, Z+1	; 0x01
    41de:	82 81       	ldd	r24, Z+2	; 0x02
    41e0:	93 81       	ldd	r25, Z+3	; 0x03
    41e2:	20 e0       	ldi	r18, 0x00	; 0
    41e4:	30 e0       	ldi	r19, 0x00	; 0
    41e6:	4a ef       	ldi	r20, 0xFA	; 250
    41e8:	54 e4       	ldi	r21, 0x44	; 68
    41ea:	0e 94 1f 02 	call	0x43e	; 0x43e <__mulsf3>
    41ee:	dc 01       	movw	r26, r24
    41f0:	cb 01       	movw	r24, r22
    41f2:	f8 01       	movw	r30, r16
    41f4:	80 83       	st	Z, r24
    41f6:	91 83       	std	Z+1, r25	; 0x01
    41f8:	a2 83       	std	Z+2, r26	; 0x02
    41fa:	b3 83       	std	Z+3, r27	; 0x03
	if (__tmp < 1.0)
    41fc:	fe 01       	movw	r30, r28
    41fe:	e3 56       	subi	r30, 0x63	; 99
    4200:	fe 4f       	sbci	r31, 0xFE	; 254
    4202:	60 81       	ld	r22, Z
    4204:	71 81       	ldd	r23, Z+1	; 0x01
    4206:	82 81       	ldd	r24, Z+2	; 0x02
    4208:	93 81       	ldd	r25, Z+3	; 0x03
    420a:	20 e0       	ldi	r18, 0x00	; 0
    420c:	30 e0       	ldi	r19, 0x00	; 0
    420e:	40 e8       	ldi	r20, 0x80	; 128
    4210:	5f e3       	ldi	r21, 0x3F	; 63
    4212:	0e 94 25 04 	call	0x84a	; 0x84a <__ltsf2>
    4216:	88 23       	and	r24, r24
    4218:	44 f4       	brge	.+16     	; 0x422a <APP_LCD_story+0x6a4>
		__ticks = 1;
    421a:	fe 01       	movw	r30, r28
    421c:	e5 56       	subi	r30, 0x65	; 101
    421e:	fe 4f       	sbci	r31, 0xFE	; 254
    4220:	81 e0       	ldi	r24, 0x01	; 1
    4222:	90 e0       	ldi	r25, 0x00	; 0
    4224:	91 83       	std	Z+1, r25	; 0x01
    4226:	80 83       	st	Z, r24
    4228:	64 c0       	rjmp	.+200    	; 0x42f2 <APP_LCD_story+0x76c>
	else if (__tmp > 65535)
    422a:	fe 01       	movw	r30, r28
    422c:	e3 56       	subi	r30, 0x63	; 99
    422e:	fe 4f       	sbci	r31, 0xFE	; 254
    4230:	60 81       	ld	r22, Z
    4232:	71 81       	ldd	r23, Z+1	; 0x01
    4234:	82 81       	ldd	r24, Z+2	; 0x02
    4236:	93 81       	ldd	r25, Z+3	; 0x03
    4238:	20 e0       	ldi	r18, 0x00	; 0
    423a:	3f ef       	ldi	r19, 0xFF	; 255
    423c:	4f e7       	ldi	r20, 0x7F	; 127
    423e:	57 e4       	ldi	r21, 0x47	; 71
    4240:	0e 94 c5 03 	call	0x78a	; 0x78a <__gtsf2>
    4244:	18 16       	cp	r1, r24
    4246:	0c f0       	brlt	.+2      	; 0x424a <APP_LCD_story+0x6c4>
    4248:	43 c0       	rjmp	.+134    	; 0x42d0 <APP_LCD_story+0x74a>
	{
		//	__ticks = requested delay in 1/10 ms
		__ticks = (uint16_t) (__ms * 10.0);
    424a:	fe 01       	movw	r30, r28
    424c:	ef 55       	subi	r30, 0x5F	; 95
    424e:	fe 4f       	sbci	r31, 0xFE	; 254
    4250:	60 81       	ld	r22, Z
    4252:	71 81       	ldd	r23, Z+1	; 0x01
    4254:	82 81       	ldd	r24, Z+2	; 0x02
    4256:	93 81       	ldd	r25, Z+3	; 0x03
    4258:	20 e0       	ldi	r18, 0x00	; 0
    425a:	30 e0       	ldi	r19, 0x00	; 0
    425c:	40 e2       	ldi	r20, 0x20	; 32
    425e:	51 e4       	ldi	r21, 0x41	; 65
    4260:	0e 94 1f 02 	call	0x43e	; 0x43e <__mulsf3>
    4264:	dc 01       	movw	r26, r24
    4266:	cb 01       	movw	r24, r22
    4268:	8e 01       	movw	r16, r28
    426a:	05 56       	subi	r16, 0x65	; 101
    426c:	1e 4f       	sbci	r17, 0xFE	; 254
    426e:	bc 01       	movw	r22, r24
    4270:	cd 01       	movw	r24, r26
    4272:	0e 94 49 00 	call	0x92	; 0x92 <__fixunssfsi>
    4276:	dc 01       	movw	r26, r24
    4278:	cb 01       	movw	r24, r22
    427a:	f8 01       	movw	r30, r16
    427c:	91 83       	std	Z+1, r25	; 0x01
    427e:	80 83       	st	Z, r24
    4280:	1f c0       	rjmp	.+62     	; 0x42c0 <APP_LCD_story+0x73a>
    4282:	fe 01       	movw	r30, r28
    4284:	e7 56       	subi	r30, 0x67	; 103
    4286:	fe 4f       	sbci	r31, 0xFE	; 254
    4288:	88 ec       	ldi	r24, 0xC8	; 200
    428a:	90 e0       	ldi	r25, 0x00	; 0
    428c:	91 83       	std	Z+1, r25	; 0x01
    428e:	80 83       	st	Z, r24
    4290:	fe 01       	movw	r30, r28
    4292:	e7 56       	subi	r30, 0x67	; 103
    4294:	fe 4f       	sbci	r31, 0xFE	; 254
    4296:	80 81       	ld	r24, Z
    4298:	91 81       	ldd	r25, Z+1	; 0x01
    429a:	01 97       	sbiw	r24, 0x01	; 1
    429c:	f1 f7       	brne	.-4      	; 0x429a <APP_LCD_story+0x714>
    429e:	fe 01       	movw	r30, r28
    42a0:	e7 56       	subi	r30, 0x67	; 103
    42a2:	fe 4f       	sbci	r31, 0xFE	; 254
    42a4:	91 83       	std	Z+1, r25	; 0x01
    42a6:	80 83       	st	Z, r24
		while(__ticks)
		{
			// wait 1/10 ms
			_delay_loop_2(((F_CPU) / 4e3) / 10);
			__ticks --;
    42a8:	de 01       	movw	r26, r28
    42aa:	a5 56       	subi	r26, 0x65	; 101
    42ac:	be 4f       	sbci	r27, 0xFE	; 254
    42ae:	fe 01       	movw	r30, r28
    42b0:	e5 56       	subi	r30, 0x65	; 101
    42b2:	fe 4f       	sbci	r31, 0xFE	; 254
    42b4:	80 81       	ld	r24, Z
    42b6:	91 81       	ldd	r25, Z+1	; 0x01
    42b8:	01 97       	sbiw	r24, 0x01	; 1
    42ba:	11 96       	adiw	r26, 0x01	; 1
    42bc:	9c 93       	st	X, r25
    42be:	8e 93       	st	-X, r24
		__ticks = 1;
	else if (__tmp > 65535)
	{
		//	__ticks = requested delay in 1/10 ms
		__ticks = (uint16_t) (__ms * 10.0);
		while(__ticks)
    42c0:	fe 01       	movw	r30, r28
    42c2:	e5 56       	subi	r30, 0x65	; 101
    42c4:	fe 4f       	sbci	r31, 0xFE	; 254
    42c6:	80 81       	ld	r24, Z
    42c8:	91 81       	ldd	r25, Z+1	; 0x01
    42ca:	00 97       	sbiw	r24, 0x00	; 0
    42cc:	d1 f6       	brne	.-76     	; 0x4282 <APP_LCD_story+0x6fc>
    42ce:	27 c0       	rjmp	.+78     	; 0x431e <APP_LCD_story+0x798>
			__ticks --;
		}
		return;
	}
	else
		__ticks = (uint16_t)__tmp;
    42d0:	8e 01       	movw	r16, r28
    42d2:	05 56       	subi	r16, 0x65	; 101
    42d4:	1e 4f       	sbci	r17, 0xFE	; 254
    42d6:	fe 01       	movw	r30, r28
    42d8:	e3 56       	subi	r30, 0x63	; 99
    42da:	fe 4f       	sbci	r31, 0xFE	; 254
    42dc:	60 81       	ld	r22, Z
    42de:	71 81       	ldd	r23, Z+1	; 0x01
    42e0:	82 81       	ldd	r24, Z+2	; 0x02
    42e2:	93 81       	ldd	r25, Z+3	; 0x03
    42e4:	0e 94 49 00 	call	0x92	; 0x92 <__fixunssfsi>
    42e8:	dc 01       	movw	r26, r24
    42ea:	cb 01       	movw	r24, r22
    42ec:	f8 01       	movw	r30, r16
    42ee:	91 83       	std	Z+1, r25	; 0x01
    42f0:	80 83       	st	Z, r24
    42f2:	de 01       	movw	r26, r28
    42f4:	a9 56       	subi	r26, 0x69	; 105
    42f6:	be 4f       	sbci	r27, 0xFE	; 254
    42f8:	fe 01       	movw	r30, r28
    42fa:	e5 56       	subi	r30, 0x65	; 101
    42fc:	fe 4f       	sbci	r31, 0xFE	; 254
    42fe:	80 81       	ld	r24, Z
    4300:	91 81       	ldd	r25, Z+1	; 0x01
    4302:	8d 93       	st	X+, r24
    4304:	9c 93       	st	X, r25
    4306:	fe 01       	movw	r30, r28
    4308:	e9 56       	subi	r30, 0x69	; 105
    430a:	fe 4f       	sbci	r31, 0xFE	; 254
    430c:	80 81       	ld	r24, Z
    430e:	91 81       	ldd	r25, Z+1	; 0x01
    4310:	01 97       	sbiw	r24, 0x01	; 1
    4312:	f1 f7       	brne	.-4      	; 0x4310 <APP_LCD_story+0x78a>
    4314:	fe 01       	movw	r30, r28
    4316:	e9 56       	subi	r30, 0x69	; 105
    4318:	fe 4f       	sbci	r31, 0xFE	; 254
    431a:	91 83       	std	Z+1, r25	; 0x01
    431c:	80 83       	st	Z, r24
		_delay_ms(2000);

		//APP_LCD_Draw_Dino();

		APP_LCD_ClearLine1();
    431e:	0e 94 a7 36 	call	0x6d4e	; 0x6d4e <APP_LCD_ClearLine1>
		LCD_void_SendString((u8*)"Do u see my book ");
    4322:	8f e9       	ldi	r24, 0x9F	; 159
    4324:	90 e0       	ldi	r25, 0x00	; 0
    4326:	0e 94 88 19 	call	0x3310	; 0x3310 <LCD_void_SendString>
    432a:	fe 01       	movw	r30, r28
    432c:	ed 56       	subi	r30, 0x6D	; 109
    432e:	fe 4f       	sbci	r31, 0xFE	; 254
    4330:	80 e0       	ldi	r24, 0x00	; 0
    4332:	90 e0       	ldi	r25, 0x00	; 0
    4334:	aa ef       	ldi	r26, 0xFA	; 250
    4336:	b4 e4       	ldi	r27, 0x44	; 68
    4338:	80 83       	st	Z, r24
    433a:	91 83       	std	Z+1, r25	; 0x01
    433c:	a2 83       	std	Z+2, r26	; 0x02
    433e:	b3 83       	std	Z+3, r27	; 0x03
 */
void
_delay_ms(double __ms)
{
	uint16_t __ticks;
	double __tmp = ((F_CPU) / 4e3) * __ms;
    4340:	8e 01       	movw	r16, r28
    4342:	01 57       	subi	r16, 0x71	; 113
    4344:	1e 4f       	sbci	r17, 0xFE	; 254
    4346:	fe 01       	movw	r30, r28
    4348:	ed 56       	subi	r30, 0x6D	; 109
    434a:	fe 4f       	sbci	r31, 0xFE	; 254
    434c:	60 81       	ld	r22, Z
    434e:	71 81       	ldd	r23, Z+1	; 0x01
    4350:	82 81       	ldd	r24, Z+2	; 0x02
    4352:	93 81       	ldd	r25, Z+3	; 0x03
    4354:	20 e0       	ldi	r18, 0x00	; 0
    4356:	30 e0       	ldi	r19, 0x00	; 0
    4358:	4a ef       	ldi	r20, 0xFA	; 250
    435a:	54 e4       	ldi	r21, 0x44	; 68
    435c:	0e 94 1f 02 	call	0x43e	; 0x43e <__mulsf3>
    4360:	dc 01       	movw	r26, r24
    4362:	cb 01       	movw	r24, r22
    4364:	f8 01       	movw	r30, r16
    4366:	80 83       	st	Z, r24
    4368:	91 83       	std	Z+1, r25	; 0x01
    436a:	a2 83       	std	Z+2, r26	; 0x02
    436c:	b3 83       	std	Z+3, r27	; 0x03
	if (__tmp < 1.0)
    436e:	fe 01       	movw	r30, r28
    4370:	e1 57       	subi	r30, 0x71	; 113
    4372:	fe 4f       	sbci	r31, 0xFE	; 254
    4374:	60 81       	ld	r22, Z
    4376:	71 81       	ldd	r23, Z+1	; 0x01
    4378:	82 81       	ldd	r24, Z+2	; 0x02
    437a:	93 81       	ldd	r25, Z+3	; 0x03
    437c:	20 e0       	ldi	r18, 0x00	; 0
    437e:	30 e0       	ldi	r19, 0x00	; 0
    4380:	40 e8       	ldi	r20, 0x80	; 128
    4382:	5f e3       	ldi	r21, 0x3F	; 63
    4384:	0e 94 25 04 	call	0x84a	; 0x84a <__ltsf2>
    4388:	88 23       	and	r24, r24
    438a:	44 f4       	brge	.+16     	; 0x439c <APP_LCD_story+0x816>
		__ticks = 1;
    438c:	fe 01       	movw	r30, r28
    438e:	e3 57       	subi	r30, 0x73	; 115
    4390:	fe 4f       	sbci	r31, 0xFE	; 254
    4392:	81 e0       	ldi	r24, 0x01	; 1
    4394:	90 e0       	ldi	r25, 0x00	; 0
    4396:	91 83       	std	Z+1, r25	; 0x01
    4398:	80 83       	st	Z, r24
    439a:	64 c0       	rjmp	.+200    	; 0x4464 <APP_LCD_story+0x8de>
	else if (__tmp > 65535)
    439c:	fe 01       	movw	r30, r28
    439e:	e1 57       	subi	r30, 0x71	; 113
    43a0:	fe 4f       	sbci	r31, 0xFE	; 254
    43a2:	60 81       	ld	r22, Z
    43a4:	71 81       	ldd	r23, Z+1	; 0x01
    43a6:	82 81       	ldd	r24, Z+2	; 0x02
    43a8:	93 81       	ldd	r25, Z+3	; 0x03
    43aa:	20 e0       	ldi	r18, 0x00	; 0
    43ac:	3f ef       	ldi	r19, 0xFF	; 255
    43ae:	4f e7       	ldi	r20, 0x7F	; 127
    43b0:	57 e4       	ldi	r21, 0x47	; 71
    43b2:	0e 94 c5 03 	call	0x78a	; 0x78a <__gtsf2>
    43b6:	18 16       	cp	r1, r24
    43b8:	0c f0       	brlt	.+2      	; 0x43bc <APP_LCD_story+0x836>
    43ba:	43 c0       	rjmp	.+134    	; 0x4442 <APP_LCD_story+0x8bc>
	{
		//	__ticks = requested delay in 1/10 ms
		__ticks = (uint16_t) (__ms * 10.0);
    43bc:	fe 01       	movw	r30, r28
    43be:	ed 56       	subi	r30, 0x6D	; 109
    43c0:	fe 4f       	sbci	r31, 0xFE	; 254
    43c2:	60 81       	ld	r22, Z
    43c4:	71 81       	ldd	r23, Z+1	; 0x01
    43c6:	82 81       	ldd	r24, Z+2	; 0x02
    43c8:	93 81       	ldd	r25, Z+3	; 0x03
    43ca:	20 e0       	ldi	r18, 0x00	; 0
    43cc:	30 e0       	ldi	r19, 0x00	; 0
    43ce:	40 e2       	ldi	r20, 0x20	; 32
    43d0:	51 e4       	ldi	r21, 0x41	; 65
    43d2:	0e 94 1f 02 	call	0x43e	; 0x43e <__mulsf3>
    43d6:	dc 01       	movw	r26, r24
    43d8:	cb 01       	movw	r24, r22
    43da:	8e 01       	movw	r16, r28
    43dc:	03 57       	subi	r16, 0x73	; 115
    43de:	1e 4f       	sbci	r17, 0xFE	; 254
    43e0:	bc 01       	movw	r22, r24
    43e2:	cd 01       	movw	r24, r26
    43e4:	0e 94 49 00 	call	0x92	; 0x92 <__fixunssfsi>
    43e8:	dc 01       	movw	r26, r24
    43ea:	cb 01       	movw	r24, r22
    43ec:	f8 01       	movw	r30, r16
    43ee:	91 83       	std	Z+1, r25	; 0x01
    43f0:	80 83       	st	Z, r24
    43f2:	1f c0       	rjmp	.+62     	; 0x4432 <APP_LCD_story+0x8ac>
    43f4:	fe 01       	movw	r30, r28
    43f6:	e5 57       	subi	r30, 0x75	; 117
    43f8:	fe 4f       	sbci	r31, 0xFE	; 254
    43fa:	88 ec       	ldi	r24, 0xC8	; 200
    43fc:	90 e0       	ldi	r25, 0x00	; 0
    43fe:	91 83       	std	Z+1, r25	; 0x01
    4400:	80 83       	st	Z, r24
    4402:	fe 01       	movw	r30, r28
    4404:	e5 57       	subi	r30, 0x75	; 117
    4406:	fe 4f       	sbci	r31, 0xFE	; 254
    4408:	80 81       	ld	r24, Z
    440a:	91 81       	ldd	r25, Z+1	; 0x01
    440c:	01 97       	sbiw	r24, 0x01	; 1
    440e:	f1 f7       	brne	.-4      	; 0x440c <APP_LCD_story+0x886>
    4410:	fe 01       	movw	r30, r28
    4412:	e5 57       	subi	r30, 0x75	; 117
    4414:	fe 4f       	sbci	r31, 0xFE	; 254
    4416:	91 83       	std	Z+1, r25	; 0x01
    4418:	80 83       	st	Z, r24
		while(__ticks)
		{
			// wait 1/10 ms
			_delay_loop_2(((F_CPU) / 4e3) / 10);
			__ticks --;
    441a:	de 01       	movw	r26, r28
    441c:	a3 57       	subi	r26, 0x73	; 115
    441e:	be 4f       	sbci	r27, 0xFE	; 254
    4420:	fe 01       	movw	r30, r28
    4422:	e3 57       	subi	r30, 0x73	; 115
    4424:	fe 4f       	sbci	r31, 0xFE	; 254
    4426:	80 81       	ld	r24, Z
    4428:	91 81       	ldd	r25, Z+1	; 0x01
    442a:	01 97       	sbiw	r24, 0x01	; 1
    442c:	11 96       	adiw	r26, 0x01	; 1
    442e:	9c 93       	st	X, r25
    4430:	8e 93       	st	-X, r24
		__ticks = 1;
	else if (__tmp > 65535)
	{
		//	__ticks = requested delay in 1/10 ms
		__ticks = (uint16_t) (__ms * 10.0);
		while(__ticks)
    4432:	fe 01       	movw	r30, r28
    4434:	e3 57       	subi	r30, 0x73	; 115
    4436:	fe 4f       	sbci	r31, 0xFE	; 254
    4438:	80 81       	ld	r24, Z
    443a:	91 81       	ldd	r25, Z+1	; 0x01
    443c:	00 97       	sbiw	r24, 0x00	; 0
    443e:	d1 f6       	brne	.-76     	; 0x43f4 <APP_LCD_story+0x86e>
    4440:	27 c0       	rjmp	.+78     	; 0x4490 <APP_LCD_story+0x90a>
			__ticks --;
		}
		return;
	}
	else
		__ticks = (uint16_t)__tmp;
    4442:	8e 01       	movw	r16, r28
    4444:	03 57       	subi	r16, 0x73	; 115
    4446:	1e 4f       	sbci	r17, 0xFE	; 254
    4448:	fe 01       	movw	r30, r28
    444a:	e1 57       	subi	r30, 0x71	; 113
    444c:	fe 4f       	sbci	r31, 0xFE	; 254
    444e:	60 81       	ld	r22, Z
    4450:	71 81       	ldd	r23, Z+1	; 0x01
    4452:	82 81       	ldd	r24, Z+2	; 0x02
    4454:	93 81       	ldd	r25, Z+3	; 0x03
    4456:	0e 94 49 00 	call	0x92	; 0x92 <__fixunssfsi>
    445a:	dc 01       	movw	r26, r24
    445c:	cb 01       	movw	r24, r22
    445e:	f8 01       	movw	r30, r16
    4460:	91 83       	std	Z+1, r25	; 0x01
    4462:	80 83       	st	Z, r24
    4464:	de 01       	movw	r26, r28
    4466:	a7 57       	subi	r26, 0x77	; 119
    4468:	be 4f       	sbci	r27, 0xFE	; 254
    446a:	fe 01       	movw	r30, r28
    446c:	e3 57       	subi	r30, 0x73	; 115
    446e:	fe 4f       	sbci	r31, 0xFE	; 254
    4470:	80 81       	ld	r24, Z
    4472:	91 81       	ldd	r25, Z+1	; 0x01
    4474:	8d 93       	st	X+, r24
    4476:	9c 93       	st	X, r25
    4478:	fe 01       	movw	r30, r28
    447a:	e7 57       	subi	r30, 0x77	; 119
    447c:	fe 4f       	sbci	r31, 0xFE	; 254
    447e:	80 81       	ld	r24, Z
    4480:	91 81       	ldd	r25, Z+1	; 0x01
    4482:	01 97       	sbiw	r24, 0x01	; 1
    4484:	f1 f7       	brne	.-4      	; 0x4482 <APP_LCD_story+0x8fc>
    4486:	fe 01       	movw	r30, r28
    4488:	e7 57       	subi	r30, 0x77	; 119
    448a:	fe 4f       	sbci	r31, 0xFE	; 254
    448c:	91 83       	std	Z+1, r25	; 0x01
    448e:	80 83       	st	Z, r24
		_delay_ms(2000);



		LCD_GoTO(book__position,2);
    4490:	80 91 13 04 	lds	r24, 0x0413
    4494:	62 e0       	ldi	r22, 0x02	; 2
    4496:	0e 94 a4 19 	call	0x3348	; 0x3348 <LCD_GoTO>
		LCD_void_Data(0x03);
    449a:	83 e0       	ldi	r24, 0x03	; 3
    449c:	0e 94 63 16 	call	0x2cc6	; 0x2cc6 <LCD_void_Data>
    44a0:	fe 01       	movw	r30, r28
    44a2:	eb 57       	subi	r30, 0x7B	; 123
    44a4:	fe 4f       	sbci	r31, 0xFE	; 254
    44a6:	80 e0       	ldi	r24, 0x00	; 0
    44a8:	90 e8       	ldi	r25, 0x80	; 128
    44aa:	ab e3       	ldi	r26, 0x3B	; 59
    44ac:	b5 e4       	ldi	r27, 0x45	; 69
    44ae:	80 83       	st	Z, r24
    44b0:	91 83       	std	Z+1, r25	; 0x01
    44b2:	a2 83       	std	Z+2, r26	; 0x02
    44b4:	b3 83       	std	Z+3, r27	; 0x03
 */
void
_delay_ms(double __ms)
{
	uint16_t __ticks;
	double __tmp = ((F_CPU) / 4e3) * __ms;
    44b6:	8e 01       	movw	r16, r28
    44b8:	0f 57       	subi	r16, 0x7F	; 127
    44ba:	1e 4f       	sbci	r17, 0xFE	; 254
    44bc:	fe 01       	movw	r30, r28
    44be:	eb 57       	subi	r30, 0x7B	; 123
    44c0:	fe 4f       	sbci	r31, 0xFE	; 254
    44c2:	60 81       	ld	r22, Z
    44c4:	71 81       	ldd	r23, Z+1	; 0x01
    44c6:	82 81       	ldd	r24, Z+2	; 0x02
    44c8:	93 81       	ldd	r25, Z+3	; 0x03
    44ca:	20 e0       	ldi	r18, 0x00	; 0
    44cc:	30 e0       	ldi	r19, 0x00	; 0
    44ce:	4a ef       	ldi	r20, 0xFA	; 250
    44d0:	54 e4       	ldi	r21, 0x44	; 68
    44d2:	0e 94 1f 02 	call	0x43e	; 0x43e <__mulsf3>
    44d6:	dc 01       	movw	r26, r24
    44d8:	cb 01       	movw	r24, r22
    44da:	f8 01       	movw	r30, r16
    44dc:	80 83       	st	Z, r24
    44de:	91 83       	std	Z+1, r25	; 0x01
    44e0:	a2 83       	std	Z+2, r26	; 0x02
    44e2:	b3 83       	std	Z+3, r27	; 0x03
	if (__tmp < 1.0)
    44e4:	fe 01       	movw	r30, r28
    44e6:	ef 57       	subi	r30, 0x7F	; 127
    44e8:	fe 4f       	sbci	r31, 0xFE	; 254
    44ea:	60 81       	ld	r22, Z
    44ec:	71 81       	ldd	r23, Z+1	; 0x01
    44ee:	82 81       	ldd	r24, Z+2	; 0x02
    44f0:	93 81       	ldd	r25, Z+3	; 0x03
    44f2:	20 e0       	ldi	r18, 0x00	; 0
    44f4:	30 e0       	ldi	r19, 0x00	; 0
    44f6:	40 e8       	ldi	r20, 0x80	; 128
    44f8:	5f e3       	ldi	r21, 0x3F	; 63
    44fa:	0e 94 25 04 	call	0x84a	; 0x84a <__ltsf2>
    44fe:	88 23       	and	r24, r24
    4500:	44 f4       	brge	.+16     	; 0x4512 <APP_LCD_story+0x98c>
		__ticks = 1;
    4502:	fe 01       	movw	r30, r28
    4504:	e1 58       	subi	r30, 0x81	; 129
    4506:	fe 4f       	sbci	r31, 0xFE	; 254
    4508:	81 e0       	ldi	r24, 0x01	; 1
    450a:	90 e0       	ldi	r25, 0x00	; 0
    450c:	91 83       	std	Z+1, r25	; 0x01
    450e:	80 83       	st	Z, r24
    4510:	64 c0       	rjmp	.+200    	; 0x45da <APP_LCD_story+0xa54>
	else if (__tmp > 65535)
    4512:	fe 01       	movw	r30, r28
    4514:	ef 57       	subi	r30, 0x7F	; 127
    4516:	fe 4f       	sbci	r31, 0xFE	; 254
    4518:	60 81       	ld	r22, Z
    451a:	71 81       	ldd	r23, Z+1	; 0x01
    451c:	82 81       	ldd	r24, Z+2	; 0x02
    451e:	93 81       	ldd	r25, Z+3	; 0x03
    4520:	20 e0       	ldi	r18, 0x00	; 0
    4522:	3f ef       	ldi	r19, 0xFF	; 255
    4524:	4f e7       	ldi	r20, 0x7F	; 127
    4526:	57 e4       	ldi	r21, 0x47	; 71
    4528:	0e 94 c5 03 	call	0x78a	; 0x78a <__gtsf2>
    452c:	18 16       	cp	r1, r24
    452e:	0c f0       	brlt	.+2      	; 0x4532 <APP_LCD_story+0x9ac>
    4530:	43 c0       	rjmp	.+134    	; 0x45b8 <APP_LCD_story+0xa32>
	{
		//	__ticks = requested delay in 1/10 ms
		__ticks = (uint16_t) (__ms * 10.0);
    4532:	fe 01       	movw	r30, r28
    4534:	eb 57       	subi	r30, 0x7B	; 123
    4536:	fe 4f       	sbci	r31, 0xFE	; 254
    4538:	60 81       	ld	r22, Z
    453a:	71 81       	ldd	r23, Z+1	; 0x01
    453c:	82 81       	ldd	r24, Z+2	; 0x02
    453e:	93 81       	ldd	r25, Z+3	; 0x03
    4540:	20 e0       	ldi	r18, 0x00	; 0
    4542:	30 e0       	ldi	r19, 0x00	; 0
    4544:	40 e2       	ldi	r20, 0x20	; 32
    4546:	51 e4       	ldi	r21, 0x41	; 65
    4548:	0e 94 1f 02 	call	0x43e	; 0x43e <__mulsf3>
    454c:	dc 01       	movw	r26, r24
    454e:	cb 01       	movw	r24, r22
    4550:	8e 01       	movw	r16, r28
    4552:	01 58       	subi	r16, 0x81	; 129
    4554:	1e 4f       	sbci	r17, 0xFE	; 254
    4556:	bc 01       	movw	r22, r24
    4558:	cd 01       	movw	r24, r26
    455a:	0e 94 49 00 	call	0x92	; 0x92 <__fixunssfsi>
    455e:	dc 01       	movw	r26, r24
    4560:	cb 01       	movw	r24, r22
    4562:	f8 01       	movw	r30, r16
    4564:	91 83       	std	Z+1, r25	; 0x01
    4566:	80 83       	st	Z, r24
    4568:	1f c0       	rjmp	.+62     	; 0x45a8 <APP_LCD_story+0xa22>
    456a:	fe 01       	movw	r30, r28
    456c:	e3 58       	subi	r30, 0x83	; 131
    456e:	fe 4f       	sbci	r31, 0xFE	; 254
    4570:	88 ec       	ldi	r24, 0xC8	; 200
    4572:	90 e0       	ldi	r25, 0x00	; 0
    4574:	91 83       	std	Z+1, r25	; 0x01
    4576:	80 83       	st	Z, r24
    4578:	fe 01       	movw	r30, r28
    457a:	e3 58       	subi	r30, 0x83	; 131
    457c:	fe 4f       	sbci	r31, 0xFE	; 254
    457e:	80 81       	ld	r24, Z
    4580:	91 81       	ldd	r25, Z+1	; 0x01
    4582:	01 97       	sbiw	r24, 0x01	; 1
    4584:	f1 f7       	brne	.-4      	; 0x4582 <APP_LCD_story+0x9fc>
    4586:	fe 01       	movw	r30, r28
    4588:	e3 58       	subi	r30, 0x83	; 131
    458a:	fe 4f       	sbci	r31, 0xFE	; 254
    458c:	91 83       	std	Z+1, r25	; 0x01
    458e:	80 83       	st	Z, r24
		while(__ticks)
		{
			// wait 1/10 ms
			_delay_loop_2(((F_CPU) / 4e3) / 10);
			__ticks --;
    4590:	de 01       	movw	r26, r28
    4592:	a1 58       	subi	r26, 0x81	; 129
    4594:	be 4f       	sbci	r27, 0xFE	; 254
    4596:	fe 01       	movw	r30, r28
    4598:	e1 58       	subi	r30, 0x81	; 129
    459a:	fe 4f       	sbci	r31, 0xFE	; 254
    459c:	80 81       	ld	r24, Z
    459e:	91 81       	ldd	r25, Z+1	; 0x01
    45a0:	01 97       	sbiw	r24, 0x01	; 1
    45a2:	11 96       	adiw	r26, 0x01	; 1
    45a4:	9c 93       	st	X, r25
    45a6:	8e 93       	st	-X, r24
		__ticks = 1;
	else if (__tmp > 65535)
	{
		//	__ticks = requested delay in 1/10 ms
		__ticks = (uint16_t) (__ms * 10.0);
		while(__ticks)
    45a8:	fe 01       	movw	r30, r28
    45aa:	e1 58       	subi	r30, 0x81	; 129
    45ac:	fe 4f       	sbci	r31, 0xFE	; 254
    45ae:	80 81       	ld	r24, Z
    45b0:	91 81       	ldd	r25, Z+1	; 0x01
    45b2:	00 97       	sbiw	r24, 0x00	; 0
    45b4:	d1 f6       	brne	.-76     	; 0x456a <APP_LCD_story+0x9e4>
    45b6:	27 c0       	rjmp	.+78     	; 0x4606 <APP_LCD_story+0xa80>
			__ticks --;
		}
		return;
	}
	else
		__ticks = (uint16_t)__tmp;
    45b8:	8e 01       	movw	r16, r28
    45ba:	01 58       	subi	r16, 0x81	; 129
    45bc:	1e 4f       	sbci	r17, 0xFE	; 254
    45be:	fe 01       	movw	r30, r28
    45c0:	ef 57       	subi	r30, 0x7F	; 127
    45c2:	fe 4f       	sbci	r31, 0xFE	; 254
    45c4:	60 81       	ld	r22, Z
    45c6:	71 81       	ldd	r23, Z+1	; 0x01
    45c8:	82 81       	ldd	r24, Z+2	; 0x02
    45ca:	93 81       	ldd	r25, Z+3	; 0x03
    45cc:	0e 94 49 00 	call	0x92	; 0x92 <__fixunssfsi>
    45d0:	dc 01       	movw	r26, r24
    45d2:	cb 01       	movw	r24, r22
    45d4:	f8 01       	movw	r30, r16
    45d6:	91 83       	std	Z+1, r25	; 0x01
    45d8:	80 83       	st	Z, r24
    45da:	de 01       	movw	r26, r28
    45dc:	a5 58       	subi	r26, 0x85	; 133
    45de:	be 4f       	sbci	r27, 0xFE	; 254
    45e0:	fe 01       	movw	r30, r28
    45e2:	e1 58       	subi	r30, 0x81	; 129
    45e4:	fe 4f       	sbci	r31, 0xFE	; 254
    45e6:	80 81       	ld	r24, Z
    45e8:	91 81       	ldd	r25, Z+1	; 0x01
    45ea:	8d 93       	st	X+, r24
    45ec:	9c 93       	st	X, r25
    45ee:	fe 01       	movw	r30, r28
    45f0:	e5 58       	subi	r30, 0x85	; 133
    45f2:	fe 4f       	sbci	r31, 0xFE	; 254
    45f4:	80 81       	ld	r24, Z
    45f6:	91 81       	ldd	r25, Z+1	; 0x01
    45f8:	01 97       	sbiw	r24, 0x01	; 1
    45fa:	f1 f7       	brne	.-4      	; 0x45f8 <APP_LCD_story+0xa72>
    45fc:	fe 01       	movw	r30, r28
    45fe:	e5 58       	subi	r30, 0x85	; 133
    4600:	fe 4f       	sbci	r31, 0xFE	; 254
    4602:	91 83       	std	Z+1, r25	; 0x01
    4604:	80 83       	st	Z, r24
		_delay_ms(3000);

		APP_LCD_ClearLine1();
    4606:	0e 94 a7 36 	call	0x6d4e	; 0x6d4e <APP_LCD_ClearLine1>
		LCD_void_SendString((u8*)"Take me there");
    460a:	81 eb       	ldi	r24, 0xB1	; 177
    460c:	90 e0       	ldi	r25, 0x00	; 0
    460e:	0e 94 88 19 	call	0x3310	; 0x3310 <LCD_void_SendString>
    4612:	fe 01       	movw	r30, r28
    4614:	e9 58       	subi	r30, 0x89	; 137
    4616:	fe 4f       	sbci	r31, 0xFE	; 254
    4618:	80 e0       	ldi	r24, 0x00	; 0
    461a:	90 e0       	ldi	r25, 0x00	; 0
    461c:	aa ef       	ldi	r26, 0xFA	; 250
    461e:	b4 e4       	ldi	r27, 0x44	; 68
    4620:	80 83       	st	Z, r24
    4622:	91 83       	std	Z+1, r25	; 0x01
    4624:	a2 83       	std	Z+2, r26	; 0x02
    4626:	b3 83       	std	Z+3, r27	; 0x03
 */
void
_delay_ms(double __ms)
{
	uint16_t __ticks;
	double __tmp = ((F_CPU) / 4e3) * __ms;
    4628:	8e 01       	movw	r16, r28
    462a:	0d 58       	subi	r16, 0x8D	; 141
    462c:	1e 4f       	sbci	r17, 0xFE	; 254
    462e:	fe 01       	movw	r30, r28
    4630:	e9 58       	subi	r30, 0x89	; 137
    4632:	fe 4f       	sbci	r31, 0xFE	; 254
    4634:	60 81       	ld	r22, Z
    4636:	71 81       	ldd	r23, Z+1	; 0x01
    4638:	82 81       	ldd	r24, Z+2	; 0x02
    463a:	93 81       	ldd	r25, Z+3	; 0x03
    463c:	20 e0       	ldi	r18, 0x00	; 0
    463e:	30 e0       	ldi	r19, 0x00	; 0
    4640:	4a ef       	ldi	r20, 0xFA	; 250
    4642:	54 e4       	ldi	r21, 0x44	; 68
    4644:	0e 94 1f 02 	call	0x43e	; 0x43e <__mulsf3>
    4648:	dc 01       	movw	r26, r24
    464a:	cb 01       	movw	r24, r22
    464c:	f8 01       	movw	r30, r16
    464e:	80 83       	st	Z, r24
    4650:	91 83       	std	Z+1, r25	; 0x01
    4652:	a2 83       	std	Z+2, r26	; 0x02
    4654:	b3 83       	std	Z+3, r27	; 0x03
	if (__tmp < 1.0)
    4656:	fe 01       	movw	r30, r28
    4658:	ed 58       	subi	r30, 0x8D	; 141
    465a:	fe 4f       	sbci	r31, 0xFE	; 254
    465c:	60 81       	ld	r22, Z
    465e:	71 81       	ldd	r23, Z+1	; 0x01
    4660:	82 81       	ldd	r24, Z+2	; 0x02
    4662:	93 81       	ldd	r25, Z+3	; 0x03
    4664:	20 e0       	ldi	r18, 0x00	; 0
    4666:	30 e0       	ldi	r19, 0x00	; 0
    4668:	40 e8       	ldi	r20, 0x80	; 128
    466a:	5f e3       	ldi	r21, 0x3F	; 63
    466c:	0e 94 25 04 	call	0x84a	; 0x84a <__ltsf2>
    4670:	88 23       	and	r24, r24
    4672:	44 f4       	brge	.+16     	; 0x4684 <APP_LCD_story+0xafe>
		__ticks = 1;
    4674:	fe 01       	movw	r30, r28
    4676:	ef 58       	subi	r30, 0x8F	; 143
    4678:	fe 4f       	sbci	r31, 0xFE	; 254
    467a:	81 e0       	ldi	r24, 0x01	; 1
    467c:	90 e0       	ldi	r25, 0x00	; 0
    467e:	91 83       	std	Z+1, r25	; 0x01
    4680:	80 83       	st	Z, r24
    4682:	64 c0       	rjmp	.+200    	; 0x474c <APP_LCD_story+0xbc6>
	else if (__tmp > 65535)
    4684:	fe 01       	movw	r30, r28
    4686:	ed 58       	subi	r30, 0x8D	; 141
    4688:	fe 4f       	sbci	r31, 0xFE	; 254
    468a:	60 81       	ld	r22, Z
    468c:	71 81       	ldd	r23, Z+1	; 0x01
    468e:	82 81       	ldd	r24, Z+2	; 0x02
    4690:	93 81       	ldd	r25, Z+3	; 0x03
    4692:	20 e0       	ldi	r18, 0x00	; 0
    4694:	3f ef       	ldi	r19, 0xFF	; 255
    4696:	4f e7       	ldi	r20, 0x7F	; 127
    4698:	57 e4       	ldi	r21, 0x47	; 71
    469a:	0e 94 c5 03 	call	0x78a	; 0x78a <__gtsf2>
    469e:	18 16       	cp	r1, r24
    46a0:	0c f0       	brlt	.+2      	; 0x46a4 <APP_LCD_story+0xb1e>
    46a2:	43 c0       	rjmp	.+134    	; 0x472a <APP_LCD_story+0xba4>
	{
		//	__ticks = requested delay in 1/10 ms
		__ticks = (uint16_t) (__ms * 10.0);
    46a4:	fe 01       	movw	r30, r28
    46a6:	e9 58       	subi	r30, 0x89	; 137
    46a8:	fe 4f       	sbci	r31, 0xFE	; 254
    46aa:	60 81       	ld	r22, Z
    46ac:	71 81       	ldd	r23, Z+1	; 0x01
    46ae:	82 81       	ldd	r24, Z+2	; 0x02
    46b0:	93 81       	ldd	r25, Z+3	; 0x03
    46b2:	20 e0       	ldi	r18, 0x00	; 0
    46b4:	30 e0       	ldi	r19, 0x00	; 0
    46b6:	40 e2       	ldi	r20, 0x20	; 32
    46b8:	51 e4       	ldi	r21, 0x41	; 65
    46ba:	0e 94 1f 02 	call	0x43e	; 0x43e <__mulsf3>
    46be:	dc 01       	movw	r26, r24
    46c0:	cb 01       	movw	r24, r22
    46c2:	8e 01       	movw	r16, r28
    46c4:	0f 58       	subi	r16, 0x8F	; 143
    46c6:	1e 4f       	sbci	r17, 0xFE	; 254
    46c8:	bc 01       	movw	r22, r24
    46ca:	cd 01       	movw	r24, r26
    46cc:	0e 94 49 00 	call	0x92	; 0x92 <__fixunssfsi>
    46d0:	dc 01       	movw	r26, r24
    46d2:	cb 01       	movw	r24, r22
    46d4:	f8 01       	movw	r30, r16
    46d6:	91 83       	std	Z+1, r25	; 0x01
    46d8:	80 83       	st	Z, r24
    46da:	1f c0       	rjmp	.+62     	; 0x471a <APP_LCD_story+0xb94>
    46dc:	fe 01       	movw	r30, r28
    46de:	e1 59       	subi	r30, 0x91	; 145
    46e0:	fe 4f       	sbci	r31, 0xFE	; 254
    46e2:	88 ec       	ldi	r24, 0xC8	; 200
    46e4:	90 e0       	ldi	r25, 0x00	; 0
    46e6:	91 83       	std	Z+1, r25	; 0x01
    46e8:	80 83       	st	Z, r24
    46ea:	fe 01       	movw	r30, r28
    46ec:	e1 59       	subi	r30, 0x91	; 145
    46ee:	fe 4f       	sbci	r31, 0xFE	; 254
    46f0:	80 81       	ld	r24, Z
    46f2:	91 81       	ldd	r25, Z+1	; 0x01
    46f4:	01 97       	sbiw	r24, 0x01	; 1
    46f6:	f1 f7       	brne	.-4      	; 0x46f4 <APP_LCD_story+0xb6e>
    46f8:	fe 01       	movw	r30, r28
    46fa:	e1 59       	subi	r30, 0x91	; 145
    46fc:	fe 4f       	sbci	r31, 0xFE	; 254
    46fe:	91 83       	std	Z+1, r25	; 0x01
    4700:	80 83       	st	Z, r24
		while(__ticks)
		{
			// wait 1/10 ms
			_delay_loop_2(((F_CPU) / 4e3) / 10);
			__ticks --;
    4702:	de 01       	movw	r26, r28
    4704:	af 58       	subi	r26, 0x8F	; 143
    4706:	be 4f       	sbci	r27, 0xFE	; 254
    4708:	fe 01       	movw	r30, r28
    470a:	ef 58       	subi	r30, 0x8F	; 143
    470c:	fe 4f       	sbci	r31, 0xFE	; 254
    470e:	80 81       	ld	r24, Z
    4710:	91 81       	ldd	r25, Z+1	; 0x01
    4712:	01 97       	sbiw	r24, 0x01	; 1
    4714:	11 96       	adiw	r26, 0x01	; 1
    4716:	9c 93       	st	X, r25
    4718:	8e 93       	st	-X, r24
		__ticks = 1;
	else if (__tmp > 65535)
	{
		//	__ticks = requested delay in 1/10 ms
		__ticks = (uint16_t) (__ms * 10.0);
		while(__ticks)
    471a:	fe 01       	movw	r30, r28
    471c:	ef 58       	subi	r30, 0x8F	; 143
    471e:	fe 4f       	sbci	r31, 0xFE	; 254
    4720:	80 81       	ld	r24, Z
    4722:	91 81       	ldd	r25, Z+1	; 0x01
    4724:	00 97       	sbiw	r24, 0x00	; 0
    4726:	d1 f6       	brne	.-76     	; 0x46dc <APP_LCD_story+0xb56>
    4728:	27 c0       	rjmp	.+78     	; 0x4778 <APP_LCD_story+0xbf2>
			__ticks --;
		}
		return;
	}
	else
		__ticks = (uint16_t)__tmp;
    472a:	8e 01       	movw	r16, r28
    472c:	0f 58       	subi	r16, 0x8F	; 143
    472e:	1e 4f       	sbci	r17, 0xFE	; 254
    4730:	fe 01       	movw	r30, r28
    4732:	ed 58       	subi	r30, 0x8D	; 141
    4734:	fe 4f       	sbci	r31, 0xFE	; 254
    4736:	60 81       	ld	r22, Z
    4738:	71 81       	ldd	r23, Z+1	; 0x01
    473a:	82 81       	ldd	r24, Z+2	; 0x02
    473c:	93 81       	ldd	r25, Z+3	; 0x03
    473e:	0e 94 49 00 	call	0x92	; 0x92 <__fixunssfsi>
    4742:	dc 01       	movw	r26, r24
    4744:	cb 01       	movw	r24, r22
    4746:	f8 01       	movw	r30, r16
    4748:	91 83       	std	Z+1, r25	; 0x01
    474a:	80 83       	st	Z, r24
    474c:	de 01       	movw	r26, r28
    474e:	a3 59       	subi	r26, 0x93	; 147
    4750:	be 4f       	sbci	r27, 0xFE	; 254
    4752:	fe 01       	movw	r30, r28
    4754:	ef 58       	subi	r30, 0x8F	; 143
    4756:	fe 4f       	sbci	r31, 0xFE	; 254
    4758:	80 81       	ld	r24, Z
    475a:	91 81       	ldd	r25, Z+1	; 0x01
    475c:	8d 93       	st	X+, r24
    475e:	9c 93       	st	X, r25
    4760:	fe 01       	movw	r30, r28
    4762:	e3 59       	subi	r30, 0x93	; 147
    4764:	fe 4f       	sbci	r31, 0xFE	; 254
    4766:	80 81       	ld	r24, Z
    4768:	91 81       	ldd	r25, Z+1	; 0x01
    476a:	01 97       	sbiw	r24, 0x01	; 1
    476c:	f1 f7       	brne	.-4      	; 0x476a <APP_LCD_story+0xbe4>
    476e:	fe 01       	movw	r30, r28
    4770:	e3 59       	subi	r30, 0x93	; 147
    4772:	fe 4f       	sbci	r31, 0xFE	; 254
    4774:	91 83       	std	Z+1, r25	; 0x01
    4776:	80 83       	st	Z, r24
		_delay_ms(2000);


		while(1)
		{
			if(BTN0_GetValue())
    4778:	0e 94 de 11 	call	0x23bc	; 0x23bc <BTN0_GetValue>
    477c:	88 23       	and	r24, r24
    477e:	09 f4       	brne	.+2      	; 0x4782 <APP_LCD_story+0xbfc>
    4780:	e6 c6       	rjmp	.+3532   	; 0x554e <APP_LCD_story+0x19c8>
			{
				while(BTN0_GetValue());
    4782:	0e 94 de 11 	call	0x23bc	; 0x23bc <BTN0_GetValue>
    4786:	88 23       	and	r24, r24
    4788:	e1 f7       	brne	.-8      	; 0x4782 <APP_LCD_story+0xbfc>
				LCD_GoTO(Stickman_position,2);
    478a:	80 91 12 04 	lds	r24, 0x0412
    478e:	62 e0       	ldi	r22, 0x02	; 2
    4790:	0e 94 a4 19 	call	0x3348	; 0x3348 <LCD_GoTO>
				LCD_void_Data(' ');
    4794:	80 e2       	ldi	r24, 0x20	; 32
    4796:	0e 94 63 16 	call	0x2cc6	; 0x2cc6 <LCD_void_Data>
				Stickman_position--;
    479a:	80 91 12 04 	lds	r24, 0x0412
    479e:	81 50       	subi	r24, 0x01	; 1
    47a0:	80 93 12 04 	sts	0x0412, r24

				 if(Stickman_position <= 5)
    47a4:	80 91 12 04 	lds	r24, 0x0412
    47a8:	86 30       	cpi	r24, 0x06	; 6
    47aa:	08 f0       	brcs	.+2      	; 0x47ae <APP_LCD_story+0xc28>
    47ac:	ac c6       	rjmp	.+3416   	; 0x5506 <APP_LCD_story+0x1980>
				{

					Stickman_position=6;
    47ae:	86 e0       	ldi	r24, 0x06	; 6
    47b0:	80 93 12 04 	sts	0x0412, r24
					APP_LCD_ClearLine1();
    47b4:	0e 94 a7 36 	call	0x6d4e	; 0x6d4e <APP_LCD_ClearLine1>
					LCD_GoTO(1,1);
    47b8:	81 e0       	ldi	r24, 0x01	; 1
    47ba:	61 e0       	ldi	r22, 0x01	; 1
    47bc:	0e 94 a4 19 	call	0x3348	; 0x3348 <LCD_GoTO>
					LCD_void_SendString((u8*)"oh it's locked");
    47c0:	8f eb       	ldi	r24, 0xBF	; 191
    47c2:	90 e0       	ldi	r25, 0x00	; 0
    47c4:	0e 94 88 19 	call	0x3310	; 0x3310 <LCD_void_SendString>
					LCD_GoTO(book__position,2);
    47c8:	80 91 13 04 	lds	r24, 0x0413
    47cc:	62 e0       	ldi	r22, 0x02	; 2
    47ce:	0e 94 a4 19 	call	0x3348	; 0x3348 <LCD_GoTO>
					LCD_void_Data(' ');
    47d2:	80 e2       	ldi	r24, 0x20	; 32
    47d4:	0e 94 63 16 	call	0x2cc6	; 0x2cc6 <LCD_void_Data>
					LCD_GoTO(book__position,2);
    47d8:	80 91 13 04 	lds	r24, 0x0413
    47dc:	62 e0       	ldi	r22, 0x02	; 2
    47de:	0e 94 a4 19 	call	0x3348	; 0x3348 <LCD_GoTO>
					LCD_void_Data(0x4);
    47e2:	84 e0       	ldi	r24, 0x04	; 4
    47e4:	0e 94 63 16 	call	0x2cc6	; 0x2cc6 <LCD_void_Data>
					LCD_GoTO(Stickman_position,2);
    47e8:	80 91 12 04 	lds	r24, 0x0412
    47ec:	62 e0       	ldi	r22, 0x02	; 2
    47ee:	0e 94 a4 19 	call	0x3348	; 0x3348 <LCD_GoTO>
					LCD_void_Data(0x00);
    47f2:	80 e0       	ldi	r24, 0x00	; 0
    47f4:	0e 94 63 16 	call	0x2cc6	; 0x2cc6 <LCD_void_Data>
    47f8:	fe 01       	movw	r30, r28
    47fa:	e7 59       	subi	r30, 0x97	; 151
    47fc:	fe 4f       	sbci	r31, 0xFE	; 254
    47fe:	80 e0       	ldi	r24, 0x00	; 0
    4800:	90 e8       	ldi	r25, 0x80	; 128
    4802:	ab e3       	ldi	r26, 0x3B	; 59
    4804:	b5 e4       	ldi	r27, 0x45	; 69
    4806:	80 83       	st	Z, r24
    4808:	91 83       	std	Z+1, r25	; 0x01
    480a:	a2 83       	std	Z+2, r26	; 0x02
    480c:	b3 83       	std	Z+3, r27	; 0x03
 */
void
_delay_ms(double __ms)
{
	uint16_t __ticks;
	double __tmp = ((F_CPU) / 4e3) * __ms;
    480e:	8e 01       	movw	r16, r28
    4810:	0b 59       	subi	r16, 0x9B	; 155
    4812:	1e 4f       	sbci	r17, 0xFE	; 254
    4814:	fe 01       	movw	r30, r28
    4816:	e7 59       	subi	r30, 0x97	; 151
    4818:	fe 4f       	sbci	r31, 0xFE	; 254
    481a:	60 81       	ld	r22, Z
    481c:	71 81       	ldd	r23, Z+1	; 0x01
    481e:	82 81       	ldd	r24, Z+2	; 0x02
    4820:	93 81       	ldd	r25, Z+3	; 0x03
    4822:	20 e0       	ldi	r18, 0x00	; 0
    4824:	30 e0       	ldi	r19, 0x00	; 0
    4826:	4a ef       	ldi	r20, 0xFA	; 250
    4828:	54 e4       	ldi	r21, 0x44	; 68
    482a:	0e 94 1f 02 	call	0x43e	; 0x43e <__mulsf3>
    482e:	dc 01       	movw	r26, r24
    4830:	cb 01       	movw	r24, r22
    4832:	f8 01       	movw	r30, r16
    4834:	80 83       	st	Z, r24
    4836:	91 83       	std	Z+1, r25	; 0x01
    4838:	a2 83       	std	Z+2, r26	; 0x02
    483a:	b3 83       	std	Z+3, r27	; 0x03
	if (__tmp < 1.0)
    483c:	fe 01       	movw	r30, r28
    483e:	eb 59       	subi	r30, 0x9B	; 155
    4840:	fe 4f       	sbci	r31, 0xFE	; 254
    4842:	60 81       	ld	r22, Z
    4844:	71 81       	ldd	r23, Z+1	; 0x01
    4846:	82 81       	ldd	r24, Z+2	; 0x02
    4848:	93 81       	ldd	r25, Z+3	; 0x03
    484a:	20 e0       	ldi	r18, 0x00	; 0
    484c:	30 e0       	ldi	r19, 0x00	; 0
    484e:	40 e8       	ldi	r20, 0x80	; 128
    4850:	5f e3       	ldi	r21, 0x3F	; 63
    4852:	0e 94 25 04 	call	0x84a	; 0x84a <__ltsf2>
    4856:	88 23       	and	r24, r24
    4858:	44 f4       	brge	.+16     	; 0x486a <APP_LCD_story+0xce4>
		__ticks = 1;
    485a:	fe 01       	movw	r30, r28
    485c:	ed 59       	subi	r30, 0x9D	; 157
    485e:	fe 4f       	sbci	r31, 0xFE	; 254
    4860:	81 e0       	ldi	r24, 0x01	; 1
    4862:	90 e0       	ldi	r25, 0x00	; 0
    4864:	91 83       	std	Z+1, r25	; 0x01
    4866:	80 83       	st	Z, r24
    4868:	64 c0       	rjmp	.+200    	; 0x4932 <APP_LCD_story+0xdac>
	else if (__tmp > 65535)
    486a:	fe 01       	movw	r30, r28
    486c:	eb 59       	subi	r30, 0x9B	; 155
    486e:	fe 4f       	sbci	r31, 0xFE	; 254
    4870:	60 81       	ld	r22, Z
    4872:	71 81       	ldd	r23, Z+1	; 0x01
    4874:	82 81       	ldd	r24, Z+2	; 0x02
    4876:	93 81       	ldd	r25, Z+3	; 0x03
    4878:	20 e0       	ldi	r18, 0x00	; 0
    487a:	3f ef       	ldi	r19, 0xFF	; 255
    487c:	4f e7       	ldi	r20, 0x7F	; 127
    487e:	57 e4       	ldi	r21, 0x47	; 71
    4880:	0e 94 c5 03 	call	0x78a	; 0x78a <__gtsf2>
    4884:	18 16       	cp	r1, r24
    4886:	0c f0       	brlt	.+2      	; 0x488a <APP_LCD_story+0xd04>
    4888:	43 c0       	rjmp	.+134    	; 0x4910 <APP_LCD_story+0xd8a>
	{
		//	__ticks = requested delay in 1/10 ms
		__ticks = (uint16_t) (__ms * 10.0);
    488a:	fe 01       	movw	r30, r28
    488c:	e7 59       	subi	r30, 0x97	; 151
    488e:	fe 4f       	sbci	r31, 0xFE	; 254
    4890:	60 81       	ld	r22, Z
    4892:	71 81       	ldd	r23, Z+1	; 0x01
    4894:	82 81       	ldd	r24, Z+2	; 0x02
    4896:	93 81       	ldd	r25, Z+3	; 0x03
    4898:	20 e0       	ldi	r18, 0x00	; 0
    489a:	30 e0       	ldi	r19, 0x00	; 0
    489c:	40 e2       	ldi	r20, 0x20	; 32
    489e:	51 e4       	ldi	r21, 0x41	; 65
    48a0:	0e 94 1f 02 	call	0x43e	; 0x43e <__mulsf3>
    48a4:	dc 01       	movw	r26, r24
    48a6:	cb 01       	movw	r24, r22
    48a8:	8e 01       	movw	r16, r28
    48aa:	0d 59       	subi	r16, 0x9D	; 157
    48ac:	1e 4f       	sbci	r17, 0xFE	; 254
    48ae:	bc 01       	movw	r22, r24
    48b0:	cd 01       	movw	r24, r26
    48b2:	0e 94 49 00 	call	0x92	; 0x92 <__fixunssfsi>
    48b6:	dc 01       	movw	r26, r24
    48b8:	cb 01       	movw	r24, r22
    48ba:	f8 01       	movw	r30, r16
    48bc:	91 83       	std	Z+1, r25	; 0x01
    48be:	80 83       	st	Z, r24
    48c0:	1f c0       	rjmp	.+62     	; 0x4900 <APP_LCD_story+0xd7a>
    48c2:	fe 01       	movw	r30, r28
    48c4:	ef 59       	subi	r30, 0x9F	; 159
    48c6:	fe 4f       	sbci	r31, 0xFE	; 254
    48c8:	88 ec       	ldi	r24, 0xC8	; 200
    48ca:	90 e0       	ldi	r25, 0x00	; 0
    48cc:	91 83       	std	Z+1, r25	; 0x01
    48ce:	80 83       	st	Z, r24
    48d0:	fe 01       	movw	r30, r28
    48d2:	ef 59       	subi	r30, 0x9F	; 159
    48d4:	fe 4f       	sbci	r31, 0xFE	; 254
    48d6:	80 81       	ld	r24, Z
    48d8:	91 81       	ldd	r25, Z+1	; 0x01
    48da:	01 97       	sbiw	r24, 0x01	; 1
    48dc:	f1 f7       	brne	.-4      	; 0x48da <APP_LCD_story+0xd54>
    48de:	fe 01       	movw	r30, r28
    48e0:	ef 59       	subi	r30, 0x9F	; 159
    48e2:	fe 4f       	sbci	r31, 0xFE	; 254
    48e4:	91 83       	std	Z+1, r25	; 0x01
    48e6:	80 83       	st	Z, r24
		while(__ticks)
		{
			// wait 1/10 ms
			_delay_loop_2(((F_CPU) / 4e3) / 10);
			__ticks --;
    48e8:	de 01       	movw	r26, r28
    48ea:	ad 59       	subi	r26, 0x9D	; 157
    48ec:	be 4f       	sbci	r27, 0xFE	; 254
    48ee:	fe 01       	movw	r30, r28
    48f0:	ed 59       	subi	r30, 0x9D	; 157
    48f2:	fe 4f       	sbci	r31, 0xFE	; 254
    48f4:	80 81       	ld	r24, Z
    48f6:	91 81       	ldd	r25, Z+1	; 0x01
    48f8:	01 97       	sbiw	r24, 0x01	; 1
    48fa:	11 96       	adiw	r26, 0x01	; 1
    48fc:	9c 93       	st	X, r25
    48fe:	8e 93       	st	-X, r24
		__ticks = 1;
	else if (__tmp > 65535)
	{
		//	__ticks = requested delay in 1/10 ms
		__ticks = (uint16_t) (__ms * 10.0);
		while(__ticks)
    4900:	fe 01       	movw	r30, r28
    4902:	ed 59       	subi	r30, 0x9D	; 157
    4904:	fe 4f       	sbci	r31, 0xFE	; 254
    4906:	80 81       	ld	r24, Z
    4908:	91 81       	ldd	r25, Z+1	; 0x01
    490a:	00 97       	sbiw	r24, 0x00	; 0
    490c:	d1 f6       	brne	.-76     	; 0x48c2 <APP_LCD_story+0xd3c>
    490e:	27 c0       	rjmp	.+78     	; 0x495e <APP_LCD_story+0xdd8>
			__ticks --;
		}
		return;
	}
	else
		__ticks = (uint16_t)__tmp;
    4910:	8e 01       	movw	r16, r28
    4912:	0d 59       	subi	r16, 0x9D	; 157
    4914:	1e 4f       	sbci	r17, 0xFE	; 254
    4916:	fe 01       	movw	r30, r28
    4918:	eb 59       	subi	r30, 0x9B	; 155
    491a:	fe 4f       	sbci	r31, 0xFE	; 254
    491c:	60 81       	ld	r22, Z
    491e:	71 81       	ldd	r23, Z+1	; 0x01
    4920:	82 81       	ldd	r24, Z+2	; 0x02
    4922:	93 81       	ldd	r25, Z+3	; 0x03
    4924:	0e 94 49 00 	call	0x92	; 0x92 <__fixunssfsi>
    4928:	dc 01       	movw	r26, r24
    492a:	cb 01       	movw	r24, r22
    492c:	f8 01       	movw	r30, r16
    492e:	91 83       	std	Z+1, r25	; 0x01
    4930:	80 83       	st	Z, r24
    4932:	de 01       	movw	r26, r28
    4934:	a1 5a       	subi	r26, 0xA1	; 161
    4936:	be 4f       	sbci	r27, 0xFE	; 254
    4938:	fe 01       	movw	r30, r28
    493a:	ed 59       	subi	r30, 0x9D	; 157
    493c:	fe 4f       	sbci	r31, 0xFE	; 254
    493e:	80 81       	ld	r24, Z
    4940:	91 81       	ldd	r25, Z+1	; 0x01
    4942:	8d 93       	st	X+, r24
    4944:	9c 93       	st	X, r25
    4946:	fe 01       	movw	r30, r28
    4948:	e1 5a       	subi	r30, 0xA1	; 161
    494a:	fe 4f       	sbci	r31, 0xFE	; 254
    494c:	80 81       	ld	r24, Z
    494e:	91 81       	ldd	r25, Z+1	; 0x01
    4950:	01 97       	sbiw	r24, 0x01	; 1
    4952:	f1 f7       	brne	.-4      	; 0x4950 <APP_LCD_story+0xdca>
    4954:	fe 01       	movw	r30, r28
    4956:	e1 5a       	subi	r30, 0xA1	; 161
    4958:	fe 4f       	sbci	r31, 0xFE	; 254
    495a:	91 83       	std	Z+1, r25	; 0x01
    495c:	80 83       	st	Z, r24
				LCD_GoTO(Stickman_position,2);
				LCD_void_Data(0x00);
			}
		}

		LCD_GoTO(1,1);
    495e:	81 e0       	ldi	r24, 0x01	; 1
    4960:	61 e0       	ldi	r22, 0x01	; 1
    4962:	0e 94 a4 19 	call	0x3348	; 0x3348 <LCD_GoTO>
		APP_LCD_ClearLine1();
    4966:	0e 94 a7 36 	call	0x6d4e	; 0x6d4e <APP_LCD_ClearLine1>
		LCD_void_SendString((u8*)"My bad i forgot");
    496a:	8e ec       	ldi	r24, 0xCE	; 206
    496c:	90 e0       	ldi	r25, 0x00	; 0
    496e:	0e 94 88 19 	call	0x3310	; 0x3310 <LCD_void_SendString>
    4972:	fe 01       	movw	r30, r28
    4974:	e5 5a       	subi	r30, 0xA5	; 165
    4976:	fe 4f       	sbci	r31, 0xFE	; 254
    4978:	80 e0       	ldi	r24, 0x00	; 0
    497a:	90 e0       	ldi	r25, 0x00	; 0
    497c:	aa ef       	ldi	r26, 0xFA	; 250
    497e:	b4 e4       	ldi	r27, 0x44	; 68
    4980:	80 83       	st	Z, r24
    4982:	91 83       	std	Z+1, r25	; 0x01
    4984:	a2 83       	std	Z+2, r26	; 0x02
    4986:	b3 83       	std	Z+3, r27	; 0x03
 */
void
_delay_ms(double __ms)
{
	uint16_t __ticks;
	double __tmp = ((F_CPU) / 4e3) * __ms;
    4988:	8e 01       	movw	r16, r28
    498a:	09 5a       	subi	r16, 0xA9	; 169
    498c:	1e 4f       	sbci	r17, 0xFE	; 254
    498e:	fe 01       	movw	r30, r28
    4990:	e5 5a       	subi	r30, 0xA5	; 165
    4992:	fe 4f       	sbci	r31, 0xFE	; 254
    4994:	60 81       	ld	r22, Z
    4996:	71 81       	ldd	r23, Z+1	; 0x01
    4998:	82 81       	ldd	r24, Z+2	; 0x02
    499a:	93 81       	ldd	r25, Z+3	; 0x03
    499c:	20 e0       	ldi	r18, 0x00	; 0
    499e:	30 e0       	ldi	r19, 0x00	; 0
    49a0:	4a ef       	ldi	r20, 0xFA	; 250
    49a2:	54 e4       	ldi	r21, 0x44	; 68
    49a4:	0e 94 1f 02 	call	0x43e	; 0x43e <__mulsf3>
    49a8:	dc 01       	movw	r26, r24
    49aa:	cb 01       	movw	r24, r22
    49ac:	f8 01       	movw	r30, r16
    49ae:	80 83       	st	Z, r24
    49b0:	91 83       	std	Z+1, r25	; 0x01
    49b2:	a2 83       	std	Z+2, r26	; 0x02
    49b4:	b3 83       	std	Z+3, r27	; 0x03
	if (__tmp < 1.0)
    49b6:	fe 01       	movw	r30, r28
    49b8:	e9 5a       	subi	r30, 0xA9	; 169
    49ba:	fe 4f       	sbci	r31, 0xFE	; 254
    49bc:	60 81       	ld	r22, Z
    49be:	71 81       	ldd	r23, Z+1	; 0x01
    49c0:	82 81       	ldd	r24, Z+2	; 0x02
    49c2:	93 81       	ldd	r25, Z+3	; 0x03
    49c4:	20 e0       	ldi	r18, 0x00	; 0
    49c6:	30 e0       	ldi	r19, 0x00	; 0
    49c8:	40 e8       	ldi	r20, 0x80	; 128
    49ca:	5f e3       	ldi	r21, 0x3F	; 63
    49cc:	0e 94 25 04 	call	0x84a	; 0x84a <__ltsf2>
    49d0:	88 23       	and	r24, r24
    49d2:	44 f4       	brge	.+16     	; 0x49e4 <APP_LCD_story+0xe5e>
		__ticks = 1;
    49d4:	fe 01       	movw	r30, r28
    49d6:	eb 5a       	subi	r30, 0xAB	; 171
    49d8:	fe 4f       	sbci	r31, 0xFE	; 254
    49da:	81 e0       	ldi	r24, 0x01	; 1
    49dc:	90 e0       	ldi	r25, 0x00	; 0
    49de:	91 83       	std	Z+1, r25	; 0x01
    49e0:	80 83       	st	Z, r24
    49e2:	64 c0       	rjmp	.+200    	; 0x4aac <APP_LCD_story+0xf26>
	else if (__tmp > 65535)
    49e4:	fe 01       	movw	r30, r28
    49e6:	e9 5a       	subi	r30, 0xA9	; 169
    49e8:	fe 4f       	sbci	r31, 0xFE	; 254
    49ea:	60 81       	ld	r22, Z
    49ec:	71 81       	ldd	r23, Z+1	; 0x01
    49ee:	82 81       	ldd	r24, Z+2	; 0x02
    49f0:	93 81       	ldd	r25, Z+3	; 0x03
    49f2:	20 e0       	ldi	r18, 0x00	; 0
    49f4:	3f ef       	ldi	r19, 0xFF	; 255
    49f6:	4f e7       	ldi	r20, 0x7F	; 127
    49f8:	57 e4       	ldi	r21, 0x47	; 71
    49fa:	0e 94 c5 03 	call	0x78a	; 0x78a <__gtsf2>
    49fe:	18 16       	cp	r1, r24
    4a00:	0c f0       	brlt	.+2      	; 0x4a04 <APP_LCD_story+0xe7e>
    4a02:	43 c0       	rjmp	.+134    	; 0x4a8a <APP_LCD_story+0xf04>
	{
		//	__ticks = requested delay in 1/10 ms
		__ticks = (uint16_t) (__ms * 10.0);
    4a04:	fe 01       	movw	r30, r28
    4a06:	e5 5a       	subi	r30, 0xA5	; 165
    4a08:	fe 4f       	sbci	r31, 0xFE	; 254
    4a0a:	60 81       	ld	r22, Z
    4a0c:	71 81       	ldd	r23, Z+1	; 0x01
    4a0e:	82 81       	ldd	r24, Z+2	; 0x02
    4a10:	93 81       	ldd	r25, Z+3	; 0x03
    4a12:	20 e0       	ldi	r18, 0x00	; 0
    4a14:	30 e0       	ldi	r19, 0x00	; 0
    4a16:	40 e2       	ldi	r20, 0x20	; 32
    4a18:	51 e4       	ldi	r21, 0x41	; 65
    4a1a:	0e 94 1f 02 	call	0x43e	; 0x43e <__mulsf3>
    4a1e:	dc 01       	movw	r26, r24
    4a20:	cb 01       	movw	r24, r22
    4a22:	8e 01       	movw	r16, r28
    4a24:	0b 5a       	subi	r16, 0xAB	; 171
    4a26:	1e 4f       	sbci	r17, 0xFE	; 254
    4a28:	bc 01       	movw	r22, r24
    4a2a:	cd 01       	movw	r24, r26
    4a2c:	0e 94 49 00 	call	0x92	; 0x92 <__fixunssfsi>
    4a30:	dc 01       	movw	r26, r24
    4a32:	cb 01       	movw	r24, r22
    4a34:	f8 01       	movw	r30, r16
    4a36:	91 83       	std	Z+1, r25	; 0x01
    4a38:	80 83       	st	Z, r24
    4a3a:	1f c0       	rjmp	.+62     	; 0x4a7a <APP_LCD_story+0xef4>
    4a3c:	fe 01       	movw	r30, r28
    4a3e:	ed 5a       	subi	r30, 0xAD	; 173
    4a40:	fe 4f       	sbci	r31, 0xFE	; 254
    4a42:	88 ec       	ldi	r24, 0xC8	; 200
    4a44:	90 e0       	ldi	r25, 0x00	; 0
    4a46:	91 83       	std	Z+1, r25	; 0x01
    4a48:	80 83       	st	Z, r24
    4a4a:	fe 01       	movw	r30, r28
    4a4c:	ed 5a       	subi	r30, 0xAD	; 173
    4a4e:	fe 4f       	sbci	r31, 0xFE	; 254
    4a50:	80 81       	ld	r24, Z
    4a52:	91 81       	ldd	r25, Z+1	; 0x01
    4a54:	01 97       	sbiw	r24, 0x01	; 1
    4a56:	f1 f7       	brne	.-4      	; 0x4a54 <APP_LCD_story+0xece>
    4a58:	fe 01       	movw	r30, r28
    4a5a:	ed 5a       	subi	r30, 0xAD	; 173
    4a5c:	fe 4f       	sbci	r31, 0xFE	; 254
    4a5e:	91 83       	std	Z+1, r25	; 0x01
    4a60:	80 83       	st	Z, r24
		while(__ticks)
		{
			// wait 1/10 ms
			_delay_loop_2(((F_CPU) / 4e3) / 10);
			__ticks --;
    4a62:	de 01       	movw	r26, r28
    4a64:	ab 5a       	subi	r26, 0xAB	; 171
    4a66:	be 4f       	sbci	r27, 0xFE	; 254
    4a68:	fe 01       	movw	r30, r28
    4a6a:	eb 5a       	subi	r30, 0xAB	; 171
    4a6c:	fe 4f       	sbci	r31, 0xFE	; 254
    4a6e:	80 81       	ld	r24, Z
    4a70:	91 81       	ldd	r25, Z+1	; 0x01
    4a72:	01 97       	sbiw	r24, 0x01	; 1
    4a74:	11 96       	adiw	r26, 0x01	; 1
    4a76:	9c 93       	st	X, r25
    4a78:	8e 93       	st	-X, r24
		__ticks = 1;
	else if (__tmp > 65535)
	{
		//	__ticks = requested delay in 1/10 ms
		__ticks = (uint16_t) (__ms * 10.0);
		while(__ticks)
    4a7a:	fe 01       	movw	r30, r28
    4a7c:	eb 5a       	subi	r30, 0xAB	; 171
    4a7e:	fe 4f       	sbci	r31, 0xFE	; 254
    4a80:	80 81       	ld	r24, Z
    4a82:	91 81       	ldd	r25, Z+1	; 0x01
    4a84:	00 97       	sbiw	r24, 0x00	; 0
    4a86:	d1 f6       	brne	.-76     	; 0x4a3c <APP_LCD_story+0xeb6>
    4a88:	27 c0       	rjmp	.+78     	; 0x4ad8 <APP_LCD_story+0xf52>
			__ticks --;
		}
		return;
	}
	else
		__ticks = (uint16_t)__tmp;
    4a8a:	8e 01       	movw	r16, r28
    4a8c:	0b 5a       	subi	r16, 0xAB	; 171
    4a8e:	1e 4f       	sbci	r17, 0xFE	; 254
    4a90:	fe 01       	movw	r30, r28
    4a92:	e9 5a       	subi	r30, 0xA9	; 169
    4a94:	fe 4f       	sbci	r31, 0xFE	; 254
    4a96:	60 81       	ld	r22, Z
    4a98:	71 81       	ldd	r23, Z+1	; 0x01
    4a9a:	82 81       	ldd	r24, Z+2	; 0x02
    4a9c:	93 81       	ldd	r25, Z+3	; 0x03
    4a9e:	0e 94 49 00 	call	0x92	; 0x92 <__fixunssfsi>
    4aa2:	dc 01       	movw	r26, r24
    4aa4:	cb 01       	movw	r24, r22
    4aa6:	f8 01       	movw	r30, r16
    4aa8:	91 83       	std	Z+1, r25	; 0x01
    4aaa:	80 83       	st	Z, r24
    4aac:	de 01       	movw	r26, r28
    4aae:	af 5a       	subi	r26, 0xAF	; 175
    4ab0:	be 4f       	sbci	r27, 0xFE	; 254
    4ab2:	fe 01       	movw	r30, r28
    4ab4:	eb 5a       	subi	r30, 0xAB	; 171
    4ab6:	fe 4f       	sbci	r31, 0xFE	; 254
    4ab8:	80 81       	ld	r24, Z
    4aba:	91 81       	ldd	r25, Z+1	; 0x01
    4abc:	8d 93       	st	X+, r24
    4abe:	9c 93       	st	X, r25
    4ac0:	fe 01       	movw	r30, r28
    4ac2:	ef 5a       	subi	r30, 0xAF	; 175
    4ac4:	fe 4f       	sbci	r31, 0xFE	; 254
    4ac6:	80 81       	ld	r24, Z
    4ac8:	91 81       	ldd	r25, Z+1	; 0x01
    4aca:	01 97       	sbiw	r24, 0x01	; 1
    4acc:	f1 f7       	brne	.-4      	; 0x4aca <APP_LCD_story+0xf44>
    4ace:	fe 01       	movw	r30, r28
    4ad0:	ef 5a       	subi	r30, 0xAF	; 175
    4ad2:	fe 4f       	sbci	r31, 0xFE	; 254
    4ad4:	91 83       	std	Z+1, r25	; 0x01
    4ad6:	80 83       	st	Z, r24
		_delay_ms(2000);

		APP_LCD_ClearLine1();
    4ad8:	0e 94 a7 36 	call	0x6d4e	; 0x6d4e <APP_LCD_ClearLine1>
		LCD_void_SendString((u8*)"i always lock ");
    4adc:	8e ed       	ldi	r24, 0xDE	; 222
    4ade:	90 e0       	ldi	r25, 0x00	; 0
    4ae0:	0e 94 88 19 	call	0x3310	; 0x3310 <LCD_void_SendString>
    4ae4:	fe 01       	movw	r30, r28
    4ae6:	e3 5b       	subi	r30, 0xB3	; 179
    4ae8:	fe 4f       	sbci	r31, 0xFE	; 254
    4aea:	80 e0       	ldi	r24, 0x00	; 0
    4aec:	90 e0       	ldi	r25, 0x00	; 0
    4aee:	aa ef       	ldi	r26, 0xFA	; 250
    4af0:	b4 e4       	ldi	r27, 0x44	; 68
    4af2:	80 83       	st	Z, r24
    4af4:	91 83       	std	Z+1, r25	; 0x01
    4af6:	a2 83       	std	Z+2, r26	; 0x02
    4af8:	b3 83       	std	Z+3, r27	; 0x03
 */
void
_delay_ms(double __ms)
{
	uint16_t __ticks;
	double __tmp = ((F_CPU) / 4e3) * __ms;
    4afa:	8e 01       	movw	r16, r28
    4afc:	07 5b       	subi	r16, 0xB7	; 183
    4afe:	1e 4f       	sbci	r17, 0xFE	; 254
    4b00:	fe 01       	movw	r30, r28
    4b02:	e3 5b       	subi	r30, 0xB3	; 179
    4b04:	fe 4f       	sbci	r31, 0xFE	; 254
    4b06:	60 81       	ld	r22, Z
    4b08:	71 81       	ldd	r23, Z+1	; 0x01
    4b0a:	82 81       	ldd	r24, Z+2	; 0x02
    4b0c:	93 81       	ldd	r25, Z+3	; 0x03
    4b0e:	20 e0       	ldi	r18, 0x00	; 0
    4b10:	30 e0       	ldi	r19, 0x00	; 0
    4b12:	4a ef       	ldi	r20, 0xFA	; 250
    4b14:	54 e4       	ldi	r21, 0x44	; 68
    4b16:	0e 94 1f 02 	call	0x43e	; 0x43e <__mulsf3>
    4b1a:	dc 01       	movw	r26, r24
    4b1c:	cb 01       	movw	r24, r22
    4b1e:	f8 01       	movw	r30, r16
    4b20:	80 83       	st	Z, r24
    4b22:	91 83       	std	Z+1, r25	; 0x01
    4b24:	a2 83       	std	Z+2, r26	; 0x02
    4b26:	b3 83       	std	Z+3, r27	; 0x03
	if (__tmp < 1.0)
    4b28:	fe 01       	movw	r30, r28
    4b2a:	e7 5b       	subi	r30, 0xB7	; 183
    4b2c:	fe 4f       	sbci	r31, 0xFE	; 254
    4b2e:	60 81       	ld	r22, Z
    4b30:	71 81       	ldd	r23, Z+1	; 0x01
    4b32:	82 81       	ldd	r24, Z+2	; 0x02
    4b34:	93 81       	ldd	r25, Z+3	; 0x03
    4b36:	20 e0       	ldi	r18, 0x00	; 0
    4b38:	30 e0       	ldi	r19, 0x00	; 0
    4b3a:	40 e8       	ldi	r20, 0x80	; 128
    4b3c:	5f e3       	ldi	r21, 0x3F	; 63
    4b3e:	0e 94 25 04 	call	0x84a	; 0x84a <__ltsf2>
    4b42:	88 23       	and	r24, r24
    4b44:	44 f4       	brge	.+16     	; 0x4b56 <APP_LCD_story+0xfd0>
		__ticks = 1;
    4b46:	fe 01       	movw	r30, r28
    4b48:	e9 5b       	subi	r30, 0xB9	; 185
    4b4a:	fe 4f       	sbci	r31, 0xFE	; 254
    4b4c:	81 e0       	ldi	r24, 0x01	; 1
    4b4e:	90 e0       	ldi	r25, 0x00	; 0
    4b50:	91 83       	std	Z+1, r25	; 0x01
    4b52:	80 83       	st	Z, r24
    4b54:	64 c0       	rjmp	.+200    	; 0x4c1e <APP_LCD_story+0x1098>
	else if (__tmp > 65535)
    4b56:	fe 01       	movw	r30, r28
    4b58:	e7 5b       	subi	r30, 0xB7	; 183
    4b5a:	fe 4f       	sbci	r31, 0xFE	; 254
    4b5c:	60 81       	ld	r22, Z
    4b5e:	71 81       	ldd	r23, Z+1	; 0x01
    4b60:	82 81       	ldd	r24, Z+2	; 0x02
    4b62:	93 81       	ldd	r25, Z+3	; 0x03
    4b64:	20 e0       	ldi	r18, 0x00	; 0
    4b66:	3f ef       	ldi	r19, 0xFF	; 255
    4b68:	4f e7       	ldi	r20, 0x7F	; 127
    4b6a:	57 e4       	ldi	r21, 0x47	; 71
    4b6c:	0e 94 c5 03 	call	0x78a	; 0x78a <__gtsf2>
    4b70:	18 16       	cp	r1, r24
    4b72:	0c f0       	brlt	.+2      	; 0x4b76 <APP_LCD_story+0xff0>
    4b74:	43 c0       	rjmp	.+134    	; 0x4bfc <APP_LCD_story+0x1076>
	{
		//	__ticks = requested delay in 1/10 ms
		__ticks = (uint16_t) (__ms * 10.0);
    4b76:	fe 01       	movw	r30, r28
    4b78:	e3 5b       	subi	r30, 0xB3	; 179
    4b7a:	fe 4f       	sbci	r31, 0xFE	; 254
    4b7c:	60 81       	ld	r22, Z
    4b7e:	71 81       	ldd	r23, Z+1	; 0x01
    4b80:	82 81       	ldd	r24, Z+2	; 0x02
    4b82:	93 81       	ldd	r25, Z+3	; 0x03
    4b84:	20 e0       	ldi	r18, 0x00	; 0
    4b86:	30 e0       	ldi	r19, 0x00	; 0
    4b88:	40 e2       	ldi	r20, 0x20	; 32
    4b8a:	51 e4       	ldi	r21, 0x41	; 65
    4b8c:	0e 94 1f 02 	call	0x43e	; 0x43e <__mulsf3>
    4b90:	dc 01       	movw	r26, r24
    4b92:	cb 01       	movw	r24, r22
    4b94:	8e 01       	movw	r16, r28
    4b96:	09 5b       	subi	r16, 0xB9	; 185
    4b98:	1e 4f       	sbci	r17, 0xFE	; 254
    4b9a:	bc 01       	movw	r22, r24
    4b9c:	cd 01       	movw	r24, r26
    4b9e:	0e 94 49 00 	call	0x92	; 0x92 <__fixunssfsi>
    4ba2:	dc 01       	movw	r26, r24
    4ba4:	cb 01       	movw	r24, r22
    4ba6:	f8 01       	movw	r30, r16
    4ba8:	91 83       	std	Z+1, r25	; 0x01
    4baa:	80 83       	st	Z, r24
    4bac:	1f c0       	rjmp	.+62     	; 0x4bec <APP_LCD_story+0x1066>
    4bae:	fe 01       	movw	r30, r28
    4bb0:	eb 5b       	subi	r30, 0xBB	; 187
    4bb2:	fe 4f       	sbci	r31, 0xFE	; 254
    4bb4:	88 ec       	ldi	r24, 0xC8	; 200
    4bb6:	90 e0       	ldi	r25, 0x00	; 0
    4bb8:	91 83       	std	Z+1, r25	; 0x01
    4bba:	80 83       	st	Z, r24
    4bbc:	fe 01       	movw	r30, r28
    4bbe:	eb 5b       	subi	r30, 0xBB	; 187
    4bc0:	fe 4f       	sbci	r31, 0xFE	; 254
    4bc2:	80 81       	ld	r24, Z
    4bc4:	91 81       	ldd	r25, Z+1	; 0x01
    4bc6:	01 97       	sbiw	r24, 0x01	; 1
    4bc8:	f1 f7       	brne	.-4      	; 0x4bc6 <APP_LCD_story+0x1040>
    4bca:	fe 01       	movw	r30, r28
    4bcc:	eb 5b       	subi	r30, 0xBB	; 187
    4bce:	fe 4f       	sbci	r31, 0xFE	; 254
    4bd0:	91 83       	std	Z+1, r25	; 0x01
    4bd2:	80 83       	st	Z, r24
		while(__ticks)
		{
			// wait 1/10 ms
			_delay_loop_2(((F_CPU) / 4e3) / 10);
			__ticks --;
    4bd4:	de 01       	movw	r26, r28
    4bd6:	a9 5b       	subi	r26, 0xB9	; 185
    4bd8:	be 4f       	sbci	r27, 0xFE	; 254
    4bda:	fe 01       	movw	r30, r28
    4bdc:	e9 5b       	subi	r30, 0xB9	; 185
    4bde:	fe 4f       	sbci	r31, 0xFE	; 254
    4be0:	80 81       	ld	r24, Z
    4be2:	91 81       	ldd	r25, Z+1	; 0x01
    4be4:	01 97       	sbiw	r24, 0x01	; 1
    4be6:	11 96       	adiw	r26, 0x01	; 1
    4be8:	9c 93       	st	X, r25
    4bea:	8e 93       	st	-X, r24
		__ticks = 1;
	else if (__tmp > 65535)
	{
		//	__ticks = requested delay in 1/10 ms
		__ticks = (uint16_t) (__ms * 10.0);
		while(__ticks)
    4bec:	fe 01       	movw	r30, r28
    4bee:	e9 5b       	subi	r30, 0xB9	; 185
    4bf0:	fe 4f       	sbci	r31, 0xFE	; 254
    4bf2:	80 81       	ld	r24, Z
    4bf4:	91 81       	ldd	r25, Z+1	; 0x01
    4bf6:	00 97       	sbiw	r24, 0x00	; 0
    4bf8:	d1 f6       	brne	.-76     	; 0x4bae <APP_LCD_story+0x1028>
    4bfa:	27 c0       	rjmp	.+78     	; 0x4c4a <APP_LCD_story+0x10c4>
			__ticks --;
		}
		return;
	}
	else
		__ticks = (uint16_t)__tmp;
    4bfc:	8e 01       	movw	r16, r28
    4bfe:	09 5b       	subi	r16, 0xB9	; 185
    4c00:	1e 4f       	sbci	r17, 0xFE	; 254
    4c02:	fe 01       	movw	r30, r28
    4c04:	e7 5b       	subi	r30, 0xB7	; 183
    4c06:	fe 4f       	sbci	r31, 0xFE	; 254
    4c08:	60 81       	ld	r22, Z
    4c0a:	71 81       	ldd	r23, Z+1	; 0x01
    4c0c:	82 81       	ldd	r24, Z+2	; 0x02
    4c0e:	93 81       	ldd	r25, Z+3	; 0x03
    4c10:	0e 94 49 00 	call	0x92	; 0x92 <__fixunssfsi>
    4c14:	dc 01       	movw	r26, r24
    4c16:	cb 01       	movw	r24, r22
    4c18:	f8 01       	movw	r30, r16
    4c1a:	91 83       	std	Z+1, r25	; 0x01
    4c1c:	80 83       	st	Z, r24
    4c1e:	de 01       	movw	r26, r28
    4c20:	ad 5b       	subi	r26, 0xBD	; 189
    4c22:	be 4f       	sbci	r27, 0xFE	; 254
    4c24:	fe 01       	movw	r30, r28
    4c26:	e9 5b       	subi	r30, 0xB9	; 185
    4c28:	fe 4f       	sbci	r31, 0xFE	; 254
    4c2a:	80 81       	ld	r24, Z
    4c2c:	91 81       	ldd	r25, Z+1	; 0x01
    4c2e:	8d 93       	st	X+, r24
    4c30:	9c 93       	st	X, r25
    4c32:	fe 01       	movw	r30, r28
    4c34:	ed 5b       	subi	r30, 0xBD	; 189
    4c36:	fe 4f       	sbci	r31, 0xFE	; 254
    4c38:	80 81       	ld	r24, Z
    4c3a:	91 81       	ldd	r25, Z+1	; 0x01
    4c3c:	01 97       	sbiw	r24, 0x01	; 1
    4c3e:	f1 f7       	brne	.-4      	; 0x4c3c <APP_LCD_story+0x10b6>
    4c40:	fe 01       	movw	r30, r28
    4c42:	ed 5b       	subi	r30, 0xBD	; 189
    4c44:	fe 4f       	sbci	r31, 0xFE	; 254
    4c46:	91 83       	std	Z+1, r25	; 0x01
    4c48:	80 83       	st	Z, r24
		_delay_ms(2000);

		APP_LCD_ClearLine1();
    4c4a:	0e 94 a7 36 	call	0x6d4e	; 0x6d4e <APP_LCD_ClearLine1>
		LCD_void_SendString((u8*)"my diaries ");
    4c4e:	8d ee       	ldi	r24, 0xED	; 237
    4c50:	90 e0       	ldi	r25, 0x00	; 0
    4c52:	0e 94 88 19 	call	0x3310	; 0x3310 <LCD_void_SendString>
    4c56:	fe 01       	movw	r30, r28
    4c58:	e1 5c       	subi	r30, 0xC1	; 193
    4c5a:	fe 4f       	sbci	r31, 0xFE	; 254
    4c5c:	80 e0       	ldi	r24, 0x00	; 0
    4c5e:	90 e0       	ldi	r25, 0x00	; 0
    4c60:	aa ef       	ldi	r26, 0xFA	; 250
    4c62:	b4 e4       	ldi	r27, 0x44	; 68
    4c64:	80 83       	st	Z, r24
    4c66:	91 83       	std	Z+1, r25	; 0x01
    4c68:	a2 83       	std	Z+2, r26	; 0x02
    4c6a:	b3 83       	std	Z+3, r27	; 0x03
 */
void
_delay_ms(double __ms)
{
	uint16_t __ticks;
	double __tmp = ((F_CPU) / 4e3) * __ms;
    4c6c:	8e 01       	movw	r16, r28
    4c6e:	05 5c       	subi	r16, 0xC5	; 197
    4c70:	1e 4f       	sbci	r17, 0xFE	; 254
    4c72:	fe 01       	movw	r30, r28
    4c74:	e1 5c       	subi	r30, 0xC1	; 193
    4c76:	fe 4f       	sbci	r31, 0xFE	; 254
    4c78:	60 81       	ld	r22, Z
    4c7a:	71 81       	ldd	r23, Z+1	; 0x01
    4c7c:	82 81       	ldd	r24, Z+2	; 0x02
    4c7e:	93 81       	ldd	r25, Z+3	; 0x03
    4c80:	20 e0       	ldi	r18, 0x00	; 0
    4c82:	30 e0       	ldi	r19, 0x00	; 0
    4c84:	4a ef       	ldi	r20, 0xFA	; 250
    4c86:	54 e4       	ldi	r21, 0x44	; 68
    4c88:	0e 94 1f 02 	call	0x43e	; 0x43e <__mulsf3>
    4c8c:	dc 01       	movw	r26, r24
    4c8e:	cb 01       	movw	r24, r22
    4c90:	f8 01       	movw	r30, r16
    4c92:	80 83       	st	Z, r24
    4c94:	91 83       	std	Z+1, r25	; 0x01
    4c96:	a2 83       	std	Z+2, r26	; 0x02
    4c98:	b3 83       	std	Z+3, r27	; 0x03
	if (__tmp < 1.0)
    4c9a:	fe 01       	movw	r30, r28
    4c9c:	e5 5c       	subi	r30, 0xC5	; 197
    4c9e:	fe 4f       	sbci	r31, 0xFE	; 254
    4ca0:	60 81       	ld	r22, Z
    4ca2:	71 81       	ldd	r23, Z+1	; 0x01
    4ca4:	82 81       	ldd	r24, Z+2	; 0x02
    4ca6:	93 81       	ldd	r25, Z+3	; 0x03
    4ca8:	20 e0       	ldi	r18, 0x00	; 0
    4caa:	30 e0       	ldi	r19, 0x00	; 0
    4cac:	40 e8       	ldi	r20, 0x80	; 128
    4cae:	5f e3       	ldi	r21, 0x3F	; 63
    4cb0:	0e 94 25 04 	call	0x84a	; 0x84a <__ltsf2>
    4cb4:	88 23       	and	r24, r24
    4cb6:	44 f4       	brge	.+16     	; 0x4cc8 <APP_LCD_story+0x1142>
		__ticks = 1;
    4cb8:	fe 01       	movw	r30, r28
    4cba:	e7 5c       	subi	r30, 0xC7	; 199
    4cbc:	fe 4f       	sbci	r31, 0xFE	; 254
    4cbe:	81 e0       	ldi	r24, 0x01	; 1
    4cc0:	90 e0       	ldi	r25, 0x00	; 0
    4cc2:	91 83       	std	Z+1, r25	; 0x01
    4cc4:	80 83       	st	Z, r24
    4cc6:	64 c0       	rjmp	.+200    	; 0x4d90 <APP_LCD_story+0x120a>
	else if (__tmp > 65535)
    4cc8:	fe 01       	movw	r30, r28
    4cca:	e5 5c       	subi	r30, 0xC5	; 197
    4ccc:	fe 4f       	sbci	r31, 0xFE	; 254
    4cce:	60 81       	ld	r22, Z
    4cd0:	71 81       	ldd	r23, Z+1	; 0x01
    4cd2:	82 81       	ldd	r24, Z+2	; 0x02
    4cd4:	93 81       	ldd	r25, Z+3	; 0x03
    4cd6:	20 e0       	ldi	r18, 0x00	; 0
    4cd8:	3f ef       	ldi	r19, 0xFF	; 255
    4cda:	4f e7       	ldi	r20, 0x7F	; 127
    4cdc:	57 e4       	ldi	r21, 0x47	; 71
    4cde:	0e 94 c5 03 	call	0x78a	; 0x78a <__gtsf2>
    4ce2:	18 16       	cp	r1, r24
    4ce4:	0c f0       	brlt	.+2      	; 0x4ce8 <APP_LCD_story+0x1162>
    4ce6:	43 c0       	rjmp	.+134    	; 0x4d6e <APP_LCD_story+0x11e8>
	{
		//	__ticks = requested delay in 1/10 ms
		__ticks = (uint16_t) (__ms * 10.0);
    4ce8:	fe 01       	movw	r30, r28
    4cea:	e1 5c       	subi	r30, 0xC1	; 193
    4cec:	fe 4f       	sbci	r31, 0xFE	; 254
    4cee:	60 81       	ld	r22, Z
    4cf0:	71 81       	ldd	r23, Z+1	; 0x01
    4cf2:	82 81       	ldd	r24, Z+2	; 0x02
    4cf4:	93 81       	ldd	r25, Z+3	; 0x03
    4cf6:	20 e0       	ldi	r18, 0x00	; 0
    4cf8:	30 e0       	ldi	r19, 0x00	; 0
    4cfa:	40 e2       	ldi	r20, 0x20	; 32
    4cfc:	51 e4       	ldi	r21, 0x41	; 65
    4cfe:	0e 94 1f 02 	call	0x43e	; 0x43e <__mulsf3>
    4d02:	dc 01       	movw	r26, r24
    4d04:	cb 01       	movw	r24, r22
    4d06:	8e 01       	movw	r16, r28
    4d08:	07 5c       	subi	r16, 0xC7	; 199
    4d0a:	1e 4f       	sbci	r17, 0xFE	; 254
    4d0c:	bc 01       	movw	r22, r24
    4d0e:	cd 01       	movw	r24, r26
    4d10:	0e 94 49 00 	call	0x92	; 0x92 <__fixunssfsi>
    4d14:	dc 01       	movw	r26, r24
    4d16:	cb 01       	movw	r24, r22
    4d18:	f8 01       	movw	r30, r16
    4d1a:	91 83       	std	Z+1, r25	; 0x01
    4d1c:	80 83       	st	Z, r24
    4d1e:	1f c0       	rjmp	.+62     	; 0x4d5e <APP_LCD_story+0x11d8>
    4d20:	fe 01       	movw	r30, r28
    4d22:	e9 5c       	subi	r30, 0xC9	; 201
    4d24:	fe 4f       	sbci	r31, 0xFE	; 254
    4d26:	88 ec       	ldi	r24, 0xC8	; 200
    4d28:	90 e0       	ldi	r25, 0x00	; 0
    4d2a:	91 83       	std	Z+1, r25	; 0x01
    4d2c:	80 83       	st	Z, r24
    4d2e:	fe 01       	movw	r30, r28
    4d30:	e9 5c       	subi	r30, 0xC9	; 201
    4d32:	fe 4f       	sbci	r31, 0xFE	; 254
    4d34:	80 81       	ld	r24, Z
    4d36:	91 81       	ldd	r25, Z+1	; 0x01
    4d38:	01 97       	sbiw	r24, 0x01	; 1
    4d3a:	f1 f7       	brne	.-4      	; 0x4d38 <APP_LCD_story+0x11b2>
    4d3c:	fe 01       	movw	r30, r28
    4d3e:	e9 5c       	subi	r30, 0xC9	; 201
    4d40:	fe 4f       	sbci	r31, 0xFE	; 254
    4d42:	91 83       	std	Z+1, r25	; 0x01
    4d44:	80 83       	st	Z, r24
		while(__ticks)
		{
			// wait 1/10 ms
			_delay_loop_2(((F_CPU) / 4e3) / 10);
			__ticks --;
    4d46:	de 01       	movw	r26, r28
    4d48:	a7 5c       	subi	r26, 0xC7	; 199
    4d4a:	be 4f       	sbci	r27, 0xFE	; 254
    4d4c:	fe 01       	movw	r30, r28
    4d4e:	e7 5c       	subi	r30, 0xC7	; 199
    4d50:	fe 4f       	sbci	r31, 0xFE	; 254
    4d52:	80 81       	ld	r24, Z
    4d54:	91 81       	ldd	r25, Z+1	; 0x01
    4d56:	01 97       	sbiw	r24, 0x01	; 1
    4d58:	11 96       	adiw	r26, 0x01	; 1
    4d5a:	9c 93       	st	X, r25
    4d5c:	8e 93       	st	-X, r24
		__ticks = 1;
	else if (__tmp > 65535)
	{
		//	__ticks = requested delay in 1/10 ms
		__ticks = (uint16_t) (__ms * 10.0);
		while(__ticks)
    4d5e:	fe 01       	movw	r30, r28
    4d60:	e7 5c       	subi	r30, 0xC7	; 199
    4d62:	fe 4f       	sbci	r31, 0xFE	; 254
    4d64:	80 81       	ld	r24, Z
    4d66:	91 81       	ldd	r25, Z+1	; 0x01
    4d68:	00 97       	sbiw	r24, 0x00	; 0
    4d6a:	d1 f6       	brne	.-76     	; 0x4d20 <APP_LCD_story+0x119a>
    4d6c:	27 c0       	rjmp	.+78     	; 0x4dbc <APP_LCD_story+0x1236>
			__ticks --;
		}
		return;
	}
	else
		__ticks = (uint16_t)__tmp;
    4d6e:	8e 01       	movw	r16, r28
    4d70:	07 5c       	subi	r16, 0xC7	; 199
    4d72:	1e 4f       	sbci	r17, 0xFE	; 254
    4d74:	fe 01       	movw	r30, r28
    4d76:	e5 5c       	subi	r30, 0xC5	; 197
    4d78:	fe 4f       	sbci	r31, 0xFE	; 254
    4d7a:	60 81       	ld	r22, Z
    4d7c:	71 81       	ldd	r23, Z+1	; 0x01
    4d7e:	82 81       	ldd	r24, Z+2	; 0x02
    4d80:	93 81       	ldd	r25, Z+3	; 0x03
    4d82:	0e 94 49 00 	call	0x92	; 0x92 <__fixunssfsi>
    4d86:	dc 01       	movw	r26, r24
    4d88:	cb 01       	movw	r24, r22
    4d8a:	f8 01       	movw	r30, r16
    4d8c:	91 83       	std	Z+1, r25	; 0x01
    4d8e:	80 83       	st	Z, r24
    4d90:	de 01       	movw	r26, r28
    4d92:	ab 5c       	subi	r26, 0xCB	; 203
    4d94:	be 4f       	sbci	r27, 0xFE	; 254
    4d96:	fe 01       	movw	r30, r28
    4d98:	e7 5c       	subi	r30, 0xC7	; 199
    4d9a:	fe 4f       	sbci	r31, 0xFE	; 254
    4d9c:	80 81       	ld	r24, Z
    4d9e:	91 81       	ldd	r25, Z+1	; 0x01
    4da0:	8d 93       	st	X+, r24
    4da2:	9c 93       	st	X, r25
    4da4:	fe 01       	movw	r30, r28
    4da6:	eb 5c       	subi	r30, 0xCB	; 203
    4da8:	fe 4f       	sbci	r31, 0xFE	; 254
    4daa:	80 81       	ld	r24, Z
    4dac:	91 81       	ldd	r25, Z+1	; 0x01
    4dae:	01 97       	sbiw	r24, 0x01	; 1
    4db0:	f1 f7       	brne	.-4      	; 0x4dae <APP_LCD_story+0x1228>
    4db2:	fe 01       	movw	r30, r28
    4db4:	eb 5c       	subi	r30, 0xCB	; 203
    4db6:	fe 4f       	sbci	r31, 0xFE	; 254
    4db8:	91 83       	std	Z+1, r25	; 0x01
    4dba:	80 83       	st	Z, r24
		_delay_ms(2000);

		APP_LCD_ClearLine1();
    4dbc:	0e 94 a7 36 	call	0x6d4e	; 0x6d4e <APP_LCD_ClearLine1>
		LCD_void_SendString((u8*)"i keep the key");
    4dc0:	89 ef       	ldi	r24, 0xF9	; 249
    4dc2:	90 e0       	ldi	r25, 0x00	; 0
    4dc4:	0e 94 88 19 	call	0x3310	; 0x3310 <LCD_void_SendString>
    4dc8:	fe 01       	movw	r30, r28
    4dca:	ef 5c       	subi	r30, 0xCF	; 207
    4dcc:	fe 4f       	sbci	r31, 0xFE	; 254
    4dce:	80 e0       	ldi	r24, 0x00	; 0
    4dd0:	90 e0       	ldi	r25, 0x00	; 0
    4dd2:	aa ef       	ldi	r26, 0xFA	; 250
    4dd4:	b4 e4       	ldi	r27, 0x44	; 68
    4dd6:	80 83       	st	Z, r24
    4dd8:	91 83       	std	Z+1, r25	; 0x01
    4dda:	a2 83       	std	Z+2, r26	; 0x02
    4ddc:	b3 83       	std	Z+3, r27	; 0x03
 */
void
_delay_ms(double __ms)
{
	uint16_t __ticks;
	double __tmp = ((F_CPU) / 4e3) * __ms;
    4dde:	8e 01       	movw	r16, r28
    4de0:	03 5d       	subi	r16, 0xD3	; 211
    4de2:	1e 4f       	sbci	r17, 0xFE	; 254
    4de4:	fe 01       	movw	r30, r28
    4de6:	ef 5c       	subi	r30, 0xCF	; 207
    4de8:	fe 4f       	sbci	r31, 0xFE	; 254
    4dea:	60 81       	ld	r22, Z
    4dec:	71 81       	ldd	r23, Z+1	; 0x01
    4dee:	82 81       	ldd	r24, Z+2	; 0x02
    4df0:	93 81       	ldd	r25, Z+3	; 0x03
    4df2:	20 e0       	ldi	r18, 0x00	; 0
    4df4:	30 e0       	ldi	r19, 0x00	; 0
    4df6:	4a ef       	ldi	r20, 0xFA	; 250
    4df8:	54 e4       	ldi	r21, 0x44	; 68
    4dfa:	0e 94 1f 02 	call	0x43e	; 0x43e <__mulsf3>
    4dfe:	dc 01       	movw	r26, r24
    4e00:	cb 01       	movw	r24, r22
    4e02:	f8 01       	movw	r30, r16
    4e04:	80 83       	st	Z, r24
    4e06:	91 83       	std	Z+1, r25	; 0x01
    4e08:	a2 83       	std	Z+2, r26	; 0x02
    4e0a:	b3 83       	std	Z+3, r27	; 0x03
	if (__tmp < 1.0)
    4e0c:	fe 01       	movw	r30, r28
    4e0e:	e3 5d       	subi	r30, 0xD3	; 211
    4e10:	fe 4f       	sbci	r31, 0xFE	; 254
    4e12:	60 81       	ld	r22, Z
    4e14:	71 81       	ldd	r23, Z+1	; 0x01
    4e16:	82 81       	ldd	r24, Z+2	; 0x02
    4e18:	93 81       	ldd	r25, Z+3	; 0x03
    4e1a:	20 e0       	ldi	r18, 0x00	; 0
    4e1c:	30 e0       	ldi	r19, 0x00	; 0
    4e1e:	40 e8       	ldi	r20, 0x80	; 128
    4e20:	5f e3       	ldi	r21, 0x3F	; 63
    4e22:	0e 94 25 04 	call	0x84a	; 0x84a <__ltsf2>
    4e26:	88 23       	and	r24, r24
    4e28:	44 f4       	brge	.+16     	; 0x4e3a <APP_LCD_story+0x12b4>
		__ticks = 1;
    4e2a:	fe 01       	movw	r30, r28
    4e2c:	e5 5d       	subi	r30, 0xD5	; 213
    4e2e:	fe 4f       	sbci	r31, 0xFE	; 254
    4e30:	81 e0       	ldi	r24, 0x01	; 1
    4e32:	90 e0       	ldi	r25, 0x00	; 0
    4e34:	91 83       	std	Z+1, r25	; 0x01
    4e36:	80 83       	st	Z, r24
    4e38:	64 c0       	rjmp	.+200    	; 0x4f02 <APP_LCD_story+0x137c>
	else if (__tmp > 65535)
    4e3a:	fe 01       	movw	r30, r28
    4e3c:	e3 5d       	subi	r30, 0xD3	; 211
    4e3e:	fe 4f       	sbci	r31, 0xFE	; 254
    4e40:	60 81       	ld	r22, Z
    4e42:	71 81       	ldd	r23, Z+1	; 0x01
    4e44:	82 81       	ldd	r24, Z+2	; 0x02
    4e46:	93 81       	ldd	r25, Z+3	; 0x03
    4e48:	20 e0       	ldi	r18, 0x00	; 0
    4e4a:	3f ef       	ldi	r19, 0xFF	; 255
    4e4c:	4f e7       	ldi	r20, 0x7F	; 127
    4e4e:	57 e4       	ldi	r21, 0x47	; 71
    4e50:	0e 94 c5 03 	call	0x78a	; 0x78a <__gtsf2>
    4e54:	18 16       	cp	r1, r24
    4e56:	0c f0       	brlt	.+2      	; 0x4e5a <APP_LCD_story+0x12d4>
    4e58:	43 c0       	rjmp	.+134    	; 0x4ee0 <APP_LCD_story+0x135a>
	{
		//	__ticks = requested delay in 1/10 ms
		__ticks = (uint16_t) (__ms * 10.0);
    4e5a:	fe 01       	movw	r30, r28
    4e5c:	ef 5c       	subi	r30, 0xCF	; 207
    4e5e:	fe 4f       	sbci	r31, 0xFE	; 254
    4e60:	60 81       	ld	r22, Z
    4e62:	71 81       	ldd	r23, Z+1	; 0x01
    4e64:	82 81       	ldd	r24, Z+2	; 0x02
    4e66:	93 81       	ldd	r25, Z+3	; 0x03
    4e68:	20 e0       	ldi	r18, 0x00	; 0
    4e6a:	30 e0       	ldi	r19, 0x00	; 0
    4e6c:	40 e2       	ldi	r20, 0x20	; 32
    4e6e:	51 e4       	ldi	r21, 0x41	; 65
    4e70:	0e 94 1f 02 	call	0x43e	; 0x43e <__mulsf3>
    4e74:	dc 01       	movw	r26, r24
    4e76:	cb 01       	movw	r24, r22
    4e78:	8e 01       	movw	r16, r28
    4e7a:	05 5d       	subi	r16, 0xD5	; 213
    4e7c:	1e 4f       	sbci	r17, 0xFE	; 254
    4e7e:	bc 01       	movw	r22, r24
    4e80:	cd 01       	movw	r24, r26
    4e82:	0e 94 49 00 	call	0x92	; 0x92 <__fixunssfsi>
    4e86:	dc 01       	movw	r26, r24
    4e88:	cb 01       	movw	r24, r22
    4e8a:	f8 01       	movw	r30, r16
    4e8c:	91 83       	std	Z+1, r25	; 0x01
    4e8e:	80 83       	st	Z, r24
    4e90:	1f c0       	rjmp	.+62     	; 0x4ed0 <APP_LCD_story+0x134a>
    4e92:	fe 01       	movw	r30, r28
    4e94:	e7 5d       	subi	r30, 0xD7	; 215
    4e96:	fe 4f       	sbci	r31, 0xFE	; 254
    4e98:	88 ec       	ldi	r24, 0xC8	; 200
    4e9a:	90 e0       	ldi	r25, 0x00	; 0
    4e9c:	91 83       	std	Z+1, r25	; 0x01
    4e9e:	80 83       	st	Z, r24
    4ea0:	fe 01       	movw	r30, r28
    4ea2:	e7 5d       	subi	r30, 0xD7	; 215
    4ea4:	fe 4f       	sbci	r31, 0xFE	; 254
    4ea6:	80 81       	ld	r24, Z
    4ea8:	91 81       	ldd	r25, Z+1	; 0x01
    4eaa:	01 97       	sbiw	r24, 0x01	; 1
    4eac:	f1 f7       	brne	.-4      	; 0x4eaa <APP_LCD_story+0x1324>
    4eae:	fe 01       	movw	r30, r28
    4eb0:	e7 5d       	subi	r30, 0xD7	; 215
    4eb2:	fe 4f       	sbci	r31, 0xFE	; 254
    4eb4:	91 83       	std	Z+1, r25	; 0x01
    4eb6:	80 83       	st	Z, r24
		while(__ticks)
		{
			// wait 1/10 ms
			_delay_loop_2(((F_CPU) / 4e3) / 10);
			__ticks --;
    4eb8:	de 01       	movw	r26, r28
    4eba:	a5 5d       	subi	r26, 0xD5	; 213
    4ebc:	be 4f       	sbci	r27, 0xFE	; 254
    4ebe:	fe 01       	movw	r30, r28
    4ec0:	e5 5d       	subi	r30, 0xD5	; 213
    4ec2:	fe 4f       	sbci	r31, 0xFE	; 254
    4ec4:	80 81       	ld	r24, Z
    4ec6:	91 81       	ldd	r25, Z+1	; 0x01
    4ec8:	01 97       	sbiw	r24, 0x01	; 1
    4eca:	11 96       	adiw	r26, 0x01	; 1
    4ecc:	9c 93       	st	X, r25
    4ece:	8e 93       	st	-X, r24
		__ticks = 1;
	else if (__tmp > 65535)
	{
		//	__ticks = requested delay in 1/10 ms
		__ticks = (uint16_t) (__ms * 10.0);
		while(__ticks)
    4ed0:	fe 01       	movw	r30, r28
    4ed2:	e5 5d       	subi	r30, 0xD5	; 213
    4ed4:	fe 4f       	sbci	r31, 0xFE	; 254
    4ed6:	80 81       	ld	r24, Z
    4ed8:	91 81       	ldd	r25, Z+1	; 0x01
    4eda:	00 97       	sbiw	r24, 0x00	; 0
    4edc:	d1 f6       	brne	.-76     	; 0x4e92 <APP_LCD_story+0x130c>
    4ede:	27 c0       	rjmp	.+78     	; 0x4f2e <APP_LCD_story+0x13a8>
			__ticks --;
		}
		return;
	}
	else
		__ticks = (uint16_t)__tmp;
    4ee0:	8e 01       	movw	r16, r28
    4ee2:	05 5d       	subi	r16, 0xD5	; 213
    4ee4:	1e 4f       	sbci	r17, 0xFE	; 254
    4ee6:	fe 01       	movw	r30, r28
    4ee8:	e3 5d       	subi	r30, 0xD3	; 211
    4eea:	fe 4f       	sbci	r31, 0xFE	; 254
    4eec:	60 81       	ld	r22, Z
    4eee:	71 81       	ldd	r23, Z+1	; 0x01
    4ef0:	82 81       	ldd	r24, Z+2	; 0x02
    4ef2:	93 81       	ldd	r25, Z+3	; 0x03
    4ef4:	0e 94 49 00 	call	0x92	; 0x92 <__fixunssfsi>
    4ef8:	dc 01       	movw	r26, r24
    4efa:	cb 01       	movw	r24, r22
    4efc:	f8 01       	movw	r30, r16
    4efe:	91 83       	std	Z+1, r25	; 0x01
    4f00:	80 83       	st	Z, r24
    4f02:	de 01       	movw	r26, r28
    4f04:	a9 5d       	subi	r26, 0xD9	; 217
    4f06:	be 4f       	sbci	r27, 0xFE	; 254
    4f08:	fe 01       	movw	r30, r28
    4f0a:	e5 5d       	subi	r30, 0xD5	; 213
    4f0c:	fe 4f       	sbci	r31, 0xFE	; 254
    4f0e:	80 81       	ld	r24, Z
    4f10:	91 81       	ldd	r25, Z+1	; 0x01
    4f12:	8d 93       	st	X+, r24
    4f14:	9c 93       	st	X, r25
    4f16:	fe 01       	movw	r30, r28
    4f18:	e9 5d       	subi	r30, 0xD9	; 217
    4f1a:	fe 4f       	sbci	r31, 0xFE	; 254
    4f1c:	80 81       	ld	r24, Z
    4f1e:	91 81       	ldd	r25, Z+1	; 0x01
    4f20:	01 97       	sbiw	r24, 0x01	; 1
    4f22:	f1 f7       	brne	.-4      	; 0x4f20 <APP_LCD_story+0x139a>
    4f24:	fe 01       	movw	r30, r28
    4f26:	e9 5d       	subi	r30, 0xD9	; 217
    4f28:	fe 4f       	sbci	r31, 0xFE	; 254
    4f2a:	91 83       	std	Z+1, r25	; 0x01
    4f2c:	80 83       	st	Z, r24
		_delay_ms(2000);

		APP_LCD_ClearLine1();
    4f2e:	0e 94 a7 36 	call	0x6d4e	; 0x6d4e <APP_LCD_ClearLine1>
		LCD_void_SendString((u8*)"in a secret");
    4f32:	88 e0       	ldi	r24, 0x08	; 8
    4f34:	91 e0       	ldi	r25, 0x01	; 1
    4f36:	0e 94 88 19 	call	0x3310	; 0x3310 <LCD_void_SendString>
    4f3a:	fe 01       	movw	r30, r28
    4f3c:	ed 5d       	subi	r30, 0xDD	; 221
    4f3e:	fe 4f       	sbci	r31, 0xFE	; 254
    4f40:	80 e0       	ldi	r24, 0x00	; 0
    4f42:	90 e0       	ldi	r25, 0x00	; 0
    4f44:	aa ef       	ldi	r26, 0xFA	; 250
    4f46:	b4 e4       	ldi	r27, 0x44	; 68
    4f48:	80 83       	st	Z, r24
    4f4a:	91 83       	std	Z+1, r25	; 0x01
    4f4c:	a2 83       	std	Z+2, r26	; 0x02
    4f4e:	b3 83       	std	Z+3, r27	; 0x03
 */
void
_delay_ms(double __ms)
{
	uint16_t __ticks;
	double __tmp = ((F_CPU) / 4e3) * __ms;
    4f50:	8e 01       	movw	r16, r28
    4f52:	01 5e       	subi	r16, 0xE1	; 225
    4f54:	1e 4f       	sbci	r17, 0xFE	; 254
    4f56:	fe 01       	movw	r30, r28
    4f58:	ed 5d       	subi	r30, 0xDD	; 221
    4f5a:	fe 4f       	sbci	r31, 0xFE	; 254
    4f5c:	60 81       	ld	r22, Z
    4f5e:	71 81       	ldd	r23, Z+1	; 0x01
    4f60:	82 81       	ldd	r24, Z+2	; 0x02
    4f62:	93 81       	ldd	r25, Z+3	; 0x03
    4f64:	20 e0       	ldi	r18, 0x00	; 0
    4f66:	30 e0       	ldi	r19, 0x00	; 0
    4f68:	4a ef       	ldi	r20, 0xFA	; 250
    4f6a:	54 e4       	ldi	r21, 0x44	; 68
    4f6c:	0e 94 1f 02 	call	0x43e	; 0x43e <__mulsf3>
    4f70:	dc 01       	movw	r26, r24
    4f72:	cb 01       	movw	r24, r22
    4f74:	f8 01       	movw	r30, r16
    4f76:	80 83       	st	Z, r24
    4f78:	91 83       	std	Z+1, r25	; 0x01
    4f7a:	a2 83       	std	Z+2, r26	; 0x02
    4f7c:	b3 83       	std	Z+3, r27	; 0x03
	if (__tmp < 1.0)
    4f7e:	fe 01       	movw	r30, r28
    4f80:	e1 5e       	subi	r30, 0xE1	; 225
    4f82:	fe 4f       	sbci	r31, 0xFE	; 254
    4f84:	60 81       	ld	r22, Z
    4f86:	71 81       	ldd	r23, Z+1	; 0x01
    4f88:	82 81       	ldd	r24, Z+2	; 0x02
    4f8a:	93 81       	ldd	r25, Z+3	; 0x03
    4f8c:	20 e0       	ldi	r18, 0x00	; 0
    4f8e:	30 e0       	ldi	r19, 0x00	; 0
    4f90:	40 e8       	ldi	r20, 0x80	; 128
    4f92:	5f e3       	ldi	r21, 0x3F	; 63
    4f94:	0e 94 25 04 	call	0x84a	; 0x84a <__ltsf2>
    4f98:	88 23       	and	r24, r24
    4f9a:	44 f4       	brge	.+16     	; 0x4fac <APP_LCD_story+0x1426>
		__ticks = 1;
    4f9c:	fe 01       	movw	r30, r28
    4f9e:	e3 5e       	subi	r30, 0xE3	; 227
    4fa0:	fe 4f       	sbci	r31, 0xFE	; 254
    4fa2:	81 e0       	ldi	r24, 0x01	; 1
    4fa4:	90 e0       	ldi	r25, 0x00	; 0
    4fa6:	91 83       	std	Z+1, r25	; 0x01
    4fa8:	80 83       	st	Z, r24
    4faa:	64 c0       	rjmp	.+200    	; 0x5074 <APP_LCD_story+0x14ee>
	else if (__tmp > 65535)
    4fac:	fe 01       	movw	r30, r28
    4fae:	e1 5e       	subi	r30, 0xE1	; 225
    4fb0:	fe 4f       	sbci	r31, 0xFE	; 254
    4fb2:	60 81       	ld	r22, Z
    4fb4:	71 81       	ldd	r23, Z+1	; 0x01
    4fb6:	82 81       	ldd	r24, Z+2	; 0x02
    4fb8:	93 81       	ldd	r25, Z+3	; 0x03
    4fba:	20 e0       	ldi	r18, 0x00	; 0
    4fbc:	3f ef       	ldi	r19, 0xFF	; 255
    4fbe:	4f e7       	ldi	r20, 0x7F	; 127
    4fc0:	57 e4       	ldi	r21, 0x47	; 71
    4fc2:	0e 94 c5 03 	call	0x78a	; 0x78a <__gtsf2>
    4fc6:	18 16       	cp	r1, r24
    4fc8:	0c f0       	brlt	.+2      	; 0x4fcc <APP_LCD_story+0x1446>
    4fca:	43 c0       	rjmp	.+134    	; 0x5052 <APP_LCD_story+0x14cc>
	{
		//	__ticks = requested delay in 1/10 ms
		__ticks = (uint16_t) (__ms * 10.0);
    4fcc:	fe 01       	movw	r30, r28
    4fce:	ed 5d       	subi	r30, 0xDD	; 221
    4fd0:	fe 4f       	sbci	r31, 0xFE	; 254
    4fd2:	60 81       	ld	r22, Z
    4fd4:	71 81       	ldd	r23, Z+1	; 0x01
    4fd6:	82 81       	ldd	r24, Z+2	; 0x02
    4fd8:	93 81       	ldd	r25, Z+3	; 0x03
    4fda:	20 e0       	ldi	r18, 0x00	; 0
    4fdc:	30 e0       	ldi	r19, 0x00	; 0
    4fde:	40 e2       	ldi	r20, 0x20	; 32
    4fe0:	51 e4       	ldi	r21, 0x41	; 65
    4fe2:	0e 94 1f 02 	call	0x43e	; 0x43e <__mulsf3>
    4fe6:	dc 01       	movw	r26, r24
    4fe8:	cb 01       	movw	r24, r22
    4fea:	8e 01       	movw	r16, r28
    4fec:	03 5e       	subi	r16, 0xE3	; 227
    4fee:	1e 4f       	sbci	r17, 0xFE	; 254
    4ff0:	bc 01       	movw	r22, r24
    4ff2:	cd 01       	movw	r24, r26
    4ff4:	0e 94 49 00 	call	0x92	; 0x92 <__fixunssfsi>
    4ff8:	dc 01       	movw	r26, r24
    4ffa:	cb 01       	movw	r24, r22
    4ffc:	f8 01       	movw	r30, r16
    4ffe:	91 83       	std	Z+1, r25	; 0x01
    5000:	80 83       	st	Z, r24
    5002:	1f c0       	rjmp	.+62     	; 0x5042 <APP_LCD_story+0x14bc>
    5004:	fe 01       	movw	r30, r28
    5006:	e5 5e       	subi	r30, 0xE5	; 229
    5008:	fe 4f       	sbci	r31, 0xFE	; 254
    500a:	88 ec       	ldi	r24, 0xC8	; 200
    500c:	90 e0       	ldi	r25, 0x00	; 0
    500e:	91 83       	std	Z+1, r25	; 0x01
    5010:	80 83       	st	Z, r24
    5012:	fe 01       	movw	r30, r28
    5014:	e5 5e       	subi	r30, 0xE5	; 229
    5016:	fe 4f       	sbci	r31, 0xFE	; 254
    5018:	80 81       	ld	r24, Z
    501a:	91 81       	ldd	r25, Z+1	; 0x01
    501c:	01 97       	sbiw	r24, 0x01	; 1
    501e:	f1 f7       	brne	.-4      	; 0x501c <APP_LCD_story+0x1496>
    5020:	fe 01       	movw	r30, r28
    5022:	e5 5e       	subi	r30, 0xE5	; 229
    5024:	fe 4f       	sbci	r31, 0xFE	; 254
    5026:	91 83       	std	Z+1, r25	; 0x01
    5028:	80 83       	st	Z, r24
		while(__ticks)
		{
			// wait 1/10 ms
			_delay_loop_2(((F_CPU) / 4e3) / 10);
			__ticks --;
    502a:	de 01       	movw	r26, r28
    502c:	a3 5e       	subi	r26, 0xE3	; 227
    502e:	be 4f       	sbci	r27, 0xFE	; 254
    5030:	fe 01       	movw	r30, r28
    5032:	e3 5e       	subi	r30, 0xE3	; 227
    5034:	fe 4f       	sbci	r31, 0xFE	; 254
    5036:	80 81       	ld	r24, Z
    5038:	91 81       	ldd	r25, Z+1	; 0x01
    503a:	01 97       	sbiw	r24, 0x01	; 1
    503c:	11 96       	adiw	r26, 0x01	; 1
    503e:	9c 93       	st	X, r25
    5040:	8e 93       	st	-X, r24
		__ticks = 1;
	else if (__tmp > 65535)
	{
		//	__ticks = requested delay in 1/10 ms
		__ticks = (uint16_t) (__ms * 10.0);
		while(__ticks)
    5042:	fe 01       	movw	r30, r28
    5044:	e3 5e       	subi	r30, 0xE3	; 227
    5046:	fe 4f       	sbci	r31, 0xFE	; 254
    5048:	80 81       	ld	r24, Z
    504a:	91 81       	ldd	r25, Z+1	; 0x01
    504c:	00 97       	sbiw	r24, 0x00	; 0
    504e:	d1 f6       	brne	.-76     	; 0x5004 <APP_LCD_story+0x147e>
    5050:	27 c0       	rjmp	.+78     	; 0x50a0 <APP_LCD_story+0x151a>
			__ticks --;
		}
		return;
	}
	else
		__ticks = (uint16_t)__tmp;
    5052:	8e 01       	movw	r16, r28
    5054:	03 5e       	subi	r16, 0xE3	; 227
    5056:	1e 4f       	sbci	r17, 0xFE	; 254
    5058:	fe 01       	movw	r30, r28
    505a:	e1 5e       	subi	r30, 0xE1	; 225
    505c:	fe 4f       	sbci	r31, 0xFE	; 254
    505e:	60 81       	ld	r22, Z
    5060:	71 81       	ldd	r23, Z+1	; 0x01
    5062:	82 81       	ldd	r24, Z+2	; 0x02
    5064:	93 81       	ldd	r25, Z+3	; 0x03
    5066:	0e 94 49 00 	call	0x92	; 0x92 <__fixunssfsi>
    506a:	dc 01       	movw	r26, r24
    506c:	cb 01       	movw	r24, r22
    506e:	f8 01       	movw	r30, r16
    5070:	91 83       	std	Z+1, r25	; 0x01
    5072:	80 83       	st	Z, r24
    5074:	de 01       	movw	r26, r28
    5076:	a7 5e       	subi	r26, 0xE7	; 231
    5078:	be 4f       	sbci	r27, 0xFE	; 254
    507a:	fe 01       	movw	r30, r28
    507c:	e3 5e       	subi	r30, 0xE3	; 227
    507e:	fe 4f       	sbci	r31, 0xFE	; 254
    5080:	80 81       	ld	r24, Z
    5082:	91 81       	ldd	r25, Z+1	; 0x01
    5084:	8d 93       	st	X+, r24
    5086:	9c 93       	st	X, r25
    5088:	fe 01       	movw	r30, r28
    508a:	e7 5e       	subi	r30, 0xE7	; 231
    508c:	fe 4f       	sbci	r31, 0xFE	; 254
    508e:	80 81       	ld	r24, Z
    5090:	91 81       	ldd	r25, Z+1	; 0x01
    5092:	01 97       	sbiw	r24, 0x01	; 1
    5094:	f1 f7       	brne	.-4      	; 0x5092 <APP_LCD_story+0x150c>
    5096:	fe 01       	movw	r30, r28
    5098:	e7 5e       	subi	r30, 0xE7	; 231
    509a:	fe 4f       	sbci	r31, 0xFE	; 254
    509c:	91 83       	std	Z+1, r25	; 0x01
    509e:	80 83       	st	Z, r24
		_delay_ms(2000);

		APP_LCD_ClearLine1();
    50a0:	0e 94 a7 36 	call	0x6d4e	; 0x6d4e <APP_LCD_ClearLine1>
		LCD_void_SendString((u8*)"closet in the");
    50a4:	84 e1       	ldi	r24, 0x14	; 20
    50a6:	91 e0       	ldi	r25, 0x01	; 1
    50a8:	0e 94 88 19 	call	0x3310	; 0x3310 <LCD_void_SendString>
    50ac:	fe 01       	movw	r30, r28
    50ae:	eb 5e       	subi	r30, 0xEB	; 235
    50b0:	fe 4f       	sbci	r31, 0xFE	; 254
    50b2:	80 e0       	ldi	r24, 0x00	; 0
    50b4:	90 e0       	ldi	r25, 0x00	; 0
    50b6:	aa ef       	ldi	r26, 0xFA	; 250
    50b8:	b4 e4       	ldi	r27, 0x44	; 68
    50ba:	80 83       	st	Z, r24
    50bc:	91 83       	std	Z+1, r25	; 0x01
    50be:	a2 83       	std	Z+2, r26	; 0x02
    50c0:	b3 83       	std	Z+3, r27	; 0x03
 */
void
_delay_ms(double __ms)
{
	uint16_t __ticks;
	double __tmp = ((F_CPU) / 4e3) * __ms;
    50c2:	8e 01       	movw	r16, r28
    50c4:	0f 5e       	subi	r16, 0xEF	; 239
    50c6:	1e 4f       	sbci	r17, 0xFE	; 254
    50c8:	fe 01       	movw	r30, r28
    50ca:	eb 5e       	subi	r30, 0xEB	; 235
    50cc:	fe 4f       	sbci	r31, 0xFE	; 254
    50ce:	60 81       	ld	r22, Z
    50d0:	71 81       	ldd	r23, Z+1	; 0x01
    50d2:	82 81       	ldd	r24, Z+2	; 0x02
    50d4:	93 81       	ldd	r25, Z+3	; 0x03
    50d6:	20 e0       	ldi	r18, 0x00	; 0
    50d8:	30 e0       	ldi	r19, 0x00	; 0
    50da:	4a ef       	ldi	r20, 0xFA	; 250
    50dc:	54 e4       	ldi	r21, 0x44	; 68
    50de:	0e 94 1f 02 	call	0x43e	; 0x43e <__mulsf3>
    50e2:	dc 01       	movw	r26, r24
    50e4:	cb 01       	movw	r24, r22
    50e6:	f8 01       	movw	r30, r16
    50e8:	80 83       	st	Z, r24
    50ea:	91 83       	std	Z+1, r25	; 0x01
    50ec:	a2 83       	std	Z+2, r26	; 0x02
    50ee:	b3 83       	std	Z+3, r27	; 0x03
	if (__tmp < 1.0)
    50f0:	fe 01       	movw	r30, r28
    50f2:	ef 5e       	subi	r30, 0xEF	; 239
    50f4:	fe 4f       	sbci	r31, 0xFE	; 254
    50f6:	60 81       	ld	r22, Z
    50f8:	71 81       	ldd	r23, Z+1	; 0x01
    50fa:	82 81       	ldd	r24, Z+2	; 0x02
    50fc:	93 81       	ldd	r25, Z+3	; 0x03
    50fe:	20 e0       	ldi	r18, 0x00	; 0
    5100:	30 e0       	ldi	r19, 0x00	; 0
    5102:	40 e8       	ldi	r20, 0x80	; 128
    5104:	5f e3       	ldi	r21, 0x3F	; 63
    5106:	0e 94 25 04 	call	0x84a	; 0x84a <__ltsf2>
    510a:	88 23       	and	r24, r24
    510c:	44 f4       	brge	.+16     	; 0x511e <APP_LCD_story+0x1598>
		__ticks = 1;
    510e:	fe 01       	movw	r30, r28
    5110:	e1 5f       	subi	r30, 0xF1	; 241
    5112:	fe 4f       	sbci	r31, 0xFE	; 254
    5114:	81 e0       	ldi	r24, 0x01	; 1
    5116:	90 e0       	ldi	r25, 0x00	; 0
    5118:	91 83       	std	Z+1, r25	; 0x01
    511a:	80 83       	st	Z, r24
    511c:	64 c0       	rjmp	.+200    	; 0x51e6 <APP_LCD_story+0x1660>
	else if (__tmp > 65535)
    511e:	fe 01       	movw	r30, r28
    5120:	ef 5e       	subi	r30, 0xEF	; 239
    5122:	fe 4f       	sbci	r31, 0xFE	; 254
    5124:	60 81       	ld	r22, Z
    5126:	71 81       	ldd	r23, Z+1	; 0x01
    5128:	82 81       	ldd	r24, Z+2	; 0x02
    512a:	93 81       	ldd	r25, Z+3	; 0x03
    512c:	20 e0       	ldi	r18, 0x00	; 0
    512e:	3f ef       	ldi	r19, 0xFF	; 255
    5130:	4f e7       	ldi	r20, 0x7F	; 127
    5132:	57 e4       	ldi	r21, 0x47	; 71
    5134:	0e 94 c5 03 	call	0x78a	; 0x78a <__gtsf2>
    5138:	18 16       	cp	r1, r24
    513a:	0c f0       	brlt	.+2      	; 0x513e <APP_LCD_story+0x15b8>
    513c:	43 c0       	rjmp	.+134    	; 0x51c4 <APP_LCD_story+0x163e>
	{
		//	__ticks = requested delay in 1/10 ms
		__ticks = (uint16_t) (__ms * 10.0);
    513e:	fe 01       	movw	r30, r28
    5140:	eb 5e       	subi	r30, 0xEB	; 235
    5142:	fe 4f       	sbci	r31, 0xFE	; 254
    5144:	60 81       	ld	r22, Z
    5146:	71 81       	ldd	r23, Z+1	; 0x01
    5148:	82 81       	ldd	r24, Z+2	; 0x02
    514a:	93 81       	ldd	r25, Z+3	; 0x03
    514c:	20 e0       	ldi	r18, 0x00	; 0
    514e:	30 e0       	ldi	r19, 0x00	; 0
    5150:	40 e2       	ldi	r20, 0x20	; 32
    5152:	51 e4       	ldi	r21, 0x41	; 65
    5154:	0e 94 1f 02 	call	0x43e	; 0x43e <__mulsf3>
    5158:	dc 01       	movw	r26, r24
    515a:	cb 01       	movw	r24, r22
    515c:	8e 01       	movw	r16, r28
    515e:	01 5f       	subi	r16, 0xF1	; 241
    5160:	1e 4f       	sbci	r17, 0xFE	; 254
    5162:	bc 01       	movw	r22, r24
    5164:	cd 01       	movw	r24, r26
    5166:	0e 94 49 00 	call	0x92	; 0x92 <__fixunssfsi>
    516a:	dc 01       	movw	r26, r24
    516c:	cb 01       	movw	r24, r22
    516e:	f8 01       	movw	r30, r16
    5170:	91 83       	std	Z+1, r25	; 0x01
    5172:	80 83       	st	Z, r24
    5174:	1f c0       	rjmp	.+62     	; 0x51b4 <APP_LCD_story+0x162e>
    5176:	fe 01       	movw	r30, r28
    5178:	e3 5f       	subi	r30, 0xF3	; 243
    517a:	fe 4f       	sbci	r31, 0xFE	; 254
    517c:	88 ec       	ldi	r24, 0xC8	; 200
    517e:	90 e0       	ldi	r25, 0x00	; 0
    5180:	91 83       	std	Z+1, r25	; 0x01
    5182:	80 83       	st	Z, r24
    5184:	fe 01       	movw	r30, r28
    5186:	e3 5f       	subi	r30, 0xF3	; 243
    5188:	fe 4f       	sbci	r31, 0xFE	; 254
    518a:	80 81       	ld	r24, Z
    518c:	91 81       	ldd	r25, Z+1	; 0x01
    518e:	01 97       	sbiw	r24, 0x01	; 1
    5190:	f1 f7       	brne	.-4      	; 0x518e <APP_LCD_story+0x1608>
    5192:	fe 01       	movw	r30, r28
    5194:	e3 5f       	subi	r30, 0xF3	; 243
    5196:	fe 4f       	sbci	r31, 0xFE	; 254
    5198:	91 83       	std	Z+1, r25	; 0x01
    519a:	80 83       	st	Z, r24
		while(__ticks)
		{
			// wait 1/10 ms
			_delay_loop_2(((F_CPU) / 4e3) / 10);
			__ticks --;
    519c:	de 01       	movw	r26, r28
    519e:	a1 5f       	subi	r26, 0xF1	; 241
    51a0:	be 4f       	sbci	r27, 0xFE	; 254
    51a2:	fe 01       	movw	r30, r28
    51a4:	e1 5f       	subi	r30, 0xF1	; 241
    51a6:	fe 4f       	sbci	r31, 0xFE	; 254
    51a8:	80 81       	ld	r24, Z
    51aa:	91 81       	ldd	r25, Z+1	; 0x01
    51ac:	01 97       	sbiw	r24, 0x01	; 1
    51ae:	11 96       	adiw	r26, 0x01	; 1
    51b0:	9c 93       	st	X, r25
    51b2:	8e 93       	st	-X, r24
		__ticks = 1;
	else if (__tmp > 65535)
	{
		//	__ticks = requested delay in 1/10 ms
		__ticks = (uint16_t) (__ms * 10.0);
		while(__ticks)
    51b4:	fe 01       	movw	r30, r28
    51b6:	e1 5f       	subi	r30, 0xF1	; 241
    51b8:	fe 4f       	sbci	r31, 0xFE	; 254
    51ba:	80 81       	ld	r24, Z
    51bc:	91 81       	ldd	r25, Z+1	; 0x01
    51be:	00 97       	sbiw	r24, 0x00	; 0
    51c0:	d1 f6       	brne	.-76     	; 0x5176 <APP_LCD_story+0x15f0>
    51c2:	27 c0       	rjmp	.+78     	; 0x5212 <APP_LCD_story+0x168c>
			__ticks --;
		}
		return;
	}
	else
		__ticks = (uint16_t)__tmp;
    51c4:	8e 01       	movw	r16, r28
    51c6:	01 5f       	subi	r16, 0xF1	; 241
    51c8:	1e 4f       	sbci	r17, 0xFE	; 254
    51ca:	fe 01       	movw	r30, r28
    51cc:	ef 5e       	subi	r30, 0xEF	; 239
    51ce:	fe 4f       	sbci	r31, 0xFE	; 254
    51d0:	60 81       	ld	r22, Z
    51d2:	71 81       	ldd	r23, Z+1	; 0x01
    51d4:	82 81       	ldd	r24, Z+2	; 0x02
    51d6:	93 81       	ldd	r25, Z+3	; 0x03
    51d8:	0e 94 49 00 	call	0x92	; 0x92 <__fixunssfsi>
    51dc:	dc 01       	movw	r26, r24
    51de:	cb 01       	movw	r24, r22
    51e0:	f8 01       	movw	r30, r16
    51e2:	91 83       	std	Z+1, r25	; 0x01
    51e4:	80 83       	st	Z, r24
    51e6:	de 01       	movw	r26, r28
    51e8:	a5 5f       	subi	r26, 0xF5	; 245
    51ea:	be 4f       	sbci	r27, 0xFE	; 254
    51ec:	fe 01       	movw	r30, r28
    51ee:	e1 5f       	subi	r30, 0xF1	; 241
    51f0:	fe 4f       	sbci	r31, 0xFE	; 254
    51f2:	80 81       	ld	r24, Z
    51f4:	91 81       	ldd	r25, Z+1	; 0x01
    51f6:	8d 93       	st	X+, r24
    51f8:	9c 93       	st	X, r25
    51fa:	fe 01       	movw	r30, r28
    51fc:	e5 5f       	subi	r30, 0xF5	; 245
    51fe:	fe 4f       	sbci	r31, 0xFE	; 254
    5200:	80 81       	ld	r24, Z
    5202:	91 81       	ldd	r25, Z+1	; 0x01
    5204:	01 97       	sbiw	r24, 0x01	; 1
    5206:	f1 f7       	brne	.-4      	; 0x5204 <APP_LCD_story+0x167e>
    5208:	fe 01       	movw	r30, r28
    520a:	e5 5f       	subi	r30, 0xF5	; 245
    520c:	fe 4f       	sbci	r31, 0xFE	; 254
    520e:	91 83       	std	Z+1, r25	; 0x01
    5210:	80 83       	st	Z, r24
		_delay_ms(2000);

		APP_LCD_ClearLine1();
    5212:	0e 94 a7 36 	call	0x6d4e	; 0x6d4e <APP_LCD_ClearLine1>
		LCD_void_SendString((u8*)"PIANO !! First");
    5216:	82 e2       	ldi	r24, 0x22	; 34
    5218:	91 e0       	ldi	r25, 0x01	; 1
    521a:	0e 94 88 19 	call	0x3310	; 0x3310 <LCD_void_SendString>
    521e:	fe 01       	movw	r30, r28
    5220:	e9 5f       	subi	r30, 0xF9	; 249
    5222:	fe 4f       	sbci	r31, 0xFE	; 254
    5224:	80 e0       	ldi	r24, 0x00	; 0
    5226:	90 e0       	ldi	r25, 0x00	; 0
    5228:	aa ef       	ldi	r26, 0xFA	; 250
    522a:	b4 e4       	ldi	r27, 0x44	; 68
    522c:	80 83       	st	Z, r24
    522e:	91 83       	std	Z+1, r25	; 0x01
    5230:	a2 83       	std	Z+2, r26	; 0x02
    5232:	b3 83       	std	Z+3, r27	; 0x03
 */
void
_delay_ms(double __ms)
{
	uint16_t __ticks;
	double __tmp = ((F_CPU) / 4e3) * __ms;
    5234:	8e 01       	movw	r16, r28
    5236:	0d 5f       	subi	r16, 0xFD	; 253
    5238:	1e 4f       	sbci	r17, 0xFE	; 254
    523a:	fe 01       	movw	r30, r28
    523c:	e9 5f       	subi	r30, 0xF9	; 249
    523e:	fe 4f       	sbci	r31, 0xFE	; 254
    5240:	60 81       	ld	r22, Z
    5242:	71 81       	ldd	r23, Z+1	; 0x01
    5244:	82 81       	ldd	r24, Z+2	; 0x02
    5246:	93 81       	ldd	r25, Z+3	; 0x03
    5248:	20 e0       	ldi	r18, 0x00	; 0
    524a:	30 e0       	ldi	r19, 0x00	; 0
    524c:	4a ef       	ldi	r20, 0xFA	; 250
    524e:	54 e4       	ldi	r21, 0x44	; 68
    5250:	0e 94 1f 02 	call	0x43e	; 0x43e <__mulsf3>
    5254:	dc 01       	movw	r26, r24
    5256:	cb 01       	movw	r24, r22
    5258:	f8 01       	movw	r30, r16
    525a:	80 83       	st	Z, r24
    525c:	91 83       	std	Z+1, r25	; 0x01
    525e:	a2 83       	std	Z+2, r26	; 0x02
    5260:	b3 83       	std	Z+3, r27	; 0x03
	if (__tmp < 1.0)
    5262:	fe 01       	movw	r30, r28
    5264:	ed 5f       	subi	r30, 0xFD	; 253
    5266:	fe 4f       	sbci	r31, 0xFE	; 254
    5268:	60 81       	ld	r22, Z
    526a:	71 81       	ldd	r23, Z+1	; 0x01
    526c:	82 81       	ldd	r24, Z+2	; 0x02
    526e:	93 81       	ldd	r25, Z+3	; 0x03
    5270:	20 e0       	ldi	r18, 0x00	; 0
    5272:	30 e0       	ldi	r19, 0x00	; 0
    5274:	40 e8       	ldi	r20, 0x80	; 128
    5276:	5f e3       	ldi	r21, 0x3F	; 63
    5278:	0e 94 25 04 	call	0x84a	; 0x84a <__ltsf2>
    527c:	88 23       	and	r24, r24
    527e:	44 f4       	brge	.+16     	; 0x5290 <APP_LCD_story+0x170a>
		__ticks = 1;
    5280:	fe 01       	movw	r30, r28
    5282:	ef 5f       	subi	r30, 0xFF	; 255
    5284:	fe 4f       	sbci	r31, 0xFE	; 254
    5286:	81 e0       	ldi	r24, 0x01	; 1
    5288:	90 e0       	ldi	r25, 0x00	; 0
    528a:	91 83       	std	Z+1, r25	; 0x01
    528c:	80 83       	st	Z, r24
    528e:	64 c0       	rjmp	.+200    	; 0x5358 <APP_LCD_story+0x17d2>
	else if (__tmp > 65535)
    5290:	fe 01       	movw	r30, r28
    5292:	ed 5f       	subi	r30, 0xFD	; 253
    5294:	fe 4f       	sbci	r31, 0xFE	; 254
    5296:	60 81       	ld	r22, Z
    5298:	71 81       	ldd	r23, Z+1	; 0x01
    529a:	82 81       	ldd	r24, Z+2	; 0x02
    529c:	93 81       	ldd	r25, Z+3	; 0x03
    529e:	20 e0       	ldi	r18, 0x00	; 0
    52a0:	3f ef       	ldi	r19, 0xFF	; 255
    52a2:	4f e7       	ldi	r20, 0x7F	; 127
    52a4:	57 e4       	ldi	r21, 0x47	; 71
    52a6:	0e 94 c5 03 	call	0x78a	; 0x78a <__gtsf2>
    52aa:	18 16       	cp	r1, r24
    52ac:	0c f0       	brlt	.+2      	; 0x52b0 <APP_LCD_story+0x172a>
    52ae:	43 c0       	rjmp	.+134    	; 0x5336 <APP_LCD_story+0x17b0>
	{
		//	__ticks = requested delay in 1/10 ms
		__ticks = (uint16_t) (__ms * 10.0);
    52b0:	fe 01       	movw	r30, r28
    52b2:	e9 5f       	subi	r30, 0xF9	; 249
    52b4:	fe 4f       	sbci	r31, 0xFE	; 254
    52b6:	60 81       	ld	r22, Z
    52b8:	71 81       	ldd	r23, Z+1	; 0x01
    52ba:	82 81       	ldd	r24, Z+2	; 0x02
    52bc:	93 81       	ldd	r25, Z+3	; 0x03
    52be:	20 e0       	ldi	r18, 0x00	; 0
    52c0:	30 e0       	ldi	r19, 0x00	; 0
    52c2:	40 e2       	ldi	r20, 0x20	; 32
    52c4:	51 e4       	ldi	r21, 0x41	; 65
    52c6:	0e 94 1f 02 	call	0x43e	; 0x43e <__mulsf3>
    52ca:	dc 01       	movw	r26, r24
    52cc:	cb 01       	movw	r24, r22
    52ce:	8e 01       	movw	r16, r28
    52d0:	0f 5f       	subi	r16, 0xFF	; 255
    52d2:	1e 4f       	sbci	r17, 0xFE	; 254
    52d4:	bc 01       	movw	r22, r24
    52d6:	cd 01       	movw	r24, r26
    52d8:	0e 94 49 00 	call	0x92	; 0x92 <__fixunssfsi>
    52dc:	dc 01       	movw	r26, r24
    52de:	cb 01       	movw	r24, r22
    52e0:	f8 01       	movw	r30, r16
    52e2:	91 83       	std	Z+1, r25	; 0x01
    52e4:	80 83       	st	Z, r24
    52e6:	1f c0       	rjmp	.+62     	; 0x5326 <APP_LCD_story+0x17a0>
    52e8:	fe 01       	movw	r30, r28
    52ea:	e1 50       	subi	r30, 0x01	; 1
    52ec:	ff 4f       	sbci	r31, 0xFF	; 255
    52ee:	88 ec       	ldi	r24, 0xC8	; 200
    52f0:	90 e0       	ldi	r25, 0x00	; 0
    52f2:	91 83       	std	Z+1, r25	; 0x01
    52f4:	80 83       	st	Z, r24
    52f6:	fe 01       	movw	r30, r28
    52f8:	e1 50       	subi	r30, 0x01	; 1
    52fa:	ff 4f       	sbci	r31, 0xFF	; 255
    52fc:	80 81       	ld	r24, Z
    52fe:	91 81       	ldd	r25, Z+1	; 0x01
    5300:	01 97       	sbiw	r24, 0x01	; 1
    5302:	f1 f7       	brne	.-4      	; 0x5300 <APP_LCD_story+0x177a>
    5304:	fe 01       	movw	r30, r28
    5306:	e1 50       	subi	r30, 0x01	; 1
    5308:	ff 4f       	sbci	r31, 0xFF	; 255
    530a:	91 83       	std	Z+1, r25	; 0x01
    530c:	80 83       	st	Z, r24
		while(__ticks)
		{
			// wait 1/10 ms
			_delay_loop_2(((F_CPU) / 4e3) / 10);
			__ticks --;
    530e:	de 01       	movw	r26, r28
    5310:	af 5f       	subi	r26, 0xFF	; 255
    5312:	be 4f       	sbci	r27, 0xFE	; 254
    5314:	fe 01       	movw	r30, r28
    5316:	ef 5f       	subi	r30, 0xFF	; 255
    5318:	fe 4f       	sbci	r31, 0xFE	; 254
    531a:	80 81       	ld	r24, Z
    531c:	91 81       	ldd	r25, Z+1	; 0x01
    531e:	01 97       	sbiw	r24, 0x01	; 1
    5320:	11 96       	adiw	r26, 0x01	; 1
    5322:	9c 93       	st	X, r25
    5324:	8e 93       	st	-X, r24
		__ticks = 1;
	else if (__tmp > 65535)
	{
		//	__ticks = requested delay in 1/10 ms
		__ticks = (uint16_t) (__ms * 10.0);
		while(__ticks)
    5326:	fe 01       	movw	r30, r28
    5328:	ef 5f       	subi	r30, 0xFF	; 255
    532a:	fe 4f       	sbci	r31, 0xFE	; 254
    532c:	80 81       	ld	r24, Z
    532e:	91 81       	ldd	r25, Z+1	; 0x01
    5330:	00 97       	sbiw	r24, 0x00	; 0
    5332:	d1 f6       	brne	.-76     	; 0x52e8 <APP_LCD_story+0x1762>
    5334:	27 c0       	rjmp	.+78     	; 0x5384 <APP_LCD_story+0x17fe>
			__ticks --;
		}
		return;
	}
	else
		__ticks = (uint16_t)__tmp;
    5336:	8e 01       	movw	r16, r28
    5338:	0f 5f       	subi	r16, 0xFF	; 255
    533a:	1e 4f       	sbci	r17, 0xFE	; 254
    533c:	fe 01       	movw	r30, r28
    533e:	ed 5f       	subi	r30, 0xFD	; 253
    5340:	fe 4f       	sbci	r31, 0xFE	; 254
    5342:	60 81       	ld	r22, Z
    5344:	71 81       	ldd	r23, Z+1	; 0x01
    5346:	82 81       	ldd	r24, Z+2	; 0x02
    5348:	93 81       	ldd	r25, Z+3	; 0x03
    534a:	0e 94 49 00 	call	0x92	; 0x92 <__fixunssfsi>
    534e:	dc 01       	movw	r26, r24
    5350:	cb 01       	movw	r24, r22
    5352:	f8 01       	movw	r30, r16
    5354:	91 83       	std	Z+1, r25	; 0x01
    5356:	80 83       	st	Z, r24
    5358:	de 01       	movw	r26, r28
    535a:	a3 50       	subi	r26, 0x03	; 3
    535c:	bf 4f       	sbci	r27, 0xFF	; 255
    535e:	fe 01       	movw	r30, r28
    5360:	ef 5f       	subi	r30, 0xFF	; 255
    5362:	fe 4f       	sbci	r31, 0xFE	; 254
    5364:	80 81       	ld	r24, Z
    5366:	91 81       	ldd	r25, Z+1	; 0x01
    5368:	8d 93       	st	X+, r24
    536a:	9c 93       	st	X, r25
    536c:	fe 01       	movw	r30, r28
    536e:	e3 50       	subi	r30, 0x03	; 3
    5370:	ff 4f       	sbci	r31, 0xFF	; 255
    5372:	80 81       	ld	r24, Z
    5374:	91 81       	ldd	r25, Z+1	; 0x01
    5376:	01 97       	sbiw	r24, 0x01	; 1
    5378:	f1 f7       	brne	.-4      	; 0x5376 <APP_LCD_story+0x17f0>
    537a:	fe 01       	movw	r30, r28
    537c:	e3 50       	subi	r30, 0x03	; 3
    537e:	ff 4f       	sbci	r31, 0xFF	; 255
    5380:	91 83       	std	Z+1, r25	; 0x01
    5382:	80 83       	st	Z, r24
		_delay_ms(2000);

		APP_LCD_ClearLine1();
    5384:	0e 94 a7 36 	call	0x6d4e	; 0x6d4e <APP_LCD_ClearLine1>
		LCD_void_SendString((u8*)"lets go there");
    5388:	81 e3       	ldi	r24, 0x31	; 49
    538a:	91 e0       	ldi	r25, 0x01	; 1
    538c:	0e 94 88 19 	call	0x3310	; 0x3310 <LCD_void_SendString>
    5390:	fe 01       	movw	r30, r28
    5392:	e7 50       	subi	r30, 0x07	; 7
    5394:	ff 4f       	sbci	r31, 0xFF	; 255
    5396:	80 e0       	ldi	r24, 0x00	; 0
    5398:	90 e0       	ldi	r25, 0x00	; 0
    539a:	aa ef       	ldi	r26, 0xFA	; 250
    539c:	b4 e4       	ldi	r27, 0x44	; 68
    539e:	80 83       	st	Z, r24
    53a0:	91 83       	std	Z+1, r25	; 0x01
    53a2:	a2 83       	std	Z+2, r26	; 0x02
    53a4:	b3 83       	std	Z+3, r27	; 0x03
 */
void
_delay_ms(double __ms)
{
	uint16_t __ticks;
	double __tmp = ((F_CPU) / 4e3) * __ms;
    53a6:	8e 01       	movw	r16, r28
    53a8:	0b 50       	subi	r16, 0x0B	; 11
    53aa:	1f 4f       	sbci	r17, 0xFF	; 255
    53ac:	fe 01       	movw	r30, r28
    53ae:	e7 50       	subi	r30, 0x07	; 7
    53b0:	ff 4f       	sbci	r31, 0xFF	; 255
    53b2:	60 81       	ld	r22, Z
    53b4:	71 81       	ldd	r23, Z+1	; 0x01
    53b6:	82 81       	ldd	r24, Z+2	; 0x02
    53b8:	93 81       	ldd	r25, Z+3	; 0x03
    53ba:	20 e0       	ldi	r18, 0x00	; 0
    53bc:	30 e0       	ldi	r19, 0x00	; 0
    53be:	4a ef       	ldi	r20, 0xFA	; 250
    53c0:	54 e4       	ldi	r21, 0x44	; 68
    53c2:	0e 94 1f 02 	call	0x43e	; 0x43e <__mulsf3>
    53c6:	dc 01       	movw	r26, r24
    53c8:	cb 01       	movw	r24, r22
    53ca:	f8 01       	movw	r30, r16
    53cc:	80 83       	st	Z, r24
    53ce:	91 83       	std	Z+1, r25	; 0x01
    53d0:	a2 83       	std	Z+2, r26	; 0x02
    53d2:	b3 83       	std	Z+3, r27	; 0x03
	if (__tmp < 1.0)
    53d4:	fe 01       	movw	r30, r28
    53d6:	eb 50       	subi	r30, 0x0B	; 11
    53d8:	ff 4f       	sbci	r31, 0xFF	; 255
    53da:	60 81       	ld	r22, Z
    53dc:	71 81       	ldd	r23, Z+1	; 0x01
    53de:	82 81       	ldd	r24, Z+2	; 0x02
    53e0:	93 81       	ldd	r25, Z+3	; 0x03
    53e2:	20 e0       	ldi	r18, 0x00	; 0
    53e4:	30 e0       	ldi	r19, 0x00	; 0
    53e6:	40 e8       	ldi	r20, 0x80	; 128
    53e8:	5f e3       	ldi	r21, 0x3F	; 63
    53ea:	0e 94 25 04 	call	0x84a	; 0x84a <__ltsf2>
    53ee:	88 23       	and	r24, r24
    53f0:	44 f4       	brge	.+16     	; 0x5402 <APP_LCD_story+0x187c>
		__ticks = 1;
    53f2:	fe 01       	movw	r30, r28
    53f4:	ed 50       	subi	r30, 0x0D	; 13
    53f6:	ff 4f       	sbci	r31, 0xFF	; 255
    53f8:	81 e0       	ldi	r24, 0x01	; 1
    53fa:	90 e0       	ldi	r25, 0x00	; 0
    53fc:	91 83       	std	Z+1, r25	; 0x01
    53fe:	80 83       	st	Z, r24
    5400:	64 c0       	rjmp	.+200    	; 0x54ca <APP_LCD_story+0x1944>
	else if (__tmp > 65535)
    5402:	fe 01       	movw	r30, r28
    5404:	eb 50       	subi	r30, 0x0B	; 11
    5406:	ff 4f       	sbci	r31, 0xFF	; 255
    5408:	60 81       	ld	r22, Z
    540a:	71 81       	ldd	r23, Z+1	; 0x01
    540c:	82 81       	ldd	r24, Z+2	; 0x02
    540e:	93 81       	ldd	r25, Z+3	; 0x03
    5410:	20 e0       	ldi	r18, 0x00	; 0
    5412:	3f ef       	ldi	r19, 0xFF	; 255
    5414:	4f e7       	ldi	r20, 0x7F	; 127
    5416:	57 e4       	ldi	r21, 0x47	; 71
    5418:	0e 94 c5 03 	call	0x78a	; 0x78a <__gtsf2>
    541c:	18 16       	cp	r1, r24
    541e:	0c f0       	brlt	.+2      	; 0x5422 <APP_LCD_story+0x189c>
    5420:	43 c0       	rjmp	.+134    	; 0x54a8 <APP_LCD_story+0x1922>
	{
		//	__ticks = requested delay in 1/10 ms
		__ticks = (uint16_t) (__ms * 10.0);
    5422:	fe 01       	movw	r30, r28
    5424:	e7 50       	subi	r30, 0x07	; 7
    5426:	ff 4f       	sbci	r31, 0xFF	; 255
    5428:	60 81       	ld	r22, Z
    542a:	71 81       	ldd	r23, Z+1	; 0x01
    542c:	82 81       	ldd	r24, Z+2	; 0x02
    542e:	93 81       	ldd	r25, Z+3	; 0x03
    5430:	20 e0       	ldi	r18, 0x00	; 0
    5432:	30 e0       	ldi	r19, 0x00	; 0
    5434:	40 e2       	ldi	r20, 0x20	; 32
    5436:	51 e4       	ldi	r21, 0x41	; 65
    5438:	0e 94 1f 02 	call	0x43e	; 0x43e <__mulsf3>
    543c:	dc 01       	movw	r26, r24
    543e:	cb 01       	movw	r24, r22
    5440:	8e 01       	movw	r16, r28
    5442:	0d 50       	subi	r16, 0x0D	; 13
    5444:	1f 4f       	sbci	r17, 0xFF	; 255
    5446:	bc 01       	movw	r22, r24
    5448:	cd 01       	movw	r24, r26
    544a:	0e 94 49 00 	call	0x92	; 0x92 <__fixunssfsi>
    544e:	dc 01       	movw	r26, r24
    5450:	cb 01       	movw	r24, r22
    5452:	f8 01       	movw	r30, r16
    5454:	91 83       	std	Z+1, r25	; 0x01
    5456:	80 83       	st	Z, r24
    5458:	1f c0       	rjmp	.+62     	; 0x5498 <APP_LCD_story+0x1912>
    545a:	fe 01       	movw	r30, r28
    545c:	ef 50       	subi	r30, 0x0F	; 15
    545e:	ff 4f       	sbci	r31, 0xFF	; 255
    5460:	88 ec       	ldi	r24, 0xC8	; 200
    5462:	90 e0       	ldi	r25, 0x00	; 0
    5464:	91 83       	std	Z+1, r25	; 0x01
    5466:	80 83       	st	Z, r24
    5468:	fe 01       	movw	r30, r28
    546a:	ef 50       	subi	r30, 0x0F	; 15
    546c:	ff 4f       	sbci	r31, 0xFF	; 255
    546e:	80 81       	ld	r24, Z
    5470:	91 81       	ldd	r25, Z+1	; 0x01
    5472:	01 97       	sbiw	r24, 0x01	; 1
    5474:	f1 f7       	brne	.-4      	; 0x5472 <APP_LCD_story+0x18ec>
    5476:	fe 01       	movw	r30, r28
    5478:	ef 50       	subi	r30, 0x0F	; 15
    547a:	ff 4f       	sbci	r31, 0xFF	; 255
    547c:	91 83       	std	Z+1, r25	; 0x01
    547e:	80 83       	st	Z, r24
		while(__ticks)
		{
			// wait 1/10 ms
			_delay_loop_2(((F_CPU) / 4e3) / 10);
			__ticks --;
    5480:	de 01       	movw	r26, r28
    5482:	ad 50       	subi	r26, 0x0D	; 13
    5484:	bf 4f       	sbci	r27, 0xFF	; 255
    5486:	fe 01       	movw	r30, r28
    5488:	ed 50       	subi	r30, 0x0D	; 13
    548a:	ff 4f       	sbci	r31, 0xFF	; 255
    548c:	80 81       	ld	r24, Z
    548e:	91 81       	ldd	r25, Z+1	; 0x01
    5490:	01 97       	sbiw	r24, 0x01	; 1
    5492:	11 96       	adiw	r26, 0x01	; 1
    5494:	9c 93       	st	X, r25
    5496:	8e 93       	st	-X, r24
		__ticks = 1;
	else if (__tmp > 65535)
	{
		//	__ticks = requested delay in 1/10 ms
		__ticks = (uint16_t) (__ms * 10.0);
		while(__ticks)
    5498:	fe 01       	movw	r30, r28
    549a:	ed 50       	subi	r30, 0x0D	; 13
    549c:	ff 4f       	sbci	r31, 0xFF	; 255
    549e:	80 81       	ld	r24, Z
    54a0:	91 81       	ldd	r25, Z+1	; 0x01
    54a2:	00 97       	sbiw	r24, 0x00	; 0
    54a4:	d1 f6       	brne	.-76     	; 0x545a <APP_LCD_story+0x18d4>
    54a6:	27 c0       	rjmp	.+78     	; 0x54f6 <APP_LCD_story+0x1970>
			__ticks --;
		}
		return;
	}
	else
		__ticks = (uint16_t)__tmp;
    54a8:	8e 01       	movw	r16, r28
    54aa:	0d 50       	subi	r16, 0x0D	; 13
    54ac:	1f 4f       	sbci	r17, 0xFF	; 255
    54ae:	fe 01       	movw	r30, r28
    54b0:	eb 50       	subi	r30, 0x0B	; 11
    54b2:	ff 4f       	sbci	r31, 0xFF	; 255
    54b4:	60 81       	ld	r22, Z
    54b6:	71 81       	ldd	r23, Z+1	; 0x01
    54b8:	82 81       	ldd	r24, Z+2	; 0x02
    54ba:	93 81       	ldd	r25, Z+3	; 0x03
    54bc:	0e 94 49 00 	call	0x92	; 0x92 <__fixunssfsi>
    54c0:	dc 01       	movw	r26, r24
    54c2:	cb 01       	movw	r24, r22
    54c4:	f8 01       	movw	r30, r16
    54c6:	91 83       	std	Z+1, r25	; 0x01
    54c8:	80 83       	st	Z, r24
    54ca:	de 01       	movw	r26, r28
    54cc:	a1 51       	subi	r26, 0x11	; 17
    54ce:	bf 4f       	sbci	r27, 0xFF	; 255
    54d0:	fe 01       	movw	r30, r28
    54d2:	ed 50       	subi	r30, 0x0D	; 13
    54d4:	ff 4f       	sbci	r31, 0xFF	; 255
    54d6:	80 81       	ld	r24, Z
    54d8:	91 81       	ldd	r25, Z+1	; 0x01
    54da:	8d 93       	st	X+, r24
    54dc:	9c 93       	st	X, r25
    54de:	fe 01       	movw	r30, r28
    54e0:	e1 51       	subi	r30, 0x11	; 17
    54e2:	ff 4f       	sbci	r31, 0xFF	; 255
    54e4:	80 81       	ld	r24, Z
    54e6:	91 81       	ldd	r25, Z+1	; 0x01
    54e8:	01 97       	sbiw	r24, 0x01	; 1
    54ea:	f1 f7       	brne	.-4      	; 0x54e8 <APP_LCD_story+0x1962>
    54ec:	fe 01       	movw	r30, r28
    54ee:	e1 51       	subi	r30, 0x11	; 17
    54f0:	ff 4f       	sbci	r31, 0xFF	; 255
    54f2:	91 83       	std	Z+1, r25	; 0x01
    54f4:	80 83       	st	Z, r24
		_delay_ms(2000);

		LCD_GoTO(13,2);
    54f6:	8d e0       	ldi	r24, 0x0D	; 13
    54f8:	62 e0       	ldi	r22, 0x02	; 2
    54fa:	0e 94 a4 19 	call	0x3348	; 0x3348 <LCD_GoTO>
		LCD_void_Data(0x05);
    54fe:	85 e0       	ldi	r24, 0x05	; 5
    5500:	0e 94 63 16 	call	0x2cc6	; 0x2cc6 <LCD_void_Data>
    5504:	6d c0       	rjmp	.+218    	; 0x55e0 <APP_LCD_story+0x1a5a>
					LCD_GoTO(Stickman_position,2);
					LCD_void_Data(0x00);
					_delay_ms(3000);
					break;
				}
				 else if(Stickman_position <= 7)
    5506:	80 91 12 04 	lds	r24, 0x0412
    550a:	88 30       	cpi	r24, 0x08	; 8
    550c:	38 f4       	brcc	.+14     	; 0x551c <APP_LCD_story+0x1996>
				{
					APP_LCD_ClearLine1();
    550e:	0e 94 a7 36 	call	0x6d4e	; 0x6d4e <APP_LCD_ClearLine1>
					LCD_void_SendString((u8*)"nearly there");
    5512:	8f e3       	ldi	r24, 0x3F	; 63
    5514:	91 e0       	ldi	r25, 0x01	; 1
    5516:	0e 94 88 19 	call	0x3310	; 0x3310 <LCD_void_SendString>
    551a:	11 c0       	rjmp	.+34     	; 0x553e <APP_LCD_story+0x19b8>
				}
				else if(Stickman_position <= 9)
    551c:	80 91 12 04 	lds	r24, 0x0412
    5520:	8a 30       	cpi	r24, 0x0A	; 10
    5522:	38 f4       	brcc	.+14     	; 0x5532 <APP_LCD_story+0x19ac>
				{
					APP_LCD_ClearLine1();
    5524:	0e 94 a7 36 	call	0x6d4e	; 0x6d4e <APP_LCD_ClearLine1>
					LCD_void_SendString((u8*)"keep going");
    5528:	8c e4       	ldi	r24, 0x4C	; 76
    552a:	91 e0       	ldi	r25, 0x01	; 1
    552c:	0e 94 88 19 	call	0x3310	; 0x3310 <LCD_void_SendString>
    5530:	06 c0       	rjmp	.+12     	; 0x553e <APP_LCD_story+0x19b8>
				}

				else
				{
					APP_LCD_ClearLine1();
    5532:	0e 94 a7 36 	call	0x6d4e	; 0x6d4e <APP_LCD_ClearLine1>
					LCD_void_SendString((u8*)"yes this way");
    5536:	87 e5       	ldi	r24, 0x57	; 87
    5538:	91 e0       	ldi	r25, 0x01	; 1
    553a:	0e 94 88 19 	call	0x3310	; 0x3310 <LCD_void_SendString>

				}
				LCD_GoTO(Stickman_position,2);
    553e:	80 91 12 04 	lds	r24, 0x0412
    5542:	62 e0       	ldi	r22, 0x02	; 2
    5544:	0e 94 a4 19 	call	0x3348	; 0x3348 <LCD_GoTO>
				LCD_void_Data(0x02);
    5548:	82 e0       	ldi	r24, 0x02	; 2
    554a:	0e 94 63 16 	call	0x2cc6	; 0x2cc6 <LCD_void_Data>
			}

			if(BTN2_GetValue())
    554e:	0e 94 f2 11 	call	0x23e4	; 0x23e4 <BTN2_GetValue>
    5552:	88 23       	and	r24, r24
    5554:	09 f4       	brne	.+2      	; 0x5558 <APP_LCD_story+0x19d2>
    5556:	10 c9       	rjmp	.-3552   	; 0x4778 <APP_LCD_story+0xbf2>
			{
				while(BTN2_GetValue());
    5558:	0e 94 f2 11 	call	0x23e4	; 0x23e4 <BTN2_GetValue>
    555c:	88 23       	and	r24, r24
    555e:	e1 f7       	brne	.-8      	; 0x5558 <APP_LCD_story+0x19d2>
				LCD_GoTO(Stickman_position,2);
    5560:	80 91 12 04 	lds	r24, 0x0412
    5564:	62 e0       	ldi	r22, 0x02	; 2
    5566:	0e 94 a4 19 	call	0x3348	; 0x3348 <LCD_GoTO>
				LCD_void_Data(' ');
    556a:	80 e2       	ldi	r24, 0x20	; 32
    556c:	0e 94 63 16 	call	0x2cc6	; 0x2cc6 <LCD_void_Data>
				Stickman_position++;
    5570:	80 91 12 04 	lds	r24, 0x0412
    5574:	8f 5f       	subi	r24, 0xFF	; 255
    5576:	80 93 12 04 	sts	0x0412, r24


				 if(Stickman_position >= 12)
    557a:	80 91 12 04 	lds	r24, 0x0412
    557e:	8c 30       	cpi	r24, 0x0C	; 12
    5580:	50 f0       	brcs	.+20     	; 0x5596 <APP_LCD_story+0x1a10>
				{
					Stickman_position=12;
    5582:	8c e0       	ldi	r24, 0x0C	; 12
    5584:	80 93 12 04 	sts	0x0412, r24
					APP_LCD_ClearLine1();
    5588:	0e 94 a7 36 	call	0x6d4e	; 0x6d4e <APP_LCD_ClearLine1>
					LCD_void_SendString((u8*)"I AM NOT MOVING");
    558c:	84 e6       	ldi	r24, 0x64	; 100
    558e:	91 e0       	ldi	r25, 0x01	; 1
    5590:	0e 94 88 19 	call	0x3310	; 0x3310 <LCD_void_SendString>
    5594:	1c c0       	rjmp	.+56     	; 0x55ce <APP_LCD_story+0x1a48>
				}
				 else if(Stickman_position >= 10)
    5596:	80 91 12 04 	lds	r24, 0x0412
    559a:	8a 30       	cpi	r24, 0x0A	; 10
    559c:	38 f0       	brcs	.+14     	; 0x55ac <APP_LCD_story+0x1a26>
				{
					APP_LCD_ClearLine1();
    559e:	0e 94 a7 36 	call	0x6d4e	; 0x6d4e <APP_LCD_ClearLine1>
					LCD_void_SendString((u8*)"I said STOP");
    55a2:	84 e7       	ldi	r24, 0x74	; 116
    55a4:	91 e0       	ldi	r25, 0x01	; 1
    55a6:	0e 94 88 19 	call	0x3310	; 0x3310 <LCD_void_SendString>
    55aa:	11 c0       	rjmp	.+34     	; 0x55ce <APP_LCD_story+0x1a48>
				}
				else if(Stickman_position >= 10)
    55ac:	80 91 12 04 	lds	r24, 0x0412
    55b0:	8a 30       	cpi	r24, 0x0A	; 10
    55b2:	38 f0       	brcs	.+14     	; 0x55c2 <APP_LCD_story+0x1a3c>
				{
					APP_LCD_ClearLine1();
    55b4:	0e 94 a7 36 	call	0x6d4e	; 0x6d4e <APP_LCD_ClearLine1>
					LCD_void_SendString((u8*)"Stop it");
    55b8:	80 e8       	ldi	r24, 0x80	; 128
    55ba:	91 e0       	ldi	r25, 0x01	; 1
    55bc:	0e 94 88 19 	call	0x3310	; 0x3310 <LCD_void_SendString>
    55c0:	06 c0       	rjmp	.+12     	; 0x55ce <APP_LCD_story+0x1a48>
				}

				else
				{
					APP_LCD_ClearLine1();
    55c2:	0e 94 a7 36 	call	0x6d4e	; 0x6d4e <APP_LCD_ClearLine1>
					LCD_void_SendString((u8*)"Wrong Direction");
    55c6:	88 e8       	ldi	r24, 0x88	; 136
    55c8:	91 e0       	ldi	r25, 0x01	; 1
    55ca:	0e 94 88 19 	call	0x3310	; 0x3310 <LCD_void_SendString>

				}
				LCD_GoTO(Stickman_position,2);
    55ce:	80 91 12 04 	lds	r24, 0x0412
    55d2:	62 e0       	ldi	r22, 0x02	; 2
    55d4:	0e 94 a4 19 	call	0x3348	; 0x3348 <LCD_GoTO>
				LCD_void_Data(0x00);
    55d8:	80 e0       	ldi	r24, 0x00	; 0
    55da:	0e 94 63 16 	call	0x2cc6	; 0x2cc6 <LCD_void_Data>
    55de:	cc c8       	rjmp	.-3688   	; 0x4778 <APP_LCD_story+0xbf2>
		LCD_GoTO(13,2);
		LCD_void_Data(0x05);

		while(1)
		{
			if(BTN0_GetValue())
    55e0:	0e 94 de 11 	call	0x23bc	; 0x23bc <BTN0_GetValue>
    55e4:	88 23       	and	r24, r24
    55e6:	c1 f1       	breq	.+112    	; 0x5658 <APP_LCD_story+0x1ad2>
			{
				while(BTN0_GetValue());
    55e8:	0e 94 de 11 	call	0x23bc	; 0x23bc <BTN0_GetValue>
    55ec:	88 23       	and	r24, r24
    55ee:	e1 f7       	brne	.-8      	; 0x55e8 <APP_LCD_story+0x1a62>
				LCD_GoTO(Stickman_position,2);
    55f0:	80 91 12 04 	lds	r24, 0x0412
    55f4:	62 e0       	ldi	r22, 0x02	; 2
    55f6:	0e 94 a4 19 	call	0x3348	; 0x3348 <LCD_GoTO>
				LCD_void_Data(' ');
    55fa:	80 e2       	ldi	r24, 0x20	; 32
    55fc:	0e 94 63 16 	call	0x2cc6	; 0x2cc6 <LCD_void_Data>
				Stickman_position--;
    5600:	80 91 12 04 	lds	r24, 0x0412
    5604:	81 50       	subi	r24, 0x01	; 1
    5606:	80 93 12 04 	sts	0x0412, r24

				 if(Stickman_position <= 5)
    560a:	80 91 12 04 	lds	r24, 0x0412
    560e:	86 30       	cpi	r24, 0x06	; 6
    5610:	50 f4       	brcc	.+20     	; 0x5626 <APP_LCD_story+0x1aa0>
				{

					 Stickman_position=5;
    5612:	85 e0       	ldi	r24, 0x05	; 5
    5614:	80 93 12 04 	sts	0x0412, r24
					APP_LCD_ClearLine1();
    5618:	0e 94 a7 36 	call	0x6d4e	; 0x6d4e <APP_LCD_ClearLine1>
					LCD_void_SendString((u8*)"I AM NOT MOVING");
    561c:	84 e6       	ldi	r24, 0x64	; 100
    561e:	91 e0       	ldi	r25, 0x01	; 1
    5620:	0e 94 88 19 	call	0x3310	; 0x3310 <LCD_void_SendString>
    5624:	11 c0       	rjmp	.+34     	; 0x5648 <APP_LCD_story+0x1ac2>


				}
				 else if(Stickman_position <= 7)
    5626:	80 91 12 04 	lds	r24, 0x0412
    562a:	88 30       	cpi	r24, 0x08	; 8
    562c:	38 f4       	brcc	.+14     	; 0x563c <APP_LCD_story+0x1ab6>
				{
					APP_LCD_ClearLine1();
    562e:	0e 94 a7 36 	call	0x6d4e	; 0x6d4e <APP_LCD_ClearLine1>
					LCD_void_SendString((u8*)"Again! wrong way");
    5632:	88 e9       	ldi	r24, 0x98	; 152
    5634:	91 e0       	ldi	r25, 0x01	; 1
    5636:	0e 94 88 19 	call	0x3310	; 0x3310 <LCD_void_SendString>
    563a:	06 c0       	rjmp	.+12     	; 0x5648 <APP_LCD_story+0x1ac2>
				}

				else
				{
					APP_LCD_ClearLine1();
    563c:	0e 94 a7 36 	call	0x6d4e	; 0x6d4e <APP_LCD_ClearLine1>
					LCD_void_SendString((u8*)"oposite way dude");
    5640:	89 ea       	ldi	r24, 0xA9	; 169
    5642:	91 e0       	ldi	r25, 0x01	; 1
    5644:	0e 94 88 19 	call	0x3310	; 0x3310 <LCD_void_SendString>

				}
				LCD_GoTO(Stickman_position,2);
    5648:	80 91 12 04 	lds	r24, 0x0412
    564c:	62 e0       	ldi	r22, 0x02	; 2
    564e:	0e 94 a4 19 	call	0x3348	; 0x3348 <LCD_GoTO>
				LCD_void_Data(0x02);
    5652:	82 e0       	ldi	r24, 0x02	; 2
    5654:	0e 94 63 16 	call	0x2cc6	; 0x2cc6 <LCD_void_Data>
			}

			if(BTN2_GetValue())
    5658:	0e 94 f2 11 	call	0x23e4	; 0x23e4 <BTN2_GetValue>
    565c:	88 23       	and	r24, r24
    565e:	09 f4       	brne	.+2      	; 0x5662 <APP_LCD_story+0x1adc>
    5660:	bf cf       	rjmp	.-130    	; 0x55e0 <APP_LCD_story+0x1a5a>
			{
				while(BTN2_GetValue());
    5662:	0e 94 f2 11 	call	0x23e4	; 0x23e4 <BTN2_GetValue>
    5666:	88 23       	and	r24, r24
    5668:	e1 f7       	brne	.-8      	; 0x5662 <APP_LCD_story+0x1adc>
				LCD_GoTO(Stickman_position,2);
    566a:	80 91 12 04 	lds	r24, 0x0412
    566e:	62 e0       	ldi	r22, 0x02	; 2
    5670:	0e 94 a4 19 	call	0x3348	; 0x3348 <LCD_GoTO>
				LCD_void_Data(' ');
    5674:	80 e2       	ldi	r24, 0x20	; 32
    5676:	0e 94 63 16 	call	0x2cc6	; 0x2cc6 <LCD_void_Data>
				Stickman_position++;
    567a:	80 91 12 04 	lds	r24, 0x0412
    567e:	8f 5f       	subi	r24, 0xFF	; 255
    5680:	80 93 12 04 	sts	0x0412, r24


				 if(Stickman_position >= 12)
    5684:	80 91 12 04 	lds	r24, 0x0412
    5688:	8c 30       	cpi	r24, 0x0C	; 12
    568a:	08 f4       	brcc	.+2      	; 0x568e <APP_LCD_story+0x1b08>
    568c:	99 c6       	rjmp	.+3378   	; 0x63c0 <APP_LCD_story+0x283a>
				{
					Stickman_position=12;
    568e:	8c e0       	ldi	r24, 0x0C	; 12
    5690:	80 93 12 04 	sts	0x0412, r24
					LCD_GoTO(Stickman_position,2);
    5694:	80 91 12 04 	lds	r24, 0x0412
    5698:	62 e0       	ldi	r22, 0x02	; 2
    569a:	0e 94 a4 19 	call	0x3348	; 0x3348 <LCD_GoTO>
					LCD_void_Data(0x00);
    569e:	80 e0       	ldi	r24, 0x00	; 0
    56a0:	0e 94 63 16 	call	0x2cc6	; 0x2cc6 <LCD_void_Data>
				LCD_GoTO(Stickman_position,2);
				LCD_void_Data(0x00);
			}
		}

		APP_LCD_ClearLine1();
    56a4:	0e 94 a7 36 	call	0x6d4e	; 0x6d4e <APP_LCD_ClearLine1>
		LCD_void_SendString((u8*)"we are here ");
    56a8:	8a eb       	ldi	r24, 0xBA	; 186
    56aa:	91 e0       	ldi	r25, 0x01	; 1
    56ac:	0e 94 88 19 	call	0x3310	; 0x3310 <LCD_void_SendString>
    56b0:	fe 01       	movw	r30, r28
    56b2:	e5 51       	subi	r30, 0x15	; 21
    56b4:	ff 4f       	sbci	r31, 0xFF	; 255
    56b6:	80 e0       	ldi	r24, 0x00	; 0
    56b8:	90 e0       	ldi	r25, 0x00	; 0
    56ba:	aa ef       	ldi	r26, 0xFA	; 250
    56bc:	b4 e4       	ldi	r27, 0x44	; 68
    56be:	80 83       	st	Z, r24
    56c0:	91 83       	std	Z+1, r25	; 0x01
    56c2:	a2 83       	std	Z+2, r26	; 0x02
    56c4:	b3 83       	std	Z+3, r27	; 0x03
 */
void
_delay_ms(double __ms)
{
	uint16_t __ticks;
	double __tmp = ((F_CPU) / 4e3) * __ms;
    56c6:	8e 01       	movw	r16, r28
    56c8:	09 51       	subi	r16, 0x19	; 25
    56ca:	1f 4f       	sbci	r17, 0xFF	; 255
    56cc:	fe 01       	movw	r30, r28
    56ce:	e5 51       	subi	r30, 0x15	; 21
    56d0:	ff 4f       	sbci	r31, 0xFF	; 255
    56d2:	60 81       	ld	r22, Z
    56d4:	71 81       	ldd	r23, Z+1	; 0x01
    56d6:	82 81       	ldd	r24, Z+2	; 0x02
    56d8:	93 81       	ldd	r25, Z+3	; 0x03
    56da:	20 e0       	ldi	r18, 0x00	; 0
    56dc:	30 e0       	ldi	r19, 0x00	; 0
    56de:	4a ef       	ldi	r20, 0xFA	; 250
    56e0:	54 e4       	ldi	r21, 0x44	; 68
    56e2:	0e 94 1f 02 	call	0x43e	; 0x43e <__mulsf3>
    56e6:	dc 01       	movw	r26, r24
    56e8:	cb 01       	movw	r24, r22
    56ea:	f8 01       	movw	r30, r16
    56ec:	80 83       	st	Z, r24
    56ee:	91 83       	std	Z+1, r25	; 0x01
    56f0:	a2 83       	std	Z+2, r26	; 0x02
    56f2:	b3 83       	std	Z+3, r27	; 0x03
	if (__tmp < 1.0)
    56f4:	fe 01       	movw	r30, r28
    56f6:	e9 51       	subi	r30, 0x19	; 25
    56f8:	ff 4f       	sbci	r31, 0xFF	; 255
    56fa:	60 81       	ld	r22, Z
    56fc:	71 81       	ldd	r23, Z+1	; 0x01
    56fe:	82 81       	ldd	r24, Z+2	; 0x02
    5700:	93 81       	ldd	r25, Z+3	; 0x03
    5702:	20 e0       	ldi	r18, 0x00	; 0
    5704:	30 e0       	ldi	r19, 0x00	; 0
    5706:	40 e8       	ldi	r20, 0x80	; 128
    5708:	5f e3       	ldi	r21, 0x3F	; 63
    570a:	0e 94 25 04 	call	0x84a	; 0x84a <__ltsf2>
    570e:	88 23       	and	r24, r24
    5710:	44 f4       	brge	.+16     	; 0x5722 <APP_LCD_story+0x1b9c>
		__ticks = 1;
    5712:	fe 01       	movw	r30, r28
    5714:	eb 51       	subi	r30, 0x1B	; 27
    5716:	ff 4f       	sbci	r31, 0xFF	; 255
    5718:	81 e0       	ldi	r24, 0x01	; 1
    571a:	90 e0       	ldi	r25, 0x00	; 0
    571c:	91 83       	std	Z+1, r25	; 0x01
    571e:	80 83       	st	Z, r24
    5720:	64 c0       	rjmp	.+200    	; 0x57ea <APP_LCD_story+0x1c64>
	else if (__tmp > 65535)
    5722:	fe 01       	movw	r30, r28
    5724:	e9 51       	subi	r30, 0x19	; 25
    5726:	ff 4f       	sbci	r31, 0xFF	; 255
    5728:	60 81       	ld	r22, Z
    572a:	71 81       	ldd	r23, Z+1	; 0x01
    572c:	82 81       	ldd	r24, Z+2	; 0x02
    572e:	93 81       	ldd	r25, Z+3	; 0x03
    5730:	20 e0       	ldi	r18, 0x00	; 0
    5732:	3f ef       	ldi	r19, 0xFF	; 255
    5734:	4f e7       	ldi	r20, 0x7F	; 127
    5736:	57 e4       	ldi	r21, 0x47	; 71
    5738:	0e 94 c5 03 	call	0x78a	; 0x78a <__gtsf2>
    573c:	18 16       	cp	r1, r24
    573e:	0c f0       	brlt	.+2      	; 0x5742 <APP_LCD_story+0x1bbc>
    5740:	43 c0       	rjmp	.+134    	; 0x57c8 <APP_LCD_story+0x1c42>
	{
		//	__ticks = requested delay in 1/10 ms
		__ticks = (uint16_t) (__ms * 10.0);
    5742:	fe 01       	movw	r30, r28
    5744:	e5 51       	subi	r30, 0x15	; 21
    5746:	ff 4f       	sbci	r31, 0xFF	; 255
    5748:	60 81       	ld	r22, Z
    574a:	71 81       	ldd	r23, Z+1	; 0x01
    574c:	82 81       	ldd	r24, Z+2	; 0x02
    574e:	93 81       	ldd	r25, Z+3	; 0x03
    5750:	20 e0       	ldi	r18, 0x00	; 0
    5752:	30 e0       	ldi	r19, 0x00	; 0
    5754:	40 e2       	ldi	r20, 0x20	; 32
    5756:	51 e4       	ldi	r21, 0x41	; 65
    5758:	0e 94 1f 02 	call	0x43e	; 0x43e <__mulsf3>
    575c:	dc 01       	movw	r26, r24
    575e:	cb 01       	movw	r24, r22
    5760:	8e 01       	movw	r16, r28
    5762:	0b 51       	subi	r16, 0x1B	; 27
    5764:	1f 4f       	sbci	r17, 0xFF	; 255
    5766:	bc 01       	movw	r22, r24
    5768:	cd 01       	movw	r24, r26
    576a:	0e 94 49 00 	call	0x92	; 0x92 <__fixunssfsi>
    576e:	dc 01       	movw	r26, r24
    5770:	cb 01       	movw	r24, r22
    5772:	f8 01       	movw	r30, r16
    5774:	91 83       	std	Z+1, r25	; 0x01
    5776:	80 83       	st	Z, r24
    5778:	1f c0       	rjmp	.+62     	; 0x57b8 <APP_LCD_story+0x1c32>
    577a:	fe 01       	movw	r30, r28
    577c:	ed 51       	subi	r30, 0x1D	; 29
    577e:	ff 4f       	sbci	r31, 0xFF	; 255
    5780:	88 ec       	ldi	r24, 0xC8	; 200
    5782:	90 e0       	ldi	r25, 0x00	; 0
    5784:	91 83       	std	Z+1, r25	; 0x01
    5786:	80 83       	st	Z, r24
    5788:	fe 01       	movw	r30, r28
    578a:	ed 51       	subi	r30, 0x1D	; 29
    578c:	ff 4f       	sbci	r31, 0xFF	; 255
    578e:	80 81       	ld	r24, Z
    5790:	91 81       	ldd	r25, Z+1	; 0x01
    5792:	01 97       	sbiw	r24, 0x01	; 1
    5794:	f1 f7       	brne	.-4      	; 0x5792 <APP_LCD_story+0x1c0c>
    5796:	fe 01       	movw	r30, r28
    5798:	ed 51       	subi	r30, 0x1D	; 29
    579a:	ff 4f       	sbci	r31, 0xFF	; 255
    579c:	91 83       	std	Z+1, r25	; 0x01
    579e:	80 83       	st	Z, r24
		while(__ticks)
		{
			// wait 1/10 ms
			_delay_loop_2(((F_CPU) / 4e3) / 10);
			__ticks --;
    57a0:	de 01       	movw	r26, r28
    57a2:	ab 51       	subi	r26, 0x1B	; 27
    57a4:	bf 4f       	sbci	r27, 0xFF	; 255
    57a6:	fe 01       	movw	r30, r28
    57a8:	eb 51       	subi	r30, 0x1B	; 27
    57aa:	ff 4f       	sbci	r31, 0xFF	; 255
    57ac:	80 81       	ld	r24, Z
    57ae:	91 81       	ldd	r25, Z+1	; 0x01
    57b0:	01 97       	sbiw	r24, 0x01	; 1
    57b2:	11 96       	adiw	r26, 0x01	; 1
    57b4:	9c 93       	st	X, r25
    57b6:	8e 93       	st	-X, r24
		__ticks = 1;
	else if (__tmp > 65535)
	{
		//	__ticks = requested delay in 1/10 ms
		__ticks = (uint16_t) (__ms * 10.0);
		while(__ticks)
    57b8:	fe 01       	movw	r30, r28
    57ba:	eb 51       	subi	r30, 0x1B	; 27
    57bc:	ff 4f       	sbci	r31, 0xFF	; 255
    57be:	80 81       	ld	r24, Z
    57c0:	91 81       	ldd	r25, Z+1	; 0x01
    57c2:	00 97       	sbiw	r24, 0x00	; 0
    57c4:	d1 f6       	brne	.-76     	; 0x577a <APP_LCD_story+0x1bf4>
    57c6:	27 c0       	rjmp	.+78     	; 0x5816 <APP_LCD_story+0x1c90>
			__ticks --;
		}
		return;
	}
	else
		__ticks = (uint16_t)__tmp;
    57c8:	8e 01       	movw	r16, r28
    57ca:	0b 51       	subi	r16, 0x1B	; 27
    57cc:	1f 4f       	sbci	r17, 0xFF	; 255
    57ce:	fe 01       	movw	r30, r28
    57d0:	e9 51       	subi	r30, 0x19	; 25
    57d2:	ff 4f       	sbci	r31, 0xFF	; 255
    57d4:	60 81       	ld	r22, Z
    57d6:	71 81       	ldd	r23, Z+1	; 0x01
    57d8:	82 81       	ldd	r24, Z+2	; 0x02
    57da:	93 81       	ldd	r25, Z+3	; 0x03
    57dc:	0e 94 49 00 	call	0x92	; 0x92 <__fixunssfsi>
    57e0:	dc 01       	movw	r26, r24
    57e2:	cb 01       	movw	r24, r22
    57e4:	f8 01       	movw	r30, r16
    57e6:	91 83       	std	Z+1, r25	; 0x01
    57e8:	80 83       	st	Z, r24
    57ea:	de 01       	movw	r26, r28
    57ec:	af 51       	subi	r26, 0x1F	; 31
    57ee:	bf 4f       	sbci	r27, 0xFF	; 255
    57f0:	fe 01       	movw	r30, r28
    57f2:	eb 51       	subi	r30, 0x1B	; 27
    57f4:	ff 4f       	sbci	r31, 0xFF	; 255
    57f6:	80 81       	ld	r24, Z
    57f8:	91 81       	ldd	r25, Z+1	; 0x01
    57fa:	8d 93       	st	X+, r24
    57fc:	9c 93       	st	X, r25
    57fe:	fe 01       	movw	r30, r28
    5800:	ef 51       	subi	r30, 0x1F	; 31
    5802:	ff 4f       	sbci	r31, 0xFF	; 255
    5804:	80 81       	ld	r24, Z
    5806:	91 81       	ldd	r25, Z+1	; 0x01
    5808:	01 97       	sbiw	r24, 0x01	; 1
    580a:	f1 f7       	brne	.-4      	; 0x5808 <APP_LCD_story+0x1c82>
    580c:	fe 01       	movw	r30, r28
    580e:	ef 51       	subi	r30, 0x1F	; 31
    5810:	ff 4f       	sbci	r31, 0xFF	; 255
    5812:	91 83       	std	Z+1, r25	; 0x01
    5814:	80 83       	st	Z, r24
		_delay_ms(2000);

		APP_LCD_ClearLine1();
    5816:	0e 94 a7 36 	call	0x6d4e	; 0x6d4e <APP_LCD_ClearLine1>
		LCD_void_SendString((u8*)"the camber unlock");
    581a:	87 ec       	ldi	r24, 0xC7	; 199
    581c:	91 e0       	ldi	r25, 0x01	; 1
    581e:	0e 94 88 19 	call	0x3310	; 0x3310 <LCD_void_SendString>
    5822:	fe 01       	movw	r30, r28
    5824:	e3 52       	subi	r30, 0x23	; 35
    5826:	ff 4f       	sbci	r31, 0xFF	; 255
    5828:	80 e0       	ldi	r24, 0x00	; 0
    582a:	90 e0       	ldi	r25, 0x00	; 0
    582c:	aa ef       	ldi	r26, 0xFA	; 250
    582e:	b4 e4       	ldi	r27, 0x44	; 68
    5830:	80 83       	st	Z, r24
    5832:	91 83       	std	Z+1, r25	; 0x01
    5834:	a2 83       	std	Z+2, r26	; 0x02
    5836:	b3 83       	std	Z+3, r27	; 0x03
 */
void
_delay_ms(double __ms)
{
	uint16_t __ticks;
	double __tmp = ((F_CPU) / 4e3) * __ms;
    5838:	8e 01       	movw	r16, r28
    583a:	07 52       	subi	r16, 0x27	; 39
    583c:	1f 4f       	sbci	r17, 0xFF	; 255
    583e:	fe 01       	movw	r30, r28
    5840:	e3 52       	subi	r30, 0x23	; 35
    5842:	ff 4f       	sbci	r31, 0xFF	; 255
    5844:	60 81       	ld	r22, Z
    5846:	71 81       	ldd	r23, Z+1	; 0x01
    5848:	82 81       	ldd	r24, Z+2	; 0x02
    584a:	93 81       	ldd	r25, Z+3	; 0x03
    584c:	20 e0       	ldi	r18, 0x00	; 0
    584e:	30 e0       	ldi	r19, 0x00	; 0
    5850:	4a ef       	ldi	r20, 0xFA	; 250
    5852:	54 e4       	ldi	r21, 0x44	; 68
    5854:	0e 94 1f 02 	call	0x43e	; 0x43e <__mulsf3>
    5858:	dc 01       	movw	r26, r24
    585a:	cb 01       	movw	r24, r22
    585c:	f8 01       	movw	r30, r16
    585e:	80 83       	st	Z, r24
    5860:	91 83       	std	Z+1, r25	; 0x01
    5862:	a2 83       	std	Z+2, r26	; 0x02
    5864:	b3 83       	std	Z+3, r27	; 0x03
	if (__tmp < 1.0)
    5866:	fe 01       	movw	r30, r28
    5868:	e7 52       	subi	r30, 0x27	; 39
    586a:	ff 4f       	sbci	r31, 0xFF	; 255
    586c:	60 81       	ld	r22, Z
    586e:	71 81       	ldd	r23, Z+1	; 0x01
    5870:	82 81       	ldd	r24, Z+2	; 0x02
    5872:	93 81       	ldd	r25, Z+3	; 0x03
    5874:	20 e0       	ldi	r18, 0x00	; 0
    5876:	30 e0       	ldi	r19, 0x00	; 0
    5878:	40 e8       	ldi	r20, 0x80	; 128
    587a:	5f e3       	ldi	r21, 0x3F	; 63
    587c:	0e 94 25 04 	call	0x84a	; 0x84a <__ltsf2>
    5880:	88 23       	and	r24, r24
    5882:	44 f4       	brge	.+16     	; 0x5894 <APP_LCD_story+0x1d0e>
		__ticks = 1;
    5884:	fe 01       	movw	r30, r28
    5886:	e9 52       	subi	r30, 0x29	; 41
    5888:	ff 4f       	sbci	r31, 0xFF	; 255
    588a:	81 e0       	ldi	r24, 0x01	; 1
    588c:	90 e0       	ldi	r25, 0x00	; 0
    588e:	91 83       	std	Z+1, r25	; 0x01
    5890:	80 83       	st	Z, r24
    5892:	64 c0       	rjmp	.+200    	; 0x595c <APP_LCD_story+0x1dd6>
	else if (__tmp > 65535)
    5894:	fe 01       	movw	r30, r28
    5896:	e7 52       	subi	r30, 0x27	; 39
    5898:	ff 4f       	sbci	r31, 0xFF	; 255
    589a:	60 81       	ld	r22, Z
    589c:	71 81       	ldd	r23, Z+1	; 0x01
    589e:	82 81       	ldd	r24, Z+2	; 0x02
    58a0:	93 81       	ldd	r25, Z+3	; 0x03
    58a2:	20 e0       	ldi	r18, 0x00	; 0
    58a4:	3f ef       	ldi	r19, 0xFF	; 255
    58a6:	4f e7       	ldi	r20, 0x7F	; 127
    58a8:	57 e4       	ldi	r21, 0x47	; 71
    58aa:	0e 94 c5 03 	call	0x78a	; 0x78a <__gtsf2>
    58ae:	18 16       	cp	r1, r24
    58b0:	0c f0       	brlt	.+2      	; 0x58b4 <APP_LCD_story+0x1d2e>
    58b2:	43 c0       	rjmp	.+134    	; 0x593a <APP_LCD_story+0x1db4>
	{
		//	__ticks = requested delay in 1/10 ms
		__ticks = (uint16_t) (__ms * 10.0);
    58b4:	fe 01       	movw	r30, r28
    58b6:	e3 52       	subi	r30, 0x23	; 35
    58b8:	ff 4f       	sbci	r31, 0xFF	; 255
    58ba:	60 81       	ld	r22, Z
    58bc:	71 81       	ldd	r23, Z+1	; 0x01
    58be:	82 81       	ldd	r24, Z+2	; 0x02
    58c0:	93 81       	ldd	r25, Z+3	; 0x03
    58c2:	20 e0       	ldi	r18, 0x00	; 0
    58c4:	30 e0       	ldi	r19, 0x00	; 0
    58c6:	40 e2       	ldi	r20, 0x20	; 32
    58c8:	51 e4       	ldi	r21, 0x41	; 65
    58ca:	0e 94 1f 02 	call	0x43e	; 0x43e <__mulsf3>
    58ce:	dc 01       	movw	r26, r24
    58d0:	cb 01       	movw	r24, r22
    58d2:	8e 01       	movw	r16, r28
    58d4:	09 52       	subi	r16, 0x29	; 41
    58d6:	1f 4f       	sbci	r17, 0xFF	; 255
    58d8:	bc 01       	movw	r22, r24
    58da:	cd 01       	movw	r24, r26
    58dc:	0e 94 49 00 	call	0x92	; 0x92 <__fixunssfsi>
    58e0:	dc 01       	movw	r26, r24
    58e2:	cb 01       	movw	r24, r22
    58e4:	f8 01       	movw	r30, r16
    58e6:	91 83       	std	Z+1, r25	; 0x01
    58e8:	80 83       	st	Z, r24
    58ea:	1f c0       	rjmp	.+62     	; 0x592a <APP_LCD_story+0x1da4>
    58ec:	fe 01       	movw	r30, r28
    58ee:	eb 52       	subi	r30, 0x2B	; 43
    58f0:	ff 4f       	sbci	r31, 0xFF	; 255
    58f2:	88 ec       	ldi	r24, 0xC8	; 200
    58f4:	90 e0       	ldi	r25, 0x00	; 0
    58f6:	91 83       	std	Z+1, r25	; 0x01
    58f8:	80 83       	st	Z, r24
    58fa:	fe 01       	movw	r30, r28
    58fc:	eb 52       	subi	r30, 0x2B	; 43
    58fe:	ff 4f       	sbci	r31, 0xFF	; 255
    5900:	80 81       	ld	r24, Z
    5902:	91 81       	ldd	r25, Z+1	; 0x01
    5904:	01 97       	sbiw	r24, 0x01	; 1
    5906:	f1 f7       	brne	.-4      	; 0x5904 <APP_LCD_story+0x1d7e>
    5908:	fe 01       	movw	r30, r28
    590a:	eb 52       	subi	r30, 0x2B	; 43
    590c:	ff 4f       	sbci	r31, 0xFF	; 255
    590e:	91 83       	std	Z+1, r25	; 0x01
    5910:	80 83       	st	Z, r24
		while(__ticks)
		{
			// wait 1/10 ms
			_delay_loop_2(((F_CPU) / 4e3) / 10);
			__ticks --;
    5912:	de 01       	movw	r26, r28
    5914:	a9 52       	subi	r26, 0x29	; 41
    5916:	bf 4f       	sbci	r27, 0xFF	; 255
    5918:	fe 01       	movw	r30, r28
    591a:	e9 52       	subi	r30, 0x29	; 41
    591c:	ff 4f       	sbci	r31, 0xFF	; 255
    591e:	80 81       	ld	r24, Z
    5920:	91 81       	ldd	r25, Z+1	; 0x01
    5922:	01 97       	sbiw	r24, 0x01	; 1
    5924:	11 96       	adiw	r26, 0x01	; 1
    5926:	9c 93       	st	X, r25
    5928:	8e 93       	st	-X, r24
		__ticks = 1;
	else if (__tmp > 65535)
	{
		//	__ticks = requested delay in 1/10 ms
		__ticks = (uint16_t) (__ms * 10.0);
		while(__ticks)
    592a:	fe 01       	movw	r30, r28
    592c:	e9 52       	subi	r30, 0x29	; 41
    592e:	ff 4f       	sbci	r31, 0xFF	; 255
    5930:	80 81       	ld	r24, Z
    5932:	91 81       	ldd	r25, Z+1	; 0x01
    5934:	00 97       	sbiw	r24, 0x00	; 0
    5936:	d1 f6       	brne	.-76     	; 0x58ec <APP_LCD_story+0x1d66>
    5938:	27 c0       	rjmp	.+78     	; 0x5988 <APP_LCD_story+0x1e02>
			__ticks --;
		}
		return;
	}
	else
		__ticks = (uint16_t)__tmp;
    593a:	8e 01       	movw	r16, r28
    593c:	09 52       	subi	r16, 0x29	; 41
    593e:	1f 4f       	sbci	r17, 0xFF	; 255
    5940:	fe 01       	movw	r30, r28
    5942:	e7 52       	subi	r30, 0x27	; 39
    5944:	ff 4f       	sbci	r31, 0xFF	; 255
    5946:	60 81       	ld	r22, Z
    5948:	71 81       	ldd	r23, Z+1	; 0x01
    594a:	82 81       	ldd	r24, Z+2	; 0x02
    594c:	93 81       	ldd	r25, Z+3	; 0x03
    594e:	0e 94 49 00 	call	0x92	; 0x92 <__fixunssfsi>
    5952:	dc 01       	movw	r26, r24
    5954:	cb 01       	movw	r24, r22
    5956:	f8 01       	movw	r30, r16
    5958:	91 83       	std	Z+1, r25	; 0x01
    595a:	80 83       	st	Z, r24
    595c:	de 01       	movw	r26, r28
    595e:	ad 52       	subi	r26, 0x2D	; 45
    5960:	bf 4f       	sbci	r27, 0xFF	; 255
    5962:	fe 01       	movw	r30, r28
    5964:	e9 52       	subi	r30, 0x29	; 41
    5966:	ff 4f       	sbci	r31, 0xFF	; 255
    5968:	80 81       	ld	r24, Z
    596a:	91 81       	ldd	r25, Z+1	; 0x01
    596c:	8d 93       	st	X+, r24
    596e:	9c 93       	st	X, r25
    5970:	fe 01       	movw	r30, r28
    5972:	ed 52       	subi	r30, 0x2D	; 45
    5974:	ff 4f       	sbci	r31, 0xFF	; 255
    5976:	80 81       	ld	r24, Z
    5978:	91 81       	ldd	r25, Z+1	; 0x01
    597a:	01 97       	sbiw	r24, 0x01	; 1
    597c:	f1 f7       	brne	.-4      	; 0x597a <APP_LCD_story+0x1df4>
    597e:	fe 01       	movw	r30, r28
    5980:	ed 52       	subi	r30, 0x2D	; 45
    5982:	ff 4f       	sbci	r31, 0xFF	; 255
    5984:	91 83       	std	Z+1, r25	; 0x01
    5986:	80 83       	st	Z, r24
		_delay_ms(2000);

		APP_LCD_ClearLine1();
    5988:	0e 94 a7 36 	call	0x6d4e	; 0x6d4e <APP_LCD_ClearLine1>
		LCD_void_SendString((u8*)"with sound ");
    598c:	89 ed       	ldi	r24, 0xD9	; 217
    598e:	91 e0       	ldi	r25, 0x01	; 1
    5990:	0e 94 88 19 	call	0x3310	; 0x3310 <LCD_void_SendString>
    5994:	fe 01       	movw	r30, r28
    5996:	e1 53       	subi	r30, 0x31	; 49
    5998:	ff 4f       	sbci	r31, 0xFF	; 255
    599a:	80 e0       	ldi	r24, 0x00	; 0
    599c:	90 e0       	ldi	r25, 0x00	; 0
    599e:	aa ef       	ldi	r26, 0xFA	; 250
    59a0:	b4 e4       	ldi	r27, 0x44	; 68
    59a2:	80 83       	st	Z, r24
    59a4:	91 83       	std	Z+1, r25	; 0x01
    59a6:	a2 83       	std	Z+2, r26	; 0x02
    59a8:	b3 83       	std	Z+3, r27	; 0x03
 */
void
_delay_ms(double __ms)
{
	uint16_t __ticks;
	double __tmp = ((F_CPU) / 4e3) * __ms;
    59aa:	8e 01       	movw	r16, r28
    59ac:	05 53       	subi	r16, 0x35	; 53
    59ae:	1f 4f       	sbci	r17, 0xFF	; 255
    59b0:	fe 01       	movw	r30, r28
    59b2:	e1 53       	subi	r30, 0x31	; 49
    59b4:	ff 4f       	sbci	r31, 0xFF	; 255
    59b6:	60 81       	ld	r22, Z
    59b8:	71 81       	ldd	r23, Z+1	; 0x01
    59ba:	82 81       	ldd	r24, Z+2	; 0x02
    59bc:	93 81       	ldd	r25, Z+3	; 0x03
    59be:	20 e0       	ldi	r18, 0x00	; 0
    59c0:	30 e0       	ldi	r19, 0x00	; 0
    59c2:	4a ef       	ldi	r20, 0xFA	; 250
    59c4:	54 e4       	ldi	r21, 0x44	; 68
    59c6:	0e 94 1f 02 	call	0x43e	; 0x43e <__mulsf3>
    59ca:	dc 01       	movw	r26, r24
    59cc:	cb 01       	movw	r24, r22
    59ce:	f8 01       	movw	r30, r16
    59d0:	80 83       	st	Z, r24
    59d2:	91 83       	std	Z+1, r25	; 0x01
    59d4:	a2 83       	std	Z+2, r26	; 0x02
    59d6:	b3 83       	std	Z+3, r27	; 0x03
	if (__tmp < 1.0)
    59d8:	fe 01       	movw	r30, r28
    59da:	e5 53       	subi	r30, 0x35	; 53
    59dc:	ff 4f       	sbci	r31, 0xFF	; 255
    59de:	60 81       	ld	r22, Z
    59e0:	71 81       	ldd	r23, Z+1	; 0x01
    59e2:	82 81       	ldd	r24, Z+2	; 0x02
    59e4:	93 81       	ldd	r25, Z+3	; 0x03
    59e6:	20 e0       	ldi	r18, 0x00	; 0
    59e8:	30 e0       	ldi	r19, 0x00	; 0
    59ea:	40 e8       	ldi	r20, 0x80	; 128
    59ec:	5f e3       	ldi	r21, 0x3F	; 63
    59ee:	0e 94 25 04 	call	0x84a	; 0x84a <__ltsf2>
    59f2:	88 23       	and	r24, r24
    59f4:	44 f4       	brge	.+16     	; 0x5a06 <APP_LCD_story+0x1e80>
		__ticks = 1;
    59f6:	fe 01       	movw	r30, r28
    59f8:	e7 53       	subi	r30, 0x37	; 55
    59fa:	ff 4f       	sbci	r31, 0xFF	; 255
    59fc:	81 e0       	ldi	r24, 0x01	; 1
    59fe:	90 e0       	ldi	r25, 0x00	; 0
    5a00:	91 83       	std	Z+1, r25	; 0x01
    5a02:	80 83       	st	Z, r24
    5a04:	64 c0       	rjmp	.+200    	; 0x5ace <APP_LCD_story+0x1f48>
	else if (__tmp > 65535)
    5a06:	fe 01       	movw	r30, r28
    5a08:	e5 53       	subi	r30, 0x35	; 53
    5a0a:	ff 4f       	sbci	r31, 0xFF	; 255
    5a0c:	60 81       	ld	r22, Z
    5a0e:	71 81       	ldd	r23, Z+1	; 0x01
    5a10:	82 81       	ldd	r24, Z+2	; 0x02
    5a12:	93 81       	ldd	r25, Z+3	; 0x03
    5a14:	20 e0       	ldi	r18, 0x00	; 0
    5a16:	3f ef       	ldi	r19, 0xFF	; 255
    5a18:	4f e7       	ldi	r20, 0x7F	; 127
    5a1a:	57 e4       	ldi	r21, 0x47	; 71
    5a1c:	0e 94 c5 03 	call	0x78a	; 0x78a <__gtsf2>
    5a20:	18 16       	cp	r1, r24
    5a22:	0c f0       	brlt	.+2      	; 0x5a26 <APP_LCD_story+0x1ea0>
    5a24:	43 c0       	rjmp	.+134    	; 0x5aac <APP_LCD_story+0x1f26>
	{
		//	__ticks = requested delay in 1/10 ms
		__ticks = (uint16_t) (__ms * 10.0);
    5a26:	fe 01       	movw	r30, r28
    5a28:	e1 53       	subi	r30, 0x31	; 49
    5a2a:	ff 4f       	sbci	r31, 0xFF	; 255
    5a2c:	60 81       	ld	r22, Z
    5a2e:	71 81       	ldd	r23, Z+1	; 0x01
    5a30:	82 81       	ldd	r24, Z+2	; 0x02
    5a32:	93 81       	ldd	r25, Z+3	; 0x03
    5a34:	20 e0       	ldi	r18, 0x00	; 0
    5a36:	30 e0       	ldi	r19, 0x00	; 0
    5a38:	40 e2       	ldi	r20, 0x20	; 32
    5a3a:	51 e4       	ldi	r21, 0x41	; 65
    5a3c:	0e 94 1f 02 	call	0x43e	; 0x43e <__mulsf3>
    5a40:	dc 01       	movw	r26, r24
    5a42:	cb 01       	movw	r24, r22
    5a44:	8e 01       	movw	r16, r28
    5a46:	07 53       	subi	r16, 0x37	; 55
    5a48:	1f 4f       	sbci	r17, 0xFF	; 255
    5a4a:	bc 01       	movw	r22, r24
    5a4c:	cd 01       	movw	r24, r26
    5a4e:	0e 94 49 00 	call	0x92	; 0x92 <__fixunssfsi>
    5a52:	dc 01       	movw	r26, r24
    5a54:	cb 01       	movw	r24, r22
    5a56:	f8 01       	movw	r30, r16
    5a58:	91 83       	std	Z+1, r25	; 0x01
    5a5a:	80 83       	st	Z, r24
    5a5c:	1f c0       	rjmp	.+62     	; 0x5a9c <APP_LCD_story+0x1f16>
    5a5e:	fe 01       	movw	r30, r28
    5a60:	e9 53       	subi	r30, 0x39	; 57
    5a62:	ff 4f       	sbci	r31, 0xFF	; 255
    5a64:	88 ec       	ldi	r24, 0xC8	; 200
    5a66:	90 e0       	ldi	r25, 0x00	; 0
    5a68:	91 83       	std	Z+1, r25	; 0x01
    5a6a:	80 83       	st	Z, r24
    5a6c:	fe 01       	movw	r30, r28
    5a6e:	e9 53       	subi	r30, 0x39	; 57
    5a70:	ff 4f       	sbci	r31, 0xFF	; 255
    5a72:	80 81       	ld	r24, Z
    5a74:	91 81       	ldd	r25, Z+1	; 0x01
    5a76:	01 97       	sbiw	r24, 0x01	; 1
    5a78:	f1 f7       	brne	.-4      	; 0x5a76 <APP_LCD_story+0x1ef0>
    5a7a:	fe 01       	movw	r30, r28
    5a7c:	e9 53       	subi	r30, 0x39	; 57
    5a7e:	ff 4f       	sbci	r31, 0xFF	; 255
    5a80:	91 83       	std	Z+1, r25	; 0x01
    5a82:	80 83       	st	Z, r24
		while(__ticks)
		{
			// wait 1/10 ms
			_delay_loop_2(((F_CPU) / 4e3) / 10);
			__ticks --;
    5a84:	de 01       	movw	r26, r28
    5a86:	a7 53       	subi	r26, 0x37	; 55
    5a88:	bf 4f       	sbci	r27, 0xFF	; 255
    5a8a:	fe 01       	movw	r30, r28
    5a8c:	e7 53       	subi	r30, 0x37	; 55
    5a8e:	ff 4f       	sbci	r31, 0xFF	; 255
    5a90:	80 81       	ld	r24, Z
    5a92:	91 81       	ldd	r25, Z+1	; 0x01
    5a94:	01 97       	sbiw	r24, 0x01	; 1
    5a96:	11 96       	adiw	r26, 0x01	; 1
    5a98:	9c 93       	st	X, r25
    5a9a:	8e 93       	st	-X, r24
		__ticks = 1;
	else if (__tmp > 65535)
	{
		//	__ticks = requested delay in 1/10 ms
		__ticks = (uint16_t) (__ms * 10.0);
		while(__ticks)
    5a9c:	fe 01       	movw	r30, r28
    5a9e:	e7 53       	subi	r30, 0x37	; 55
    5aa0:	ff 4f       	sbci	r31, 0xFF	; 255
    5aa2:	80 81       	ld	r24, Z
    5aa4:	91 81       	ldd	r25, Z+1	; 0x01
    5aa6:	00 97       	sbiw	r24, 0x00	; 0
    5aa8:	d1 f6       	brne	.-76     	; 0x5a5e <APP_LCD_story+0x1ed8>
    5aaa:	27 c0       	rjmp	.+78     	; 0x5afa <APP_LCD_story+0x1f74>
			__ticks --;
		}
		return;
	}
	else
		__ticks = (uint16_t)__tmp;
    5aac:	8e 01       	movw	r16, r28
    5aae:	07 53       	subi	r16, 0x37	; 55
    5ab0:	1f 4f       	sbci	r17, 0xFF	; 255
    5ab2:	fe 01       	movw	r30, r28
    5ab4:	e5 53       	subi	r30, 0x35	; 53
    5ab6:	ff 4f       	sbci	r31, 0xFF	; 255
    5ab8:	60 81       	ld	r22, Z
    5aba:	71 81       	ldd	r23, Z+1	; 0x01
    5abc:	82 81       	ldd	r24, Z+2	; 0x02
    5abe:	93 81       	ldd	r25, Z+3	; 0x03
    5ac0:	0e 94 49 00 	call	0x92	; 0x92 <__fixunssfsi>
    5ac4:	dc 01       	movw	r26, r24
    5ac6:	cb 01       	movw	r24, r22
    5ac8:	f8 01       	movw	r30, r16
    5aca:	91 83       	std	Z+1, r25	; 0x01
    5acc:	80 83       	st	Z, r24
    5ace:	de 01       	movw	r26, r28
    5ad0:	ab 53       	subi	r26, 0x3B	; 59
    5ad2:	bf 4f       	sbci	r27, 0xFF	; 255
    5ad4:	fe 01       	movw	r30, r28
    5ad6:	e7 53       	subi	r30, 0x37	; 55
    5ad8:	ff 4f       	sbci	r31, 0xFF	; 255
    5ada:	80 81       	ld	r24, Z
    5adc:	91 81       	ldd	r25, Z+1	; 0x01
    5ade:	8d 93       	st	X+, r24
    5ae0:	9c 93       	st	X, r25
    5ae2:	fe 01       	movw	r30, r28
    5ae4:	eb 53       	subi	r30, 0x3B	; 59
    5ae6:	ff 4f       	sbci	r31, 0xFF	; 255
    5ae8:	80 81       	ld	r24, Z
    5aea:	91 81       	ldd	r25, Z+1	; 0x01
    5aec:	01 97       	sbiw	r24, 0x01	; 1
    5aee:	f1 f7       	brne	.-4      	; 0x5aec <APP_LCD_story+0x1f66>
    5af0:	fe 01       	movw	r30, r28
    5af2:	eb 53       	subi	r30, 0x3B	; 59
    5af4:	ff 4f       	sbci	r31, 0xFF	; 255
    5af6:	91 83       	std	Z+1, r25	; 0x01
    5af8:	80 83       	st	Z, r24
		_delay_ms(2000);

		APP_LCD_ClearLine1();
    5afa:	0e 94 a7 36 	call	0x6d4e	; 0x6d4e <APP_LCD_ClearLine1>
		LCD_void_SendString((u8*)"from the piano");
    5afe:	85 ee       	ldi	r24, 0xE5	; 229
    5b00:	91 e0       	ldi	r25, 0x01	; 1
    5b02:	0e 94 88 19 	call	0x3310	; 0x3310 <LCD_void_SendString>
    5b06:	fe 01       	movw	r30, r28
    5b08:	ef 53       	subi	r30, 0x3F	; 63
    5b0a:	ff 4f       	sbci	r31, 0xFF	; 255
    5b0c:	80 e0       	ldi	r24, 0x00	; 0
    5b0e:	90 e0       	ldi	r25, 0x00	; 0
    5b10:	aa ef       	ldi	r26, 0xFA	; 250
    5b12:	b4 e4       	ldi	r27, 0x44	; 68
    5b14:	80 83       	st	Z, r24
    5b16:	91 83       	std	Z+1, r25	; 0x01
    5b18:	a2 83       	std	Z+2, r26	; 0x02
    5b1a:	b3 83       	std	Z+3, r27	; 0x03
 */
void
_delay_ms(double __ms)
{
	uint16_t __ticks;
	double __tmp = ((F_CPU) / 4e3) * __ms;
    5b1c:	8e 01       	movw	r16, r28
    5b1e:	03 54       	subi	r16, 0x43	; 67
    5b20:	1f 4f       	sbci	r17, 0xFF	; 255
    5b22:	fe 01       	movw	r30, r28
    5b24:	ef 53       	subi	r30, 0x3F	; 63
    5b26:	ff 4f       	sbci	r31, 0xFF	; 255
    5b28:	60 81       	ld	r22, Z
    5b2a:	71 81       	ldd	r23, Z+1	; 0x01
    5b2c:	82 81       	ldd	r24, Z+2	; 0x02
    5b2e:	93 81       	ldd	r25, Z+3	; 0x03
    5b30:	20 e0       	ldi	r18, 0x00	; 0
    5b32:	30 e0       	ldi	r19, 0x00	; 0
    5b34:	4a ef       	ldi	r20, 0xFA	; 250
    5b36:	54 e4       	ldi	r21, 0x44	; 68
    5b38:	0e 94 1f 02 	call	0x43e	; 0x43e <__mulsf3>
    5b3c:	dc 01       	movw	r26, r24
    5b3e:	cb 01       	movw	r24, r22
    5b40:	f8 01       	movw	r30, r16
    5b42:	80 83       	st	Z, r24
    5b44:	91 83       	std	Z+1, r25	; 0x01
    5b46:	a2 83       	std	Z+2, r26	; 0x02
    5b48:	b3 83       	std	Z+3, r27	; 0x03
	if (__tmp < 1.0)
    5b4a:	fe 01       	movw	r30, r28
    5b4c:	e3 54       	subi	r30, 0x43	; 67
    5b4e:	ff 4f       	sbci	r31, 0xFF	; 255
    5b50:	60 81       	ld	r22, Z
    5b52:	71 81       	ldd	r23, Z+1	; 0x01
    5b54:	82 81       	ldd	r24, Z+2	; 0x02
    5b56:	93 81       	ldd	r25, Z+3	; 0x03
    5b58:	20 e0       	ldi	r18, 0x00	; 0
    5b5a:	30 e0       	ldi	r19, 0x00	; 0
    5b5c:	40 e8       	ldi	r20, 0x80	; 128
    5b5e:	5f e3       	ldi	r21, 0x3F	; 63
    5b60:	0e 94 25 04 	call	0x84a	; 0x84a <__ltsf2>
    5b64:	88 23       	and	r24, r24
    5b66:	44 f4       	brge	.+16     	; 0x5b78 <APP_LCD_story+0x1ff2>
		__ticks = 1;
    5b68:	fe 01       	movw	r30, r28
    5b6a:	e5 54       	subi	r30, 0x45	; 69
    5b6c:	ff 4f       	sbci	r31, 0xFF	; 255
    5b6e:	81 e0       	ldi	r24, 0x01	; 1
    5b70:	90 e0       	ldi	r25, 0x00	; 0
    5b72:	91 83       	std	Z+1, r25	; 0x01
    5b74:	80 83       	st	Z, r24
    5b76:	64 c0       	rjmp	.+200    	; 0x5c40 <APP_LCD_story+0x20ba>
	else if (__tmp > 65535)
    5b78:	fe 01       	movw	r30, r28
    5b7a:	e3 54       	subi	r30, 0x43	; 67
    5b7c:	ff 4f       	sbci	r31, 0xFF	; 255
    5b7e:	60 81       	ld	r22, Z
    5b80:	71 81       	ldd	r23, Z+1	; 0x01
    5b82:	82 81       	ldd	r24, Z+2	; 0x02
    5b84:	93 81       	ldd	r25, Z+3	; 0x03
    5b86:	20 e0       	ldi	r18, 0x00	; 0
    5b88:	3f ef       	ldi	r19, 0xFF	; 255
    5b8a:	4f e7       	ldi	r20, 0x7F	; 127
    5b8c:	57 e4       	ldi	r21, 0x47	; 71
    5b8e:	0e 94 c5 03 	call	0x78a	; 0x78a <__gtsf2>
    5b92:	18 16       	cp	r1, r24
    5b94:	0c f0       	brlt	.+2      	; 0x5b98 <APP_LCD_story+0x2012>
    5b96:	43 c0       	rjmp	.+134    	; 0x5c1e <APP_LCD_story+0x2098>
	{
		//	__ticks = requested delay in 1/10 ms
		__ticks = (uint16_t) (__ms * 10.0);
    5b98:	fe 01       	movw	r30, r28
    5b9a:	ef 53       	subi	r30, 0x3F	; 63
    5b9c:	ff 4f       	sbci	r31, 0xFF	; 255
    5b9e:	60 81       	ld	r22, Z
    5ba0:	71 81       	ldd	r23, Z+1	; 0x01
    5ba2:	82 81       	ldd	r24, Z+2	; 0x02
    5ba4:	93 81       	ldd	r25, Z+3	; 0x03
    5ba6:	20 e0       	ldi	r18, 0x00	; 0
    5ba8:	30 e0       	ldi	r19, 0x00	; 0
    5baa:	40 e2       	ldi	r20, 0x20	; 32
    5bac:	51 e4       	ldi	r21, 0x41	; 65
    5bae:	0e 94 1f 02 	call	0x43e	; 0x43e <__mulsf3>
    5bb2:	dc 01       	movw	r26, r24
    5bb4:	cb 01       	movw	r24, r22
    5bb6:	8e 01       	movw	r16, r28
    5bb8:	05 54       	subi	r16, 0x45	; 69
    5bba:	1f 4f       	sbci	r17, 0xFF	; 255
    5bbc:	bc 01       	movw	r22, r24
    5bbe:	cd 01       	movw	r24, r26
    5bc0:	0e 94 49 00 	call	0x92	; 0x92 <__fixunssfsi>
    5bc4:	dc 01       	movw	r26, r24
    5bc6:	cb 01       	movw	r24, r22
    5bc8:	f8 01       	movw	r30, r16
    5bca:	91 83       	std	Z+1, r25	; 0x01
    5bcc:	80 83       	st	Z, r24
    5bce:	1f c0       	rjmp	.+62     	; 0x5c0e <APP_LCD_story+0x2088>
    5bd0:	fe 01       	movw	r30, r28
    5bd2:	e7 54       	subi	r30, 0x47	; 71
    5bd4:	ff 4f       	sbci	r31, 0xFF	; 255
    5bd6:	88 ec       	ldi	r24, 0xC8	; 200
    5bd8:	90 e0       	ldi	r25, 0x00	; 0
    5bda:	91 83       	std	Z+1, r25	; 0x01
    5bdc:	80 83       	st	Z, r24
    5bde:	fe 01       	movw	r30, r28
    5be0:	e7 54       	subi	r30, 0x47	; 71
    5be2:	ff 4f       	sbci	r31, 0xFF	; 255
    5be4:	80 81       	ld	r24, Z
    5be6:	91 81       	ldd	r25, Z+1	; 0x01
    5be8:	01 97       	sbiw	r24, 0x01	; 1
    5bea:	f1 f7       	brne	.-4      	; 0x5be8 <APP_LCD_story+0x2062>
    5bec:	fe 01       	movw	r30, r28
    5bee:	e7 54       	subi	r30, 0x47	; 71
    5bf0:	ff 4f       	sbci	r31, 0xFF	; 255
    5bf2:	91 83       	std	Z+1, r25	; 0x01
    5bf4:	80 83       	st	Z, r24
		while(__ticks)
		{
			// wait 1/10 ms
			_delay_loop_2(((F_CPU) / 4e3) / 10);
			__ticks --;
    5bf6:	de 01       	movw	r26, r28
    5bf8:	a5 54       	subi	r26, 0x45	; 69
    5bfa:	bf 4f       	sbci	r27, 0xFF	; 255
    5bfc:	fe 01       	movw	r30, r28
    5bfe:	e5 54       	subi	r30, 0x45	; 69
    5c00:	ff 4f       	sbci	r31, 0xFF	; 255
    5c02:	80 81       	ld	r24, Z
    5c04:	91 81       	ldd	r25, Z+1	; 0x01
    5c06:	01 97       	sbiw	r24, 0x01	; 1
    5c08:	11 96       	adiw	r26, 0x01	; 1
    5c0a:	9c 93       	st	X, r25
    5c0c:	8e 93       	st	-X, r24
		__ticks = 1;
	else if (__tmp > 65535)
	{
		//	__ticks = requested delay in 1/10 ms
		__ticks = (uint16_t) (__ms * 10.0);
		while(__ticks)
    5c0e:	fe 01       	movw	r30, r28
    5c10:	e5 54       	subi	r30, 0x45	; 69
    5c12:	ff 4f       	sbci	r31, 0xFF	; 255
    5c14:	80 81       	ld	r24, Z
    5c16:	91 81       	ldd	r25, Z+1	; 0x01
    5c18:	00 97       	sbiw	r24, 0x00	; 0
    5c1a:	d1 f6       	brne	.-76     	; 0x5bd0 <APP_LCD_story+0x204a>
    5c1c:	27 c0       	rjmp	.+78     	; 0x5c6c <APP_LCD_story+0x20e6>
			__ticks --;
		}
		return;
	}
	else
		__ticks = (uint16_t)__tmp;
    5c1e:	8e 01       	movw	r16, r28
    5c20:	05 54       	subi	r16, 0x45	; 69
    5c22:	1f 4f       	sbci	r17, 0xFF	; 255
    5c24:	fe 01       	movw	r30, r28
    5c26:	e3 54       	subi	r30, 0x43	; 67
    5c28:	ff 4f       	sbci	r31, 0xFF	; 255
    5c2a:	60 81       	ld	r22, Z
    5c2c:	71 81       	ldd	r23, Z+1	; 0x01
    5c2e:	82 81       	ldd	r24, Z+2	; 0x02
    5c30:	93 81       	ldd	r25, Z+3	; 0x03
    5c32:	0e 94 49 00 	call	0x92	; 0x92 <__fixunssfsi>
    5c36:	dc 01       	movw	r26, r24
    5c38:	cb 01       	movw	r24, r22
    5c3a:	f8 01       	movw	r30, r16
    5c3c:	91 83       	std	Z+1, r25	; 0x01
    5c3e:	80 83       	st	Z, r24
    5c40:	de 01       	movw	r26, r28
    5c42:	a9 54       	subi	r26, 0x49	; 73
    5c44:	bf 4f       	sbci	r27, 0xFF	; 255
    5c46:	fe 01       	movw	r30, r28
    5c48:	e5 54       	subi	r30, 0x45	; 69
    5c4a:	ff 4f       	sbci	r31, 0xFF	; 255
    5c4c:	80 81       	ld	r24, Z
    5c4e:	91 81       	ldd	r25, Z+1	; 0x01
    5c50:	8d 93       	st	X+, r24
    5c52:	9c 93       	st	X, r25
    5c54:	fe 01       	movw	r30, r28
    5c56:	e9 54       	subi	r30, 0x49	; 73
    5c58:	ff 4f       	sbci	r31, 0xFF	; 255
    5c5a:	80 81       	ld	r24, Z
    5c5c:	91 81       	ldd	r25, Z+1	; 0x01
    5c5e:	01 97       	sbiw	r24, 0x01	; 1
    5c60:	f1 f7       	brne	.-4      	; 0x5c5e <APP_LCD_story+0x20d8>
    5c62:	fe 01       	movw	r30, r28
    5c64:	e9 54       	subi	r30, 0x49	; 73
    5c66:	ff 4f       	sbci	r31, 0xFF	; 255
    5c68:	91 83       	std	Z+1, r25	; 0x01
    5c6a:	80 83       	st	Z, r24
		_delay_ms(2000);

		APP_LCD_ClearLine1();
    5c6c:	0e 94 a7 36 	call	0x6d4e	; 0x6d4e <APP_LCD_ClearLine1>
		LCD_void_SendString((u8*)"play the patern!");
    5c70:	84 ef       	ldi	r24, 0xF4	; 244
    5c72:	91 e0       	ldi	r25, 0x01	; 1
    5c74:	0e 94 88 19 	call	0x3310	; 0x3310 <LCD_void_SendString>
    5c78:	fe 01       	movw	r30, r28
    5c7a:	ed 54       	subi	r30, 0x4D	; 77
    5c7c:	ff 4f       	sbci	r31, 0xFF	; 255
    5c7e:	80 e0       	ldi	r24, 0x00	; 0
    5c80:	90 e0       	ldi	r25, 0x00	; 0
    5c82:	aa ef       	ldi	r26, 0xFA	; 250
    5c84:	b4 e4       	ldi	r27, 0x44	; 68
    5c86:	80 83       	st	Z, r24
    5c88:	91 83       	std	Z+1, r25	; 0x01
    5c8a:	a2 83       	std	Z+2, r26	; 0x02
    5c8c:	b3 83       	std	Z+3, r27	; 0x03
 */
void
_delay_ms(double __ms)
{
	uint16_t __ticks;
	double __tmp = ((F_CPU) / 4e3) * __ms;
    5c8e:	8e 01       	movw	r16, r28
    5c90:	01 55       	subi	r16, 0x51	; 81
    5c92:	1f 4f       	sbci	r17, 0xFF	; 255
    5c94:	fe 01       	movw	r30, r28
    5c96:	ed 54       	subi	r30, 0x4D	; 77
    5c98:	ff 4f       	sbci	r31, 0xFF	; 255
    5c9a:	60 81       	ld	r22, Z
    5c9c:	71 81       	ldd	r23, Z+1	; 0x01
    5c9e:	82 81       	ldd	r24, Z+2	; 0x02
    5ca0:	93 81       	ldd	r25, Z+3	; 0x03
    5ca2:	20 e0       	ldi	r18, 0x00	; 0
    5ca4:	30 e0       	ldi	r19, 0x00	; 0
    5ca6:	4a ef       	ldi	r20, 0xFA	; 250
    5ca8:	54 e4       	ldi	r21, 0x44	; 68
    5caa:	0e 94 1f 02 	call	0x43e	; 0x43e <__mulsf3>
    5cae:	dc 01       	movw	r26, r24
    5cb0:	cb 01       	movw	r24, r22
    5cb2:	f8 01       	movw	r30, r16
    5cb4:	80 83       	st	Z, r24
    5cb6:	91 83       	std	Z+1, r25	; 0x01
    5cb8:	a2 83       	std	Z+2, r26	; 0x02
    5cba:	b3 83       	std	Z+3, r27	; 0x03
	if (__tmp < 1.0)
    5cbc:	fe 01       	movw	r30, r28
    5cbe:	e1 55       	subi	r30, 0x51	; 81
    5cc0:	ff 4f       	sbci	r31, 0xFF	; 255
    5cc2:	60 81       	ld	r22, Z
    5cc4:	71 81       	ldd	r23, Z+1	; 0x01
    5cc6:	82 81       	ldd	r24, Z+2	; 0x02
    5cc8:	93 81       	ldd	r25, Z+3	; 0x03
    5cca:	20 e0       	ldi	r18, 0x00	; 0
    5ccc:	30 e0       	ldi	r19, 0x00	; 0
    5cce:	40 e8       	ldi	r20, 0x80	; 128
    5cd0:	5f e3       	ldi	r21, 0x3F	; 63
    5cd2:	0e 94 25 04 	call	0x84a	; 0x84a <__ltsf2>
    5cd6:	88 23       	and	r24, r24
    5cd8:	44 f4       	brge	.+16     	; 0x5cea <APP_LCD_story+0x2164>
		__ticks = 1;
    5cda:	fe 01       	movw	r30, r28
    5cdc:	e3 55       	subi	r30, 0x53	; 83
    5cde:	ff 4f       	sbci	r31, 0xFF	; 255
    5ce0:	81 e0       	ldi	r24, 0x01	; 1
    5ce2:	90 e0       	ldi	r25, 0x00	; 0
    5ce4:	91 83       	std	Z+1, r25	; 0x01
    5ce6:	80 83       	st	Z, r24
    5ce8:	64 c0       	rjmp	.+200    	; 0x5db2 <APP_LCD_story+0x222c>
	else if (__tmp > 65535)
    5cea:	fe 01       	movw	r30, r28
    5cec:	e1 55       	subi	r30, 0x51	; 81
    5cee:	ff 4f       	sbci	r31, 0xFF	; 255
    5cf0:	60 81       	ld	r22, Z
    5cf2:	71 81       	ldd	r23, Z+1	; 0x01
    5cf4:	82 81       	ldd	r24, Z+2	; 0x02
    5cf6:	93 81       	ldd	r25, Z+3	; 0x03
    5cf8:	20 e0       	ldi	r18, 0x00	; 0
    5cfa:	3f ef       	ldi	r19, 0xFF	; 255
    5cfc:	4f e7       	ldi	r20, 0x7F	; 127
    5cfe:	57 e4       	ldi	r21, 0x47	; 71
    5d00:	0e 94 c5 03 	call	0x78a	; 0x78a <__gtsf2>
    5d04:	18 16       	cp	r1, r24
    5d06:	0c f0       	brlt	.+2      	; 0x5d0a <APP_LCD_story+0x2184>
    5d08:	43 c0       	rjmp	.+134    	; 0x5d90 <APP_LCD_story+0x220a>
	{
		//	__ticks = requested delay in 1/10 ms
		__ticks = (uint16_t) (__ms * 10.0);
    5d0a:	fe 01       	movw	r30, r28
    5d0c:	ed 54       	subi	r30, 0x4D	; 77
    5d0e:	ff 4f       	sbci	r31, 0xFF	; 255
    5d10:	60 81       	ld	r22, Z
    5d12:	71 81       	ldd	r23, Z+1	; 0x01
    5d14:	82 81       	ldd	r24, Z+2	; 0x02
    5d16:	93 81       	ldd	r25, Z+3	; 0x03
    5d18:	20 e0       	ldi	r18, 0x00	; 0
    5d1a:	30 e0       	ldi	r19, 0x00	; 0
    5d1c:	40 e2       	ldi	r20, 0x20	; 32
    5d1e:	51 e4       	ldi	r21, 0x41	; 65
    5d20:	0e 94 1f 02 	call	0x43e	; 0x43e <__mulsf3>
    5d24:	dc 01       	movw	r26, r24
    5d26:	cb 01       	movw	r24, r22
    5d28:	8e 01       	movw	r16, r28
    5d2a:	03 55       	subi	r16, 0x53	; 83
    5d2c:	1f 4f       	sbci	r17, 0xFF	; 255
    5d2e:	bc 01       	movw	r22, r24
    5d30:	cd 01       	movw	r24, r26
    5d32:	0e 94 49 00 	call	0x92	; 0x92 <__fixunssfsi>
    5d36:	dc 01       	movw	r26, r24
    5d38:	cb 01       	movw	r24, r22
    5d3a:	f8 01       	movw	r30, r16
    5d3c:	91 83       	std	Z+1, r25	; 0x01
    5d3e:	80 83       	st	Z, r24
    5d40:	1f c0       	rjmp	.+62     	; 0x5d80 <APP_LCD_story+0x21fa>
    5d42:	fe 01       	movw	r30, r28
    5d44:	e5 55       	subi	r30, 0x55	; 85
    5d46:	ff 4f       	sbci	r31, 0xFF	; 255
    5d48:	88 ec       	ldi	r24, 0xC8	; 200
    5d4a:	90 e0       	ldi	r25, 0x00	; 0
    5d4c:	91 83       	std	Z+1, r25	; 0x01
    5d4e:	80 83       	st	Z, r24
    5d50:	fe 01       	movw	r30, r28
    5d52:	e5 55       	subi	r30, 0x55	; 85
    5d54:	ff 4f       	sbci	r31, 0xFF	; 255
    5d56:	80 81       	ld	r24, Z
    5d58:	91 81       	ldd	r25, Z+1	; 0x01
    5d5a:	01 97       	sbiw	r24, 0x01	; 1
    5d5c:	f1 f7       	brne	.-4      	; 0x5d5a <APP_LCD_story+0x21d4>
    5d5e:	fe 01       	movw	r30, r28
    5d60:	e5 55       	subi	r30, 0x55	; 85
    5d62:	ff 4f       	sbci	r31, 0xFF	; 255
    5d64:	91 83       	std	Z+1, r25	; 0x01
    5d66:	80 83       	st	Z, r24
		while(__ticks)
		{
			// wait 1/10 ms
			_delay_loop_2(((F_CPU) / 4e3) / 10);
			__ticks --;
    5d68:	de 01       	movw	r26, r28
    5d6a:	a3 55       	subi	r26, 0x53	; 83
    5d6c:	bf 4f       	sbci	r27, 0xFF	; 255
    5d6e:	fe 01       	movw	r30, r28
    5d70:	e3 55       	subi	r30, 0x53	; 83
    5d72:	ff 4f       	sbci	r31, 0xFF	; 255
    5d74:	80 81       	ld	r24, Z
    5d76:	91 81       	ldd	r25, Z+1	; 0x01
    5d78:	01 97       	sbiw	r24, 0x01	; 1
    5d7a:	11 96       	adiw	r26, 0x01	; 1
    5d7c:	9c 93       	st	X, r25
    5d7e:	8e 93       	st	-X, r24
		__ticks = 1;
	else if (__tmp > 65535)
	{
		//	__ticks = requested delay in 1/10 ms
		__ticks = (uint16_t) (__ms * 10.0);
		while(__ticks)
    5d80:	fe 01       	movw	r30, r28
    5d82:	e3 55       	subi	r30, 0x53	; 83
    5d84:	ff 4f       	sbci	r31, 0xFF	; 255
    5d86:	80 81       	ld	r24, Z
    5d88:	91 81       	ldd	r25, Z+1	; 0x01
    5d8a:	00 97       	sbiw	r24, 0x00	; 0
    5d8c:	d1 f6       	brne	.-76     	; 0x5d42 <APP_LCD_story+0x21bc>
    5d8e:	27 c0       	rjmp	.+78     	; 0x5dde <APP_LCD_story+0x2258>
			__ticks --;
		}
		return;
	}
	else
		__ticks = (uint16_t)__tmp;
    5d90:	8e 01       	movw	r16, r28
    5d92:	03 55       	subi	r16, 0x53	; 83
    5d94:	1f 4f       	sbci	r17, 0xFF	; 255
    5d96:	fe 01       	movw	r30, r28
    5d98:	e1 55       	subi	r30, 0x51	; 81
    5d9a:	ff 4f       	sbci	r31, 0xFF	; 255
    5d9c:	60 81       	ld	r22, Z
    5d9e:	71 81       	ldd	r23, Z+1	; 0x01
    5da0:	82 81       	ldd	r24, Z+2	; 0x02
    5da2:	93 81       	ldd	r25, Z+3	; 0x03
    5da4:	0e 94 49 00 	call	0x92	; 0x92 <__fixunssfsi>
    5da8:	dc 01       	movw	r26, r24
    5daa:	cb 01       	movw	r24, r22
    5dac:	f8 01       	movw	r30, r16
    5dae:	91 83       	std	Z+1, r25	; 0x01
    5db0:	80 83       	st	Z, r24
    5db2:	de 01       	movw	r26, r28
    5db4:	a7 55       	subi	r26, 0x57	; 87
    5db6:	bf 4f       	sbci	r27, 0xFF	; 255
    5db8:	fe 01       	movw	r30, r28
    5dba:	e3 55       	subi	r30, 0x53	; 83
    5dbc:	ff 4f       	sbci	r31, 0xFF	; 255
    5dbe:	80 81       	ld	r24, Z
    5dc0:	91 81       	ldd	r25, Z+1	; 0x01
    5dc2:	8d 93       	st	X+, r24
    5dc4:	9c 93       	st	X, r25
    5dc6:	fe 01       	movw	r30, r28
    5dc8:	e7 55       	subi	r30, 0x57	; 87
    5dca:	ff 4f       	sbci	r31, 0xFF	; 255
    5dcc:	80 81       	ld	r24, Z
    5dce:	91 81       	ldd	r25, Z+1	; 0x01
    5dd0:	01 97       	sbiw	r24, 0x01	; 1
    5dd2:	f1 f7       	brne	.-4      	; 0x5dd0 <APP_LCD_story+0x224a>
    5dd4:	fe 01       	movw	r30, r28
    5dd6:	e7 55       	subi	r30, 0x57	; 87
    5dd8:	ff 4f       	sbci	r31, 0xFF	; 255
    5dda:	91 83       	std	Z+1, r25	; 0x01
    5ddc:	80 83       	st	Z, r24
		_delay_ms(2000);

		APP_play_tune(100);
    5dde:	84 e6       	ldi	r24, 0x64	; 100
    5de0:	0e 94 ff 3a 	call	0x75fe	; 0x75fe <APP_play_tune>
		APP_LCD_Draw_bar(40);
    5de4:	88 e2       	ldi	r24, 0x28	; 40
    5de6:	0e 94 b5 38 	call	0x716a	; 0x716a <APP_LCD_Draw_bar>
    5dea:	fe 01       	movw	r30, r28
    5dec:	eb 55       	subi	r30, 0x5B	; 91
    5dee:	ff 4f       	sbci	r31, 0xFF	; 255
    5df0:	80 e0       	ldi	r24, 0x00	; 0
    5df2:	90 e0       	ldi	r25, 0x00	; 0
    5df4:	aa ef       	ldi	r26, 0xFA	; 250
    5df6:	b4 e4       	ldi	r27, 0x44	; 68
    5df8:	80 83       	st	Z, r24
    5dfa:	91 83       	std	Z+1, r25	; 0x01
    5dfc:	a2 83       	std	Z+2, r26	; 0x02
    5dfe:	b3 83       	std	Z+3, r27	; 0x03
 */
void
_delay_ms(double __ms)
{
	uint16_t __ticks;
	double __tmp = ((F_CPU) / 4e3) * __ms;
    5e00:	8e 01       	movw	r16, r28
    5e02:	0f 55       	subi	r16, 0x5F	; 95
    5e04:	1f 4f       	sbci	r17, 0xFF	; 255
    5e06:	fe 01       	movw	r30, r28
    5e08:	eb 55       	subi	r30, 0x5B	; 91
    5e0a:	ff 4f       	sbci	r31, 0xFF	; 255
    5e0c:	60 81       	ld	r22, Z
    5e0e:	71 81       	ldd	r23, Z+1	; 0x01
    5e10:	82 81       	ldd	r24, Z+2	; 0x02
    5e12:	93 81       	ldd	r25, Z+3	; 0x03
    5e14:	20 e0       	ldi	r18, 0x00	; 0
    5e16:	30 e0       	ldi	r19, 0x00	; 0
    5e18:	4a ef       	ldi	r20, 0xFA	; 250
    5e1a:	54 e4       	ldi	r21, 0x44	; 68
    5e1c:	0e 94 1f 02 	call	0x43e	; 0x43e <__mulsf3>
    5e20:	dc 01       	movw	r26, r24
    5e22:	cb 01       	movw	r24, r22
    5e24:	f8 01       	movw	r30, r16
    5e26:	80 83       	st	Z, r24
    5e28:	91 83       	std	Z+1, r25	; 0x01
    5e2a:	a2 83       	std	Z+2, r26	; 0x02
    5e2c:	b3 83       	std	Z+3, r27	; 0x03
	if (__tmp < 1.0)
    5e2e:	fe 01       	movw	r30, r28
    5e30:	ef 55       	subi	r30, 0x5F	; 95
    5e32:	ff 4f       	sbci	r31, 0xFF	; 255
    5e34:	60 81       	ld	r22, Z
    5e36:	71 81       	ldd	r23, Z+1	; 0x01
    5e38:	82 81       	ldd	r24, Z+2	; 0x02
    5e3a:	93 81       	ldd	r25, Z+3	; 0x03
    5e3c:	20 e0       	ldi	r18, 0x00	; 0
    5e3e:	30 e0       	ldi	r19, 0x00	; 0
    5e40:	40 e8       	ldi	r20, 0x80	; 128
    5e42:	5f e3       	ldi	r21, 0x3F	; 63
    5e44:	0e 94 25 04 	call	0x84a	; 0x84a <__ltsf2>
    5e48:	88 23       	and	r24, r24
    5e4a:	44 f4       	brge	.+16     	; 0x5e5c <APP_LCD_story+0x22d6>
		__ticks = 1;
    5e4c:	fe 01       	movw	r30, r28
    5e4e:	e1 56       	subi	r30, 0x61	; 97
    5e50:	ff 4f       	sbci	r31, 0xFF	; 255
    5e52:	81 e0       	ldi	r24, 0x01	; 1
    5e54:	90 e0       	ldi	r25, 0x00	; 0
    5e56:	91 83       	std	Z+1, r25	; 0x01
    5e58:	80 83       	st	Z, r24
    5e5a:	64 c0       	rjmp	.+200    	; 0x5f24 <APP_LCD_story+0x239e>
	else if (__tmp > 65535)
    5e5c:	fe 01       	movw	r30, r28
    5e5e:	ef 55       	subi	r30, 0x5F	; 95
    5e60:	ff 4f       	sbci	r31, 0xFF	; 255
    5e62:	60 81       	ld	r22, Z
    5e64:	71 81       	ldd	r23, Z+1	; 0x01
    5e66:	82 81       	ldd	r24, Z+2	; 0x02
    5e68:	93 81       	ldd	r25, Z+3	; 0x03
    5e6a:	20 e0       	ldi	r18, 0x00	; 0
    5e6c:	3f ef       	ldi	r19, 0xFF	; 255
    5e6e:	4f e7       	ldi	r20, 0x7F	; 127
    5e70:	57 e4       	ldi	r21, 0x47	; 71
    5e72:	0e 94 c5 03 	call	0x78a	; 0x78a <__gtsf2>
    5e76:	18 16       	cp	r1, r24
    5e78:	0c f0       	brlt	.+2      	; 0x5e7c <APP_LCD_story+0x22f6>
    5e7a:	43 c0       	rjmp	.+134    	; 0x5f02 <APP_LCD_story+0x237c>
	{
		//	__ticks = requested delay in 1/10 ms
		__ticks = (uint16_t) (__ms * 10.0);
    5e7c:	fe 01       	movw	r30, r28
    5e7e:	eb 55       	subi	r30, 0x5B	; 91
    5e80:	ff 4f       	sbci	r31, 0xFF	; 255
    5e82:	60 81       	ld	r22, Z
    5e84:	71 81       	ldd	r23, Z+1	; 0x01
    5e86:	82 81       	ldd	r24, Z+2	; 0x02
    5e88:	93 81       	ldd	r25, Z+3	; 0x03
    5e8a:	20 e0       	ldi	r18, 0x00	; 0
    5e8c:	30 e0       	ldi	r19, 0x00	; 0
    5e8e:	40 e2       	ldi	r20, 0x20	; 32
    5e90:	51 e4       	ldi	r21, 0x41	; 65
    5e92:	0e 94 1f 02 	call	0x43e	; 0x43e <__mulsf3>
    5e96:	dc 01       	movw	r26, r24
    5e98:	cb 01       	movw	r24, r22
    5e9a:	8e 01       	movw	r16, r28
    5e9c:	01 56       	subi	r16, 0x61	; 97
    5e9e:	1f 4f       	sbci	r17, 0xFF	; 255
    5ea0:	bc 01       	movw	r22, r24
    5ea2:	cd 01       	movw	r24, r26
    5ea4:	0e 94 49 00 	call	0x92	; 0x92 <__fixunssfsi>
    5ea8:	dc 01       	movw	r26, r24
    5eaa:	cb 01       	movw	r24, r22
    5eac:	f8 01       	movw	r30, r16
    5eae:	91 83       	std	Z+1, r25	; 0x01
    5eb0:	80 83       	st	Z, r24
    5eb2:	1f c0       	rjmp	.+62     	; 0x5ef2 <APP_LCD_story+0x236c>
    5eb4:	fe 01       	movw	r30, r28
    5eb6:	e3 56       	subi	r30, 0x63	; 99
    5eb8:	ff 4f       	sbci	r31, 0xFF	; 255
    5eba:	88 ec       	ldi	r24, 0xC8	; 200
    5ebc:	90 e0       	ldi	r25, 0x00	; 0
    5ebe:	91 83       	std	Z+1, r25	; 0x01
    5ec0:	80 83       	st	Z, r24
    5ec2:	fe 01       	movw	r30, r28
    5ec4:	e3 56       	subi	r30, 0x63	; 99
    5ec6:	ff 4f       	sbci	r31, 0xFF	; 255
    5ec8:	80 81       	ld	r24, Z
    5eca:	91 81       	ldd	r25, Z+1	; 0x01
    5ecc:	01 97       	sbiw	r24, 0x01	; 1
    5ece:	f1 f7       	brne	.-4      	; 0x5ecc <APP_LCD_story+0x2346>
    5ed0:	fe 01       	movw	r30, r28
    5ed2:	e3 56       	subi	r30, 0x63	; 99
    5ed4:	ff 4f       	sbci	r31, 0xFF	; 255
    5ed6:	91 83       	std	Z+1, r25	; 0x01
    5ed8:	80 83       	st	Z, r24
		while(__ticks)
		{
			// wait 1/10 ms
			_delay_loop_2(((F_CPU) / 4e3) / 10);
			__ticks --;
    5eda:	de 01       	movw	r26, r28
    5edc:	a1 56       	subi	r26, 0x61	; 97
    5ede:	bf 4f       	sbci	r27, 0xFF	; 255
    5ee0:	fe 01       	movw	r30, r28
    5ee2:	e1 56       	subi	r30, 0x61	; 97
    5ee4:	ff 4f       	sbci	r31, 0xFF	; 255
    5ee6:	80 81       	ld	r24, Z
    5ee8:	91 81       	ldd	r25, Z+1	; 0x01
    5eea:	01 97       	sbiw	r24, 0x01	; 1
    5eec:	11 96       	adiw	r26, 0x01	; 1
    5eee:	9c 93       	st	X, r25
    5ef0:	8e 93       	st	-X, r24
		__ticks = 1;
	else if (__tmp > 65535)
	{
		//	__ticks = requested delay in 1/10 ms
		__ticks = (uint16_t) (__ms * 10.0);
		while(__ticks)
    5ef2:	fe 01       	movw	r30, r28
    5ef4:	e1 56       	subi	r30, 0x61	; 97
    5ef6:	ff 4f       	sbci	r31, 0xFF	; 255
    5ef8:	80 81       	ld	r24, Z
    5efa:	91 81       	ldd	r25, Z+1	; 0x01
    5efc:	00 97       	sbiw	r24, 0x00	; 0
    5efe:	d1 f6       	brne	.-76     	; 0x5eb4 <APP_LCD_story+0x232e>
    5f00:	27 c0       	rjmp	.+78     	; 0x5f50 <APP_LCD_story+0x23ca>
			__ticks --;
		}
		return;
	}
	else
		__ticks = (uint16_t)__tmp;
    5f02:	8e 01       	movw	r16, r28
    5f04:	01 56       	subi	r16, 0x61	; 97
    5f06:	1f 4f       	sbci	r17, 0xFF	; 255
    5f08:	fe 01       	movw	r30, r28
    5f0a:	ef 55       	subi	r30, 0x5F	; 95
    5f0c:	ff 4f       	sbci	r31, 0xFF	; 255
    5f0e:	60 81       	ld	r22, Z
    5f10:	71 81       	ldd	r23, Z+1	; 0x01
    5f12:	82 81       	ldd	r24, Z+2	; 0x02
    5f14:	93 81       	ldd	r25, Z+3	; 0x03
    5f16:	0e 94 49 00 	call	0x92	; 0x92 <__fixunssfsi>
    5f1a:	dc 01       	movw	r26, r24
    5f1c:	cb 01       	movw	r24, r22
    5f1e:	f8 01       	movw	r30, r16
    5f20:	91 83       	std	Z+1, r25	; 0x01
    5f22:	80 83       	st	Z, r24
    5f24:	de 01       	movw	r26, r28
    5f26:	a5 56       	subi	r26, 0x65	; 101
    5f28:	bf 4f       	sbci	r27, 0xFF	; 255
    5f2a:	fe 01       	movw	r30, r28
    5f2c:	e1 56       	subi	r30, 0x61	; 97
    5f2e:	ff 4f       	sbci	r31, 0xFF	; 255
    5f30:	80 81       	ld	r24, Z
    5f32:	91 81       	ldd	r25, Z+1	; 0x01
    5f34:	8d 93       	st	X+, r24
    5f36:	9c 93       	st	X, r25
    5f38:	fe 01       	movw	r30, r28
    5f3a:	e5 56       	subi	r30, 0x65	; 101
    5f3c:	ff 4f       	sbci	r31, 0xFF	; 255
    5f3e:	80 81       	ld	r24, Z
    5f40:	91 81       	ldd	r25, Z+1	; 0x01
    5f42:	01 97       	sbiw	r24, 0x01	; 1
    5f44:	f1 f7       	brne	.-4      	; 0x5f42 <APP_LCD_story+0x23bc>
    5f46:	fe 01       	movw	r30, r28
    5f48:	e5 56       	subi	r30, 0x65	; 101
    5f4a:	ff 4f       	sbci	r31, 0xFF	; 255
    5f4c:	91 83       	std	Z+1, r25	; 0x01
    5f4e:	80 83       	st	Z, r24
		_delay_ms(2000);
		APP_play_tune(200);
    5f50:	88 ec       	ldi	r24, 0xC8	; 200
    5f52:	0e 94 ff 3a 	call	0x75fe	; 0x75fe <APP_play_tune>
		APP_LCD_Draw_bar(80);
    5f56:	80 e5       	ldi	r24, 0x50	; 80
    5f58:	0e 94 b5 38 	call	0x716a	; 0x716a <APP_LCD_Draw_bar>
    5f5c:	fe 01       	movw	r30, r28
    5f5e:	e9 56       	subi	r30, 0x69	; 105
    5f60:	ff 4f       	sbci	r31, 0xFF	; 255
    5f62:	80 e0       	ldi	r24, 0x00	; 0
    5f64:	90 e0       	ldi	r25, 0x00	; 0
    5f66:	aa ef       	ldi	r26, 0xFA	; 250
    5f68:	b4 e4       	ldi	r27, 0x44	; 68
    5f6a:	80 83       	st	Z, r24
    5f6c:	91 83       	std	Z+1, r25	; 0x01
    5f6e:	a2 83       	std	Z+2, r26	; 0x02
    5f70:	b3 83       	std	Z+3, r27	; 0x03
 */
void
_delay_ms(double __ms)
{
	uint16_t __ticks;
	double __tmp = ((F_CPU) / 4e3) * __ms;
    5f72:	8e 01       	movw	r16, r28
    5f74:	0d 56       	subi	r16, 0x6D	; 109
    5f76:	1f 4f       	sbci	r17, 0xFF	; 255
    5f78:	fe 01       	movw	r30, r28
    5f7a:	e9 56       	subi	r30, 0x69	; 105
    5f7c:	ff 4f       	sbci	r31, 0xFF	; 255
    5f7e:	60 81       	ld	r22, Z
    5f80:	71 81       	ldd	r23, Z+1	; 0x01
    5f82:	82 81       	ldd	r24, Z+2	; 0x02
    5f84:	93 81       	ldd	r25, Z+3	; 0x03
    5f86:	20 e0       	ldi	r18, 0x00	; 0
    5f88:	30 e0       	ldi	r19, 0x00	; 0
    5f8a:	4a ef       	ldi	r20, 0xFA	; 250
    5f8c:	54 e4       	ldi	r21, 0x44	; 68
    5f8e:	0e 94 1f 02 	call	0x43e	; 0x43e <__mulsf3>
    5f92:	dc 01       	movw	r26, r24
    5f94:	cb 01       	movw	r24, r22
    5f96:	f8 01       	movw	r30, r16
    5f98:	80 83       	st	Z, r24
    5f9a:	91 83       	std	Z+1, r25	; 0x01
    5f9c:	a2 83       	std	Z+2, r26	; 0x02
    5f9e:	b3 83       	std	Z+3, r27	; 0x03
	if (__tmp < 1.0)
    5fa0:	fe 01       	movw	r30, r28
    5fa2:	ed 56       	subi	r30, 0x6D	; 109
    5fa4:	ff 4f       	sbci	r31, 0xFF	; 255
    5fa6:	60 81       	ld	r22, Z
    5fa8:	71 81       	ldd	r23, Z+1	; 0x01
    5faa:	82 81       	ldd	r24, Z+2	; 0x02
    5fac:	93 81       	ldd	r25, Z+3	; 0x03
    5fae:	20 e0       	ldi	r18, 0x00	; 0
    5fb0:	30 e0       	ldi	r19, 0x00	; 0
    5fb2:	40 e8       	ldi	r20, 0x80	; 128
    5fb4:	5f e3       	ldi	r21, 0x3F	; 63
    5fb6:	0e 94 25 04 	call	0x84a	; 0x84a <__ltsf2>
    5fba:	88 23       	and	r24, r24
    5fbc:	44 f4       	brge	.+16     	; 0x5fce <APP_LCD_story+0x2448>
		__ticks = 1;
    5fbe:	fe 01       	movw	r30, r28
    5fc0:	ef 56       	subi	r30, 0x6F	; 111
    5fc2:	ff 4f       	sbci	r31, 0xFF	; 255
    5fc4:	81 e0       	ldi	r24, 0x01	; 1
    5fc6:	90 e0       	ldi	r25, 0x00	; 0
    5fc8:	91 83       	std	Z+1, r25	; 0x01
    5fca:	80 83       	st	Z, r24
    5fcc:	64 c0       	rjmp	.+200    	; 0x6096 <APP_LCD_story+0x2510>
	else if (__tmp > 65535)
    5fce:	fe 01       	movw	r30, r28
    5fd0:	ed 56       	subi	r30, 0x6D	; 109
    5fd2:	ff 4f       	sbci	r31, 0xFF	; 255
    5fd4:	60 81       	ld	r22, Z
    5fd6:	71 81       	ldd	r23, Z+1	; 0x01
    5fd8:	82 81       	ldd	r24, Z+2	; 0x02
    5fda:	93 81       	ldd	r25, Z+3	; 0x03
    5fdc:	20 e0       	ldi	r18, 0x00	; 0
    5fde:	3f ef       	ldi	r19, 0xFF	; 255
    5fe0:	4f e7       	ldi	r20, 0x7F	; 127
    5fe2:	57 e4       	ldi	r21, 0x47	; 71
    5fe4:	0e 94 c5 03 	call	0x78a	; 0x78a <__gtsf2>
    5fe8:	18 16       	cp	r1, r24
    5fea:	0c f0       	brlt	.+2      	; 0x5fee <APP_LCD_story+0x2468>
    5fec:	43 c0       	rjmp	.+134    	; 0x6074 <APP_LCD_story+0x24ee>
	{
		//	__ticks = requested delay in 1/10 ms
		__ticks = (uint16_t) (__ms * 10.0);
    5fee:	fe 01       	movw	r30, r28
    5ff0:	e9 56       	subi	r30, 0x69	; 105
    5ff2:	ff 4f       	sbci	r31, 0xFF	; 255
    5ff4:	60 81       	ld	r22, Z
    5ff6:	71 81       	ldd	r23, Z+1	; 0x01
    5ff8:	82 81       	ldd	r24, Z+2	; 0x02
    5ffa:	93 81       	ldd	r25, Z+3	; 0x03
    5ffc:	20 e0       	ldi	r18, 0x00	; 0
    5ffe:	30 e0       	ldi	r19, 0x00	; 0
    6000:	40 e2       	ldi	r20, 0x20	; 32
    6002:	51 e4       	ldi	r21, 0x41	; 65
    6004:	0e 94 1f 02 	call	0x43e	; 0x43e <__mulsf3>
    6008:	dc 01       	movw	r26, r24
    600a:	cb 01       	movw	r24, r22
    600c:	8e 01       	movw	r16, r28
    600e:	0f 56       	subi	r16, 0x6F	; 111
    6010:	1f 4f       	sbci	r17, 0xFF	; 255
    6012:	bc 01       	movw	r22, r24
    6014:	cd 01       	movw	r24, r26
    6016:	0e 94 49 00 	call	0x92	; 0x92 <__fixunssfsi>
    601a:	dc 01       	movw	r26, r24
    601c:	cb 01       	movw	r24, r22
    601e:	f8 01       	movw	r30, r16
    6020:	91 83       	std	Z+1, r25	; 0x01
    6022:	80 83       	st	Z, r24
    6024:	1f c0       	rjmp	.+62     	; 0x6064 <APP_LCD_story+0x24de>
    6026:	fe 01       	movw	r30, r28
    6028:	e1 57       	subi	r30, 0x71	; 113
    602a:	ff 4f       	sbci	r31, 0xFF	; 255
    602c:	88 ec       	ldi	r24, 0xC8	; 200
    602e:	90 e0       	ldi	r25, 0x00	; 0
    6030:	91 83       	std	Z+1, r25	; 0x01
    6032:	80 83       	st	Z, r24
    6034:	fe 01       	movw	r30, r28
    6036:	e1 57       	subi	r30, 0x71	; 113
    6038:	ff 4f       	sbci	r31, 0xFF	; 255
    603a:	80 81       	ld	r24, Z
    603c:	91 81       	ldd	r25, Z+1	; 0x01
    603e:	01 97       	sbiw	r24, 0x01	; 1
    6040:	f1 f7       	brne	.-4      	; 0x603e <APP_LCD_story+0x24b8>
    6042:	fe 01       	movw	r30, r28
    6044:	e1 57       	subi	r30, 0x71	; 113
    6046:	ff 4f       	sbci	r31, 0xFF	; 255
    6048:	91 83       	std	Z+1, r25	; 0x01
    604a:	80 83       	st	Z, r24
		while(__ticks)
		{
			// wait 1/10 ms
			_delay_loop_2(((F_CPU) / 4e3) / 10);
			__ticks --;
    604c:	de 01       	movw	r26, r28
    604e:	af 56       	subi	r26, 0x6F	; 111
    6050:	bf 4f       	sbci	r27, 0xFF	; 255
    6052:	fe 01       	movw	r30, r28
    6054:	ef 56       	subi	r30, 0x6F	; 111
    6056:	ff 4f       	sbci	r31, 0xFF	; 255
    6058:	80 81       	ld	r24, Z
    605a:	91 81       	ldd	r25, Z+1	; 0x01
    605c:	01 97       	sbiw	r24, 0x01	; 1
    605e:	11 96       	adiw	r26, 0x01	; 1
    6060:	9c 93       	st	X, r25
    6062:	8e 93       	st	-X, r24
		__ticks = 1;
	else if (__tmp > 65535)
	{
		//	__ticks = requested delay in 1/10 ms
		__ticks = (uint16_t) (__ms * 10.0);
		while(__ticks)
    6064:	fe 01       	movw	r30, r28
    6066:	ef 56       	subi	r30, 0x6F	; 111
    6068:	ff 4f       	sbci	r31, 0xFF	; 255
    606a:	80 81       	ld	r24, Z
    606c:	91 81       	ldd	r25, Z+1	; 0x01
    606e:	00 97       	sbiw	r24, 0x00	; 0
    6070:	d1 f6       	brne	.-76     	; 0x6026 <APP_LCD_story+0x24a0>
    6072:	27 c0       	rjmp	.+78     	; 0x60c2 <APP_LCD_story+0x253c>
			__ticks --;
		}
		return;
	}
	else
		__ticks = (uint16_t)__tmp;
    6074:	8e 01       	movw	r16, r28
    6076:	0f 56       	subi	r16, 0x6F	; 111
    6078:	1f 4f       	sbci	r17, 0xFF	; 255
    607a:	fe 01       	movw	r30, r28
    607c:	ed 56       	subi	r30, 0x6D	; 109
    607e:	ff 4f       	sbci	r31, 0xFF	; 255
    6080:	60 81       	ld	r22, Z
    6082:	71 81       	ldd	r23, Z+1	; 0x01
    6084:	82 81       	ldd	r24, Z+2	; 0x02
    6086:	93 81       	ldd	r25, Z+3	; 0x03
    6088:	0e 94 49 00 	call	0x92	; 0x92 <__fixunssfsi>
    608c:	dc 01       	movw	r26, r24
    608e:	cb 01       	movw	r24, r22
    6090:	f8 01       	movw	r30, r16
    6092:	91 83       	std	Z+1, r25	; 0x01
    6094:	80 83       	st	Z, r24
    6096:	de 01       	movw	r26, r28
    6098:	a3 57       	subi	r26, 0x73	; 115
    609a:	bf 4f       	sbci	r27, 0xFF	; 255
    609c:	fe 01       	movw	r30, r28
    609e:	ef 56       	subi	r30, 0x6F	; 111
    60a0:	ff 4f       	sbci	r31, 0xFF	; 255
    60a2:	80 81       	ld	r24, Z
    60a4:	91 81       	ldd	r25, Z+1	; 0x01
    60a6:	8d 93       	st	X+, r24
    60a8:	9c 93       	st	X, r25
    60aa:	fe 01       	movw	r30, r28
    60ac:	e3 57       	subi	r30, 0x73	; 115
    60ae:	ff 4f       	sbci	r31, 0xFF	; 255
    60b0:	80 81       	ld	r24, Z
    60b2:	91 81       	ldd	r25, Z+1	; 0x01
    60b4:	01 97       	sbiw	r24, 0x01	; 1
    60b6:	f1 f7       	brne	.-4      	; 0x60b4 <APP_LCD_story+0x252e>
    60b8:	fe 01       	movw	r30, r28
    60ba:	e3 57       	subi	r30, 0x73	; 115
    60bc:	ff 4f       	sbci	r31, 0xFF	; 255
    60be:	91 83       	std	Z+1, r25	; 0x01
    60c0:	80 83       	st	Z, r24
		_delay_ms(2000);
		APP_play_tune(50);
    60c2:	82 e3       	ldi	r24, 0x32	; 50
    60c4:	0e 94 ff 3a 	call	0x75fe	; 0x75fe <APP_play_tune>
		APP_LCD_Draw_bar(20);
    60c8:	84 e1       	ldi	r24, 0x14	; 20
    60ca:	0e 94 b5 38 	call	0x716a	; 0x716a <APP_LCD_Draw_bar>
    60ce:	fe 01       	movw	r30, r28
    60d0:	e7 57       	subi	r30, 0x77	; 119
    60d2:	ff 4f       	sbci	r31, 0xFF	; 255
    60d4:	80 e0       	ldi	r24, 0x00	; 0
    60d6:	90 e0       	ldi	r25, 0x00	; 0
    60d8:	aa ef       	ldi	r26, 0xFA	; 250
    60da:	b4 e4       	ldi	r27, 0x44	; 68
    60dc:	80 83       	st	Z, r24
    60de:	91 83       	std	Z+1, r25	; 0x01
    60e0:	a2 83       	std	Z+2, r26	; 0x02
    60e2:	b3 83       	std	Z+3, r27	; 0x03
 */
void
_delay_ms(double __ms)
{
	uint16_t __ticks;
	double __tmp = ((F_CPU) / 4e3) * __ms;
    60e4:	8e 01       	movw	r16, r28
    60e6:	0b 57       	subi	r16, 0x7B	; 123
    60e8:	1f 4f       	sbci	r17, 0xFF	; 255
    60ea:	fe 01       	movw	r30, r28
    60ec:	e7 57       	subi	r30, 0x77	; 119
    60ee:	ff 4f       	sbci	r31, 0xFF	; 255
    60f0:	60 81       	ld	r22, Z
    60f2:	71 81       	ldd	r23, Z+1	; 0x01
    60f4:	82 81       	ldd	r24, Z+2	; 0x02
    60f6:	93 81       	ldd	r25, Z+3	; 0x03
    60f8:	20 e0       	ldi	r18, 0x00	; 0
    60fa:	30 e0       	ldi	r19, 0x00	; 0
    60fc:	4a ef       	ldi	r20, 0xFA	; 250
    60fe:	54 e4       	ldi	r21, 0x44	; 68
    6100:	0e 94 1f 02 	call	0x43e	; 0x43e <__mulsf3>
    6104:	dc 01       	movw	r26, r24
    6106:	cb 01       	movw	r24, r22
    6108:	f8 01       	movw	r30, r16
    610a:	80 83       	st	Z, r24
    610c:	91 83       	std	Z+1, r25	; 0x01
    610e:	a2 83       	std	Z+2, r26	; 0x02
    6110:	b3 83       	std	Z+3, r27	; 0x03
	if (__tmp < 1.0)
    6112:	fe 01       	movw	r30, r28
    6114:	eb 57       	subi	r30, 0x7B	; 123
    6116:	ff 4f       	sbci	r31, 0xFF	; 255
    6118:	60 81       	ld	r22, Z
    611a:	71 81       	ldd	r23, Z+1	; 0x01
    611c:	82 81       	ldd	r24, Z+2	; 0x02
    611e:	93 81       	ldd	r25, Z+3	; 0x03
    6120:	20 e0       	ldi	r18, 0x00	; 0
    6122:	30 e0       	ldi	r19, 0x00	; 0
    6124:	40 e8       	ldi	r20, 0x80	; 128
    6126:	5f e3       	ldi	r21, 0x3F	; 63
    6128:	0e 94 25 04 	call	0x84a	; 0x84a <__ltsf2>
    612c:	88 23       	and	r24, r24
    612e:	44 f4       	brge	.+16     	; 0x6140 <APP_LCD_story+0x25ba>
		__ticks = 1;
    6130:	fe 01       	movw	r30, r28
    6132:	ed 57       	subi	r30, 0x7D	; 125
    6134:	ff 4f       	sbci	r31, 0xFF	; 255
    6136:	81 e0       	ldi	r24, 0x01	; 1
    6138:	90 e0       	ldi	r25, 0x00	; 0
    613a:	91 83       	std	Z+1, r25	; 0x01
    613c:	80 83       	st	Z, r24
    613e:	64 c0       	rjmp	.+200    	; 0x6208 <APP_LCD_story+0x2682>
	else if (__tmp > 65535)
    6140:	fe 01       	movw	r30, r28
    6142:	eb 57       	subi	r30, 0x7B	; 123
    6144:	ff 4f       	sbci	r31, 0xFF	; 255
    6146:	60 81       	ld	r22, Z
    6148:	71 81       	ldd	r23, Z+1	; 0x01
    614a:	82 81       	ldd	r24, Z+2	; 0x02
    614c:	93 81       	ldd	r25, Z+3	; 0x03
    614e:	20 e0       	ldi	r18, 0x00	; 0
    6150:	3f ef       	ldi	r19, 0xFF	; 255
    6152:	4f e7       	ldi	r20, 0x7F	; 127
    6154:	57 e4       	ldi	r21, 0x47	; 71
    6156:	0e 94 c5 03 	call	0x78a	; 0x78a <__gtsf2>
    615a:	18 16       	cp	r1, r24
    615c:	0c f0       	brlt	.+2      	; 0x6160 <APP_LCD_story+0x25da>
    615e:	43 c0       	rjmp	.+134    	; 0x61e6 <APP_LCD_story+0x2660>
	{
		//	__ticks = requested delay in 1/10 ms
		__ticks = (uint16_t) (__ms * 10.0);
    6160:	fe 01       	movw	r30, r28
    6162:	e7 57       	subi	r30, 0x77	; 119
    6164:	ff 4f       	sbci	r31, 0xFF	; 255
    6166:	60 81       	ld	r22, Z
    6168:	71 81       	ldd	r23, Z+1	; 0x01
    616a:	82 81       	ldd	r24, Z+2	; 0x02
    616c:	93 81       	ldd	r25, Z+3	; 0x03
    616e:	20 e0       	ldi	r18, 0x00	; 0
    6170:	30 e0       	ldi	r19, 0x00	; 0
    6172:	40 e2       	ldi	r20, 0x20	; 32
    6174:	51 e4       	ldi	r21, 0x41	; 65
    6176:	0e 94 1f 02 	call	0x43e	; 0x43e <__mulsf3>
    617a:	dc 01       	movw	r26, r24
    617c:	cb 01       	movw	r24, r22
    617e:	8e 01       	movw	r16, r28
    6180:	0d 57       	subi	r16, 0x7D	; 125
    6182:	1f 4f       	sbci	r17, 0xFF	; 255
    6184:	bc 01       	movw	r22, r24
    6186:	cd 01       	movw	r24, r26
    6188:	0e 94 49 00 	call	0x92	; 0x92 <__fixunssfsi>
    618c:	dc 01       	movw	r26, r24
    618e:	cb 01       	movw	r24, r22
    6190:	f8 01       	movw	r30, r16
    6192:	91 83       	std	Z+1, r25	; 0x01
    6194:	80 83       	st	Z, r24
    6196:	1f c0       	rjmp	.+62     	; 0x61d6 <APP_LCD_story+0x2650>
    6198:	fe 01       	movw	r30, r28
    619a:	ef 57       	subi	r30, 0x7F	; 127
    619c:	ff 4f       	sbci	r31, 0xFF	; 255
    619e:	88 ec       	ldi	r24, 0xC8	; 200
    61a0:	90 e0       	ldi	r25, 0x00	; 0
    61a2:	91 83       	std	Z+1, r25	; 0x01
    61a4:	80 83       	st	Z, r24
    61a6:	fe 01       	movw	r30, r28
    61a8:	ef 57       	subi	r30, 0x7F	; 127
    61aa:	ff 4f       	sbci	r31, 0xFF	; 255
    61ac:	80 81       	ld	r24, Z
    61ae:	91 81       	ldd	r25, Z+1	; 0x01
    61b0:	01 97       	sbiw	r24, 0x01	; 1
    61b2:	f1 f7       	brne	.-4      	; 0x61b0 <APP_LCD_story+0x262a>
    61b4:	fe 01       	movw	r30, r28
    61b6:	ef 57       	subi	r30, 0x7F	; 127
    61b8:	ff 4f       	sbci	r31, 0xFF	; 255
    61ba:	91 83       	std	Z+1, r25	; 0x01
    61bc:	80 83       	st	Z, r24
		while(__ticks)
		{
			// wait 1/10 ms
			_delay_loop_2(((F_CPU) / 4e3) / 10);
			__ticks --;
    61be:	de 01       	movw	r26, r28
    61c0:	ad 57       	subi	r26, 0x7D	; 125
    61c2:	bf 4f       	sbci	r27, 0xFF	; 255
    61c4:	fe 01       	movw	r30, r28
    61c6:	ed 57       	subi	r30, 0x7D	; 125
    61c8:	ff 4f       	sbci	r31, 0xFF	; 255
    61ca:	80 81       	ld	r24, Z
    61cc:	91 81       	ldd	r25, Z+1	; 0x01
    61ce:	01 97       	sbiw	r24, 0x01	; 1
    61d0:	11 96       	adiw	r26, 0x01	; 1
    61d2:	9c 93       	st	X, r25
    61d4:	8e 93       	st	-X, r24
		__ticks = 1;
	else if (__tmp > 65535)
	{
		//	__ticks = requested delay in 1/10 ms
		__ticks = (uint16_t) (__ms * 10.0);
		while(__ticks)
    61d6:	fe 01       	movw	r30, r28
    61d8:	ed 57       	subi	r30, 0x7D	; 125
    61da:	ff 4f       	sbci	r31, 0xFF	; 255
    61dc:	80 81       	ld	r24, Z
    61de:	91 81       	ldd	r25, Z+1	; 0x01
    61e0:	00 97       	sbiw	r24, 0x00	; 0
    61e2:	d1 f6       	brne	.-76     	; 0x6198 <APP_LCD_story+0x2612>
    61e4:	27 c0       	rjmp	.+78     	; 0x6234 <APP_LCD_story+0x26ae>
			__ticks --;
		}
		return;
	}
	else
		__ticks = (uint16_t)__tmp;
    61e6:	8e 01       	movw	r16, r28
    61e8:	0d 57       	subi	r16, 0x7D	; 125
    61ea:	1f 4f       	sbci	r17, 0xFF	; 255
    61ec:	fe 01       	movw	r30, r28
    61ee:	eb 57       	subi	r30, 0x7B	; 123
    61f0:	ff 4f       	sbci	r31, 0xFF	; 255
    61f2:	60 81       	ld	r22, Z
    61f4:	71 81       	ldd	r23, Z+1	; 0x01
    61f6:	82 81       	ldd	r24, Z+2	; 0x02
    61f8:	93 81       	ldd	r25, Z+3	; 0x03
    61fa:	0e 94 49 00 	call	0x92	; 0x92 <__fixunssfsi>
    61fe:	dc 01       	movw	r26, r24
    6200:	cb 01       	movw	r24, r22
    6202:	f8 01       	movw	r30, r16
    6204:	91 83       	std	Z+1, r25	; 0x01
    6206:	80 83       	st	Z, r24
    6208:	de 01       	movw	r26, r28
    620a:	a1 58       	subi	r26, 0x81	; 129
    620c:	bf 4f       	sbci	r27, 0xFF	; 255
    620e:	fe 01       	movw	r30, r28
    6210:	ed 57       	subi	r30, 0x7D	; 125
    6212:	ff 4f       	sbci	r31, 0xFF	; 255
    6214:	80 81       	ld	r24, Z
    6216:	91 81       	ldd	r25, Z+1	; 0x01
    6218:	8d 93       	st	X+, r24
    621a:	9c 93       	st	X, r25
    621c:	fe 01       	movw	r30, r28
    621e:	e1 58       	subi	r30, 0x81	; 129
    6220:	ff 4f       	sbci	r31, 0xFF	; 255
    6222:	80 81       	ld	r24, Z
    6224:	91 81       	ldd	r25, Z+1	; 0x01
    6226:	01 97       	sbiw	r24, 0x01	; 1
    6228:	f1 f7       	brne	.-4      	; 0x6226 <APP_LCD_story+0x26a0>
    622a:	fe 01       	movw	r30, r28
    622c:	e1 58       	subi	r30, 0x81	; 129
    622e:	ff 4f       	sbci	r31, 0xFF	; 255
    6230:	91 83       	std	Z+1, r25	; 0x01
    6232:	80 83       	st	Z, r24
		_delay_ms(2000);
		APP_play_tune(100);
    6234:	84 e6       	ldi	r24, 0x64	; 100
    6236:	0e 94 ff 3a 	call	0x75fe	; 0x75fe <APP_play_tune>
		APP_LCD_Draw_bar(40);
    623a:	88 e2       	ldi	r24, 0x28	; 40
    623c:	0e 94 b5 38 	call	0x716a	; 0x716a <APP_LCD_Draw_bar>
    6240:	fe 01       	movw	r30, r28
    6242:	e5 58       	subi	r30, 0x85	; 133
    6244:	ff 4f       	sbci	r31, 0xFF	; 255
    6246:	80 e0       	ldi	r24, 0x00	; 0
    6248:	90 e0       	ldi	r25, 0x00	; 0
    624a:	aa ef       	ldi	r26, 0xFA	; 250
    624c:	b4 e4       	ldi	r27, 0x44	; 68
    624e:	80 83       	st	Z, r24
    6250:	91 83       	std	Z+1, r25	; 0x01
    6252:	a2 83       	std	Z+2, r26	; 0x02
    6254:	b3 83       	std	Z+3, r27	; 0x03
 */
void
_delay_ms(double __ms)
{
	uint16_t __ticks;
	double __tmp = ((F_CPU) / 4e3) * __ms;
    6256:	8e 01       	movw	r16, r28
    6258:	09 58       	subi	r16, 0x89	; 137
    625a:	1f 4f       	sbci	r17, 0xFF	; 255
    625c:	fe 01       	movw	r30, r28
    625e:	e5 58       	subi	r30, 0x85	; 133
    6260:	ff 4f       	sbci	r31, 0xFF	; 255
    6262:	60 81       	ld	r22, Z
    6264:	71 81       	ldd	r23, Z+1	; 0x01
    6266:	82 81       	ldd	r24, Z+2	; 0x02
    6268:	93 81       	ldd	r25, Z+3	; 0x03
    626a:	20 e0       	ldi	r18, 0x00	; 0
    626c:	30 e0       	ldi	r19, 0x00	; 0
    626e:	4a ef       	ldi	r20, 0xFA	; 250
    6270:	54 e4       	ldi	r21, 0x44	; 68
    6272:	0e 94 1f 02 	call	0x43e	; 0x43e <__mulsf3>
    6276:	dc 01       	movw	r26, r24
    6278:	cb 01       	movw	r24, r22
    627a:	f8 01       	movw	r30, r16
    627c:	80 83       	st	Z, r24
    627e:	91 83       	std	Z+1, r25	; 0x01
    6280:	a2 83       	std	Z+2, r26	; 0x02
    6282:	b3 83       	std	Z+3, r27	; 0x03
	if (__tmp < 1.0)
    6284:	fe 01       	movw	r30, r28
    6286:	e9 58       	subi	r30, 0x89	; 137
    6288:	ff 4f       	sbci	r31, 0xFF	; 255
    628a:	60 81       	ld	r22, Z
    628c:	71 81       	ldd	r23, Z+1	; 0x01
    628e:	82 81       	ldd	r24, Z+2	; 0x02
    6290:	93 81       	ldd	r25, Z+3	; 0x03
    6292:	20 e0       	ldi	r18, 0x00	; 0
    6294:	30 e0       	ldi	r19, 0x00	; 0
    6296:	40 e8       	ldi	r20, 0x80	; 128
    6298:	5f e3       	ldi	r21, 0x3F	; 63
    629a:	0e 94 25 04 	call	0x84a	; 0x84a <__ltsf2>
    629e:	88 23       	and	r24, r24
    62a0:	44 f4       	brge	.+16     	; 0x62b2 <APP_LCD_story+0x272c>
		__ticks = 1;
    62a2:	fe 01       	movw	r30, r28
    62a4:	eb 58       	subi	r30, 0x8B	; 139
    62a6:	ff 4f       	sbci	r31, 0xFF	; 255
    62a8:	81 e0       	ldi	r24, 0x01	; 1
    62aa:	90 e0       	ldi	r25, 0x00	; 0
    62ac:	91 83       	std	Z+1, r25	; 0x01
    62ae:	80 83       	st	Z, r24
    62b0:	64 c0       	rjmp	.+200    	; 0x637a <APP_LCD_story+0x27f4>
	else if (__tmp > 65535)
    62b2:	fe 01       	movw	r30, r28
    62b4:	e9 58       	subi	r30, 0x89	; 137
    62b6:	ff 4f       	sbci	r31, 0xFF	; 255
    62b8:	60 81       	ld	r22, Z
    62ba:	71 81       	ldd	r23, Z+1	; 0x01
    62bc:	82 81       	ldd	r24, Z+2	; 0x02
    62be:	93 81       	ldd	r25, Z+3	; 0x03
    62c0:	20 e0       	ldi	r18, 0x00	; 0
    62c2:	3f ef       	ldi	r19, 0xFF	; 255
    62c4:	4f e7       	ldi	r20, 0x7F	; 127
    62c6:	57 e4       	ldi	r21, 0x47	; 71
    62c8:	0e 94 c5 03 	call	0x78a	; 0x78a <__gtsf2>
    62cc:	18 16       	cp	r1, r24
    62ce:	0c f0       	brlt	.+2      	; 0x62d2 <APP_LCD_story+0x274c>
    62d0:	43 c0       	rjmp	.+134    	; 0x6358 <APP_LCD_story+0x27d2>
	{
		//	__ticks = requested delay in 1/10 ms
		__ticks = (uint16_t) (__ms * 10.0);
    62d2:	fe 01       	movw	r30, r28
    62d4:	e5 58       	subi	r30, 0x85	; 133
    62d6:	ff 4f       	sbci	r31, 0xFF	; 255
    62d8:	60 81       	ld	r22, Z
    62da:	71 81       	ldd	r23, Z+1	; 0x01
    62dc:	82 81       	ldd	r24, Z+2	; 0x02
    62de:	93 81       	ldd	r25, Z+3	; 0x03
    62e0:	20 e0       	ldi	r18, 0x00	; 0
    62e2:	30 e0       	ldi	r19, 0x00	; 0
    62e4:	40 e2       	ldi	r20, 0x20	; 32
    62e6:	51 e4       	ldi	r21, 0x41	; 65
    62e8:	0e 94 1f 02 	call	0x43e	; 0x43e <__mulsf3>
    62ec:	dc 01       	movw	r26, r24
    62ee:	cb 01       	movw	r24, r22
    62f0:	8e 01       	movw	r16, r28
    62f2:	0b 58       	subi	r16, 0x8B	; 139
    62f4:	1f 4f       	sbci	r17, 0xFF	; 255
    62f6:	bc 01       	movw	r22, r24
    62f8:	cd 01       	movw	r24, r26
    62fa:	0e 94 49 00 	call	0x92	; 0x92 <__fixunssfsi>
    62fe:	dc 01       	movw	r26, r24
    6300:	cb 01       	movw	r24, r22
    6302:	f8 01       	movw	r30, r16
    6304:	91 83       	std	Z+1, r25	; 0x01
    6306:	80 83       	st	Z, r24
    6308:	1f c0       	rjmp	.+62     	; 0x6348 <APP_LCD_story+0x27c2>
    630a:	fe 01       	movw	r30, r28
    630c:	ed 58       	subi	r30, 0x8D	; 141
    630e:	ff 4f       	sbci	r31, 0xFF	; 255
    6310:	88 ec       	ldi	r24, 0xC8	; 200
    6312:	90 e0       	ldi	r25, 0x00	; 0
    6314:	91 83       	std	Z+1, r25	; 0x01
    6316:	80 83       	st	Z, r24
    6318:	fe 01       	movw	r30, r28
    631a:	ed 58       	subi	r30, 0x8D	; 141
    631c:	ff 4f       	sbci	r31, 0xFF	; 255
    631e:	80 81       	ld	r24, Z
    6320:	91 81       	ldd	r25, Z+1	; 0x01
    6322:	01 97       	sbiw	r24, 0x01	; 1
    6324:	f1 f7       	brne	.-4      	; 0x6322 <APP_LCD_story+0x279c>
    6326:	fe 01       	movw	r30, r28
    6328:	ed 58       	subi	r30, 0x8D	; 141
    632a:	ff 4f       	sbci	r31, 0xFF	; 255
    632c:	91 83       	std	Z+1, r25	; 0x01
    632e:	80 83       	st	Z, r24
		while(__ticks)
		{
			// wait 1/10 ms
			_delay_loop_2(((F_CPU) / 4e3) / 10);
			__ticks --;
    6330:	de 01       	movw	r26, r28
    6332:	ab 58       	subi	r26, 0x8B	; 139
    6334:	bf 4f       	sbci	r27, 0xFF	; 255
    6336:	fe 01       	movw	r30, r28
    6338:	eb 58       	subi	r30, 0x8B	; 139
    633a:	ff 4f       	sbci	r31, 0xFF	; 255
    633c:	80 81       	ld	r24, Z
    633e:	91 81       	ldd	r25, Z+1	; 0x01
    6340:	01 97       	sbiw	r24, 0x01	; 1
    6342:	11 96       	adiw	r26, 0x01	; 1
    6344:	9c 93       	st	X, r25
    6346:	8e 93       	st	-X, r24
		__ticks = 1;
	else if (__tmp > 65535)
	{
		//	__ticks = requested delay in 1/10 ms
		__ticks = (uint16_t) (__ms * 10.0);
		while(__ticks)
    6348:	fe 01       	movw	r30, r28
    634a:	eb 58       	subi	r30, 0x8B	; 139
    634c:	ff 4f       	sbci	r31, 0xFF	; 255
    634e:	80 81       	ld	r24, Z
    6350:	91 81       	ldd	r25, Z+1	; 0x01
    6352:	00 97       	sbiw	r24, 0x00	; 0
    6354:	d1 f6       	brne	.-76     	; 0x630a <APP_LCD_story+0x2784>
    6356:	27 c0       	rjmp	.+78     	; 0x63a6 <APP_LCD_story+0x2820>
			__ticks --;
		}
		return;
	}
	else
		__ticks = (uint16_t)__tmp;
    6358:	8e 01       	movw	r16, r28
    635a:	0b 58       	subi	r16, 0x8B	; 139
    635c:	1f 4f       	sbci	r17, 0xFF	; 255
    635e:	fe 01       	movw	r30, r28
    6360:	e9 58       	subi	r30, 0x89	; 137
    6362:	ff 4f       	sbci	r31, 0xFF	; 255
    6364:	60 81       	ld	r22, Z
    6366:	71 81       	ldd	r23, Z+1	; 0x01
    6368:	82 81       	ldd	r24, Z+2	; 0x02
    636a:	93 81       	ldd	r25, Z+3	; 0x03
    636c:	0e 94 49 00 	call	0x92	; 0x92 <__fixunssfsi>
    6370:	dc 01       	movw	r26, r24
    6372:	cb 01       	movw	r24, r22
    6374:	f8 01       	movw	r30, r16
    6376:	91 83       	std	Z+1, r25	; 0x01
    6378:	80 83       	st	Z, r24
    637a:	de 01       	movw	r26, r28
    637c:	af 58       	subi	r26, 0x8F	; 143
    637e:	bf 4f       	sbci	r27, 0xFF	; 255
    6380:	fe 01       	movw	r30, r28
    6382:	eb 58       	subi	r30, 0x8B	; 139
    6384:	ff 4f       	sbci	r31, 0xFF	; 255
    6386:	80 81       	ld	r24, Z
    6388:	91 81       	ldd	r25, Z+1	; 0x01
    638a:	8d 93       	st	X+, r24
    638c:	9c 93       	st	X, r25
    638e:	fe 01       	movw	r30, r28
    6390:	ef 58       	subi	r30, 0x8F	; 143
    6392:	ff 4f       	sbci	r31, 0xFF	; 255
    6394:	80 81       	ld	r24, Z
    6396:	91 81       	ldd	r25, Z+1	; 0x01
    6398:	01 97       	sbiw	r24, 0x01	; 1
    639a:	f1 f7       	brne	.-4      	; 0x6398 <APP_LCD_story+0x2812>
    639c:	fe 01       	movw	r30, r28
    639e:	ef 58       	subi	r30, 0x8F	; 143
    63a0:	ff 4f       	sbci	r31, 0xFF	; 255
    63a2:	91 83       	std	Z+1, r25	; 0x01
    63a4:	80 83       	st	Z, r24
		_delay_ms(2000);
		TMR2_Disable();
    63a6:	0e 94 dd 0f 	call	0x1fba	; 0x1fba <TMR2_Disable>

		APP_LCD_ClearLine1();
    63aa:	0e 94 a7 36 	call	0x6d4e	; 0x6d4e <APP_LCD_ClearLine1>
		LCD_void_SendString((u8*)"Your turn !!");
    63ae:	85 e0       	ldi	r24, 0x05	; 5
    63b0:	92 e0       	ldi	r25, 0x02	; 2
    63b2:	0e 94 88 19 	call	0x3310	; 0x3310 <LCD_void_SendString>

		u8 game_statues=0;
    63b6:	fe 01       	movw	r30, r28
    63b8:	e3 52       	subi	r30, 0x23	; 35
    63ba:	fe 4f       	sbci	r31, 0xFE	; 254
    63bc:	10 82       	st	Z, r1
    63be:	d2 c2       	rjmp	.+1444   	; 0x6964 <APP_LCD_story+0x2dde>
					LCD_void_Data(0x00);
					break;
				}
				else
				{
					APP_LCD_ClearLine1();
    63c0:	0e 94 a7 36 	call	0x6d4e	; 0x6d4e <APP_LCD_ClearLine1>
				}
				LCD_GoTO(Stickman_position,2);
    63c4:	80 91 12 04 	lds	r24, 0x0412
    63c8:	62 e0       	ldi	r22, 0x02	; 2
    63ca:	0e 94 a4 19 	call	0x3348	; 0x3348 <LCD_GoTO>
				LCD_void_Data(0x00);
    63ce:	80 e0       	ldi	r24, 0x00	; 0
    63d0:	0e 94 63 16 	call	0x2cc6	; 0x2cc6 <LCD_void_Data>
    63d4:	05 c9       	rjmp	.-3574   	; 0x55e0 <APP_LCD_story+0x1a5a>
		u8 game_statues=0;
		while(game_statues != 1)
		{


			if(game_statues ==2 )
    63d6:	fe 01       	movw	r30, r28
    63d8:	e3 52       	subi	r30, 0x23	; 35
    63da:	fe 4f       	sbci	r31, 0xFE	; 254
    63dc:	80 81       	ld	r24, Z
    63de:	82 30       	cpi	r24, 0x02	; 2
    63e0:	09 f0       	breq	.+2      	; 0x63e4 <APP_LCD_story+0x285e>
    63e2:	ba c2       	rjmp	.+1396   	; 0x6958 <APP_LCD_story+0x2dd2>
			{
				APP_LCD_ClearLine1();
    63e4:	0e 94 a7 36 	call	0x6d4e	; 0x6d4e <APP_LCD_ClearLine1>
				LCD_void_SendString((u8*)"You Broke my");
    63e8:	82 e1       	ldi	r24, 0x12	; 18
    63ea:	92 e0       	ldi	r25, 0x02	; 2
    63ec:	0e 94 88 19 	call	0x3310	; 0x3310 <LCD_void_SendString>
    63f0:	fe 01       	movw	r30, r28
    63f2:	e3 59       	subi	r30, 0x93	; 147
    63f4:	ff 4f       	sbci	r31, 0xFF	; 255
    63f6:	80 e0       	ldi	r24, 0x00	; 0
    63f8:	90 e0       	ldi	r25, 0x00	; 0
    63fa:	aa ef       	ldi	r26, 0xFA	; 250
    63fc:	b4 e4       	ldi	r27, 0x44	; 68
    63fe:	80 83       	st	Z, r24
    6400:	91 83       	std	Z+1, r25	; 0x01
    6402:	a2 83       	std	Z+2, r26	; 0x02
    6404:	b3 83       	std	Z+3, r27	; 0x03
 */
void
_delay_ms(double __ms)
{
	uint16_t __ticks;
	double __tmp = ((F_CPU) / 4e3) * __ms;
    6406:	8e 01       	movw	r16, r28
    6408:	07 59       	subi	r16, 0x97	; 151
    640a:	1f 4f       	sbci	r17, 0xFF	; 255
    640c:	fe 01       	movw	r30, r28
    640e:	e3 59       	subi	r30, 0x93	; 147
    6410:	ff 4f       	sbci	r31, 0xFF	; 255
    6412:	60 81       	ld	r22, Z
    6414:	71 81       	ldd	r23, Z+1	; 0x01
    6416:	82 81       	ldd	r24, Z+2	; 0x02
    6418:	93 81       	ldd	r25, Z+3	; 0x03
    641a:	20 e0       	ldi	r18, 0x00	; 0
    641c:	30 e0       	ldi	r19, 0x00	; 0
    641e:	4a ef       	ldi	r20, 0xFA	; 250
    6420:	54 e4       	ldi	r21, 0x44	; 68
    6422:	0e 94 1f 02 	call	0x43e	; 0x43e <__mulsf3>
    6426:	dc 01       	movw	r26, r24
    6428:	cb 01       	movw	r24, r22
    642a:	f8 01       	movw	r30, r16
    642c:	80 83       	st	Z, r24
    642e:	91 83       	std	Z+1, r25	; 0x01
    6430:	a2 83       	std	Z+2, r26	; 0x02
    6432:	b3 83       	std	Z+3, r27	; 0x03
	if (__tmp < 1.0)
    6434:	fe 01       	movw	r30, r28
    6436:	e7 59       	subi	r30, 0x97	; 151
    6438:	ff 4f       	sbci	r31, 0xFF	; 255
    643a:	60 81       	ld	r22, Z
    643c:	71 81       	ldd	r23, Z+1	; 0x01
    643e:	82 81       	ldd	r24, Z+2	; 0x02
    6440:	93 81       	ldd	r25, Z+3	; 0x03
    6442:	20 e0       	ldi	r18, 0x00	; 0
    6444:	30 e0       	ldi	r19, 0x00	; 0
    6446:	40 e8       	ldi	r20, 0x80	; 128
    6448:	5f e3       	ldi	r21, 0x3F	; 63
    644a:	0e 94 25 04 	call	0x84a	; 0x84a <__ltsf2>
    644e:	88 23       	and	r24, r24
    6450:	44 f4       	brge	.+16     	; 0x6462 <APP_LCD_story+0x28dc>
		__ticks = 1;
    6452:	fe 01       	movw	r30, r28
    6454:	e9 59       	subi	r30, 0x99	; 153
    6456:	ff 4f       	sbci	r31, 0xFF	; 255
    6458:	81 e0       	ldi	r24, 0x01	; 1
    645a:	90 e0       	ldi	r25, 0x00	; 0
    645c:	91 83       	std	Z+1, r25	; 0x01
    645e:	80 83       	st	Z, r24
    6460:	64 c0       	rjmp	.+200    	; 0x652a <APP_LCD_story+0x29a4>
	else if (__tmp > 65535)
    6462:	fe 01       	movw	r30, r28
    6464:	e7 59       	subi	r30, 0x97	; 151
    6466:	ff 4f       	sbci	r31, 0xFF	; 255
    6468:	60 81       	ld	r22, Z
    646a:	71 81       	ldd	r23, Z+1	; 0x01
    646c:	82 81       	ldd	r24, Z+2	; 0x02
    646e:	93 81       	ldd	r25, Z+3	; 0x03
    6470:	20 e0       	ldi	r18, 0x00	; 0
    6472:	3f ef       	ldi	r19, 0xFF	; 255
    6474:	4f e7       	ldi	r20, 0x7F	; 127
    6476:	57 e4       	ldi	r21, 0x47	; 71
    6478:	0e 94 c5 03 	call	0x78a	; 0x78a <__gtsf2>
    647c:	18 16       	cp	r1, r24
    647e:	0c f0       	brlt	.+2      	; 0x6482 <APP_LCD_story+0x28fc>
    6480:	43 c0       	rjmp	.+134    	; 0x6508 <APP_LCD_story+0x2982>
	{
		//	__ticks = requested delay in 1/10 ms
		__ticks = (uint16_t) (__ms * 10.0);
    6482:	fe 01       	movw	r30, r28
    6484:	e3 59       	subi	r30, 0x93	; 147
    6486:	ff 4f       	sbci	r31, 0xFF	; 255
    6488:	60 81       	ld	r22, Z
    648a:	71 81       	ldd	r23, Z+1	; 0x01
    648c:	82 81       	ldd	r24, Z+2	; 0x02
    648e:	93 81       	ldd	r25, Z+3	; 0x03
    6490:	20 e0       	ldi	r18, 0x00	; 0
    6492:	30 e0       	ldi	r19, 0x00	; 0
    6494:	40 e2       	ldi	r20, 0x20	; 32
    6496:	51 e4       	ldi	r21, 0x41	; 65
    6498:	0e 94 1f 02 	call	0x43e	; 0x43e <__mulsf3>
    649c:	dc 01       	movw	r26, r24
    649e:	cb 01       	movw	r24, r22
    64a0:	8e 01       	movw	r16, r28
    64a2:	09 59       	subi	r16, 0x99	; 153
    64a4:	1f 4f       	sbci	r17, 0xFF	; 255
    64a6:	bc 01       	movw	r22, r24
    64a8:	cd 01       	movw	r24, r26
    64aa:	0e 94 49 00 	call	0x92	; 0x92 <__fixunssfsi>
    64ae:	dc 01       	movw	r26, r24
    64b0:	cb 01       	movw	r24, r22
    64b2:	f8 01       	movw	r30, r16
    64b4:	91 83       	std	Z+1, r25	; 0x01
    64b6:	80 83       	st	Z, r24
    64b8:	1f c0       	rjmp	.+62     	; 0x64f8 <APP_LCD_story+0x2972>
    64ba:	fe 01       	movw	r30, r28
    64bc:	eb 59       	subi	r30, 0x9B	; 155
    64be:	ff 4f       	sbci	r31, 0xFF	; 255
    64c0:	88 ec       	ldi	r24, 0xC8	; 200
    64c2:	90 e0       	ldi	r25, 0x00	; 0
    64c4:	91 83       	std	Z+1, r25	; 0x01
    64c6:	80 83       	st	Z, r24
    64c8:	fe 01       	movw	r30, r28
    64ca:	eb 59       	subi	r30, 0x9B	; 155
    64cc:	ff 4f       	sbci	r31, 0xFF	; 255
    64ce:	80 81       	ld	r24, Z
    64d0:	91 81       	ldd	r25, Z+1	; 0x01
    64d2:	01 97       	sbiw	r24, 0x01	; 1
    64d4:	f1 f7       	brne	.-4      	; 0x64d2 <APP_LCD_story+0x294c>
    64d6:	fe 01       	movw	r30, r28
    64d8:	eb 59       	subi	r30, 0x9B	; 155
    64da:	ff 4f       	sbci	r31, 0xFF	; 255
    64dc:	91 83       	std	Z+1, r25	; 0x01
    64de:	80 83       	st	Z, r24
		while(__ticks)
		{
			// wait 1/10 ms
			_delay_loop_2(((F_CPU) / 4e3) / 10);
			__ticks --;
    64e0:	de 01       	movw	r26, r28
    64e2:	a9 59       	subi	r26, 0x99	; 153
    64e4:	bf 4f       	sbci	r27, 0xFF	; 255
    64e6:	fe 01       	movw	r30, r28
    64e8:	e9 59       	subi	r30, 0x99	; 153
    64ea:	ff 4f       	sbci	r31, 0xFF	; 255
    64ec:	80 81       	ld	r24, Z
    64ee:	91 81       	ldd	r25, Z+1	; 0x01
    64f0:	01 97       	sbiw	r24, 0x01	; 1
    64f2:	11 96       	adiw	r26, 0x01	; 1
    64f4:	9c 93       	st	X, r25
    64f6:	8e 93       	st	-X, r24
		__ticks = 1;
	else if (__tmp > 65535)
	{
		//	__ticks = requested delay in 1/10 ms
		__ticks = (uint16_t) (__ms * 10.0);
		while(__ticks)
    64f8:	fe 01       	movw	r30, r28
    64fa:	e9 59       	subi	r30, 0x99	; 153
    64fc:	ff 4f       	sbci	r31, 0xFF	; 255
    64fe:	80 81       	ld	r24, Z
    6500:	91 81       	ldd	r25, Z+1	; 0x01
    6502:	00 97       	sbiw	r24, 0x00	; 0
    6504:	d1 f6       	brne	.-76     	; 0x64ba <APP_LCD_story+0x2934>
    6506:	27 c0       	rjmp	.+78     	; 0x6556 <APP_LCD_story+0x29d0>
			__ticks --;
		}
		return;
	}
	else
		__ticks = (uint16_t)__tmp;
    6508:	8e 01       	movw	r16, r28
    650a:	09 59       	subi	r16, 0x99	; 153
    650c:	1f 4f       	sbci	r17, 0xFF	; 255
    650e:	fe 01       	movw	r30, r28
    6510:	e7 59       	subi	r30, 0x97	; 151
    6512:	ff 4f       	sbci	r31, 0xFF	; 255
    6514:	60 81       	ld	r22, Z
    6516:	71 81       	ldd	r23, Z+1	; 0x01
    6518:	82 81       	ldd	r24, Z+2	; 0x02
    651a:	93 81       	ldd	r25, Z+3	; 0x03
    651c:	0e 94 49 00 	call	0x92	; 0x92 <__fixunssfsi>
    6520:	dc 01       	movw	r26, r24
    6522:	cb 01       	movw	r24, r22
    6524:	f8 01       	movw	r30, r16
    6526:	91 83       	std	Z+1, r25	; 0x01
    6528:	80 83       	st	Z, r24
    652a:	de 01       	movw	r26, r28
    652c:	ad 59       	subi	r26, 0x9D	; 157
    652e:	bf 4f       	sbci	r27, 0xFF	; 255
    6530:	fe 01       	movw	r30, r28
    6532:	e9 59       	subi	r30, 0x99	; 153
    6534:	ff 4f       	sbci	r31, 0xFF	; 255
    6536:	80 81       	ld	r24, Z
    6538:	91 81       	ldd	r25, Z+1	; 0x01
    653a:	8d 93       	st	X+, r24
    653c:	9c 93       	st	X, r25
    653e:	fe 01       	movw	r30, r28
    6540:	ed 59       	subi	r30, 0x9D	; 157
    6542:	ff 4f       	sbci	r31, 0xFF	; 255
    6544:	80 81       	ld	r24, Z
    6546:	91 81       	ldd	r25, Z+1	; 0x01
    6548:	01 97       	sbiw	r24, 0x01	; 1
    654a:	f1 f7       	brne	.-4      	; 0x6548 <APP_LCD_story+0x29c2>
    654c:	fe 01       	movw	r30, r28
    654e:	ed 59       	subi	r30, 0x9D	; 157
    6550:	ff 4f       	sbci	r31, 0xFF	; 255
    6552:	91 83       	std	Z+1, r25	; 0x01
    6554:	80 83       	st	Z, r24
				_delay_ms(2000);

				APP_LCD_ClearLine1();
    6556:	0e 94 a7 36 	call	0x6d4e	; 0x6d4e <APP_LCD_ClearLine1>
				LCD_void_SendString((u8*)"Piano!! you %&*#");
    655a:	8f e1       	ldi	r24, 0x1F	; 31
    655c:	92 e0       	ldi	r25, 0x02	; 2
    655e:	0e 94 88 19 	call	0x3310	; 0x3310 <LCD_void_SendString>
    6562:	fe 01       	movw	r30, r28
    6564:	e1 5a       	subi	r30, 0xA1	; 161
    6566:	ff 4f       	sbci	r31, 0xFF	; 255
    6568:	80 e0       	ldi	r24, 0x00	; 0
    656a:	90 e0       	ldi	r25, 0x00	; 0
    656c:	aa ef       	ldi	r26, 0xFA	; 250
    656e:	b4 e4       	ldi	r27, 0x44	; 68
    6570:	80 83       	st	Z, r24
    6572:	91 83       	std	Z+1, r25	; 0x01
    6574:	a2 83       	std	Z+2, r26	; 0x02
    6576:	b3 83       	std	Z+3, r27	; 0x03
 */
void
_delay_ms(double __ms)
{
	uint16_t __ticks;
	double __tmp = ((F_CPU) / 4e3) * __ms;
    6578:	8e 01       	movw	r16, r28
    657a:	05 5a       	subi	r16, 0xA5	; 165
    657c:	1f 4f       	sbci	r17, 0xFF	; 255
    657e:	fe 01       	movw	r30, r28
    6580:	e1 5a       	subi	r30, 0xA1	; 161
    6582:	ff 4f       	sbci	r31, 0xFF	; 255
    6584:	60 81       	ld	r22, Z
    6586:	71 81       	ldd	r23, Z+1	; 0x01
    6588:	82 81       	ldd	r24, Z+2	; 0x02
    658a:	93 81       	ldd	r25, Z+3	; 0x03
    658c:	20 e0       	ldi	r18, 0x00	; 0
    658e:	30 e0       	ldi	r19, 0x00	; 0
    6590:	4a ef       	ldi	r20, 0xFA	; 250
    6592:	54 e4       	ldi	r21, 0x44	; 68
    6594:	0e 94 1f 02 	call	0x43e	; 0x43e <__mulsf3>
    6598:	dc 01       	movw	r26, r24
    659a:	cb 01       	movw	r24, r22
    659c:	f8 01       	movw	r30, r16
    659e:	80 83       	st	Z, r24
    65a0:	91 83       	std	Z+1, r25	; 0x01
    65a2:	a2 83       	std	Z+2, r26	; 0x02
    65a4:	b3 83       	std	Z+3, r27	; 0x03
	if (__tmp < 1.0)
    65a6:	fe 01       	movw	r30, r28
    65a8:	e5 5a       	subi	r30, 0xA5	; 165
    65aa:	ff 4f       	sbci	r31, 0xFF	; 255
    65ac:	60 81       	ld	r22, Z
    65ae:	71 81       	ldd	r23, Z+1	; 0x01
    65b0:	82 81       	ldd	r24, Z+2	; 0x02
    65b2:	93 81       	ldd	r25, Z+3	; 0x03
    65b4:	20 e0       	ldi	r18, 0x00	; 0
    65b6:	30 e0       	ldi	r19, 0x00	; 0
    65b8:	40 e8       	ldi	r20, 0x80	; 128
    65ba:	5f e3       	ldi	r21, 0x3F	; 63
    65bc:	0e 94 25 04 	call	0x84a	; 0x84a <__ltsf2>
    65c0:	88 23       	and	r24, r24
    65c2:	44 f4       	brge	.+16     	; 0x65d4 <APP_LCD_story+0x2a4e>
		__ticks = 1;
    65c4:	fe 01       	movw	r30, r28
    65c6:	e7 5a       	subi	r30, 0xA7	; 167
    65c8:	ff 4f       	sbci	r31, 0xFF	; 255
    65ca:	81 e0       	ldi	r24, 0x01	; 1
    65cc:	90 e0       	ldi	r25, 0x00	; 0
    65ce:	91 83       	std	Z+1, r25	; 0x01
    65d0:	80 83       	st	Z, r24
    65d2:	64 c0       	rjmp	.+200    	; 0x669c <APP_LCD_story+0x2b16>
	else if (__tmp > 65535)
    65d4:	fe 01       	movw	r30, r28
    65d6:	e5 5a       	subi	r30, 0xA5	; 165
    65d8:	ff 4f       	sbci	r31, 0xFF	; 255
    65da:	60 81       	ld	r22, Z
    65dc:	71 81       	ldd	r23, Z+1	; 0x01
    65de:	82 81       	ldd	r24, Z+2	; 0x02
    65e0:	93 81       	ldd	r25, Z+3	; 0x03
    65e2:	20 e0       	ldi	r18, 0x00	; 0
    65e4:	3f ef       	ldi	r19, 0xFF	; 255
    65e6:	4f e7       	ldi	r20, 0x7F	; 127
    65e8:	57 e4       	ldi	r21, 0x47	; 71
    65ea:	0e 94 c5 03 	call	0x78a	; 0x78a <__gtsf2>
    65ee:	18 16       	cp	r1, r24
    65f0:	0c f0       	brlt	.+2      	; 0x65f4 <APP_LCD_story+0x2a6e>
    65f2:	43 c0       	rjmp	.+134    	; 0x667a <APP_LCD_story+0x2af4>
	{
		//	__ticks = requested delay in 1/10 ms
		__ticks = (uint16_t) (__ms * 10.0);
    65f4:	fe 01       	movw	r30, r28
    65f6:	e1 5a       	subi	r30, 0xA1	; 161
    65f8:	ff 4f       	sbci	r31, 0xFF	; 255
    65fa:	60 81       	ld	r22, Z
    65fc:	71 81       	ldd	r23, Z+1	; 0x01
    65fe:	82 81       	ldd	r24, Z+2	; 0x02
    6600:	93 81       	ldd	r25, Z+3	; 0x03
    6602:	20 e0       	ldi	r18, 0x00	; 0
    6604:	30 e0       	ldi	r19, 0x00	; 0
    6606:	40 e2       	ldi	r20, 0x20	; 32
    6608:	51 e4       	ldi	r21, 0x41	; 65
    660a:	0e 94 1f 02 	call	0x43e	; 0x43e <__mulsf3>
    660e:	dc 01       	movw	r26, r24
    6610:	cb 01       	movw	r24, r22
    6612:	8e 01       	movw	r16, r28
    6614:	07 5a       	subi	r16, 0xA7	; 167
    6616:	1f 4f       	sbci	r17, 0xFF	; 255
    6618:	bc 01       	movw	r22, r24
    661a:	cd 01       	movw	r24, r26
    661c:	0e 94 49 00 	call	0x92	; 0x92 <__fixunssfsi>
    6620:	dc 01       	movw	r26, r24
    6622:	cb 01       	movw	r24, r22
    6624:	f8 01       	movw	r30, r16
    6626:	91 83       	std	Z+1, r25	; 0x01
    6628:	80 83       	st	Z, r24
    662a:	1f c0       	rjmp	.+62     	; 0x666a <APP_LCD_story+0x2ae4>
    662c:	fe 01       	movw	r30, r28
    662e:	e9 5a       	subi	r30, 0xA9	; 169
    6630:	ff 4f       	sbci	r31, 0xFF	; 255
    6632:	88 ec       	ldi	r24, 0xC8	; 200
    6634:	90 e0       	ldi	r25, 0x00	; 0
    6636:	91 83       	std	Z+1, r25	; 0x01
    6638:	80 83       	st	Z, r24
    663a:	fe 01       	movw	r30, r28
    663c:	e9 5a       	subi	r30, 0xA9	; 169
    663e:	ff 4f       	sbci	r31, 0xFF	; 255
    6640:	80 81       	ld	r24, Z
    6642:	91 81       	ldd	r25, Z+1	; 0x01
    6644:	01 97       	sbiw	r24, 0x01	; 1
    6646:	f1 f7       	brne	.-4      	; 0x6644 <APP_LCD_story+0x2abe>
    6648:	fe 01       	movw	r30, r28
    664a:	e9 5a       	subi	r30, 0xA9	; 169
    664c:	ff 4f       	sbci	r31, 0xFF	; 255
    664e:	91 83       	std	Z+1, r25	; 0x01
    6650:	80 83       	st	Z, r24
		while(__ticks)
		{
			// wait 1/10 ms
			_delay_loop_2(((F_CPU) / 4e3) / 10);
			__ticks --;
    6652:	de 01       	movw	r26, r28
    6654:	a7 5a       	subi	r26, 0xA7	; 167
    6656:	bf 4f       	sbci	r27, 0xFF	; 255
    6658:	fe 01       	movw	r30, r28
    665a:	e7 5a       	subi	r30, 0xA7	; 167
    665c:	ff 4f       	sbci	r31, 0xFF	; 255
    665e:	80 81       	ld	r24, Z
    6660:	91 81       	ldd	r25, Z+1	; 0x01
    6662:	01 97       	sbiw	r24, 0x01	; 1
    6664:	11 96       	adiw	r26, 0x01	; 1
    6666:	9c 93       	st	X, r25
    6668:	8e 93       	st	-X, r24
		__ticks = 1;
	else if (__tmp > 65535)
	{
		//	__ticks = requested delay in 1/10 ms
		__ticks = (uint16_t) (__ms * 10.0);
		while(__ticks)
    666a:	fe 01       	movw	r30, r28
    666c:	e7 5a       	subi	r30, 0xA7	; 167
    666e:	ff 4f       	sbci	r31, 0xFF	; 255
    6670:	80 81       	ld	r24, Z
    6672:	91 81       	ldd	r25, Z+1	; 0x01
    6674:	00 97       	sbiw	r24, 0x00	; 0
    6676:	d1 f6       	brne	.-76     	; 0x662c <APP_LCD_story+0x2aa6>
    6678:	27 c0       	rjmp	.+78     	; 0x66c8 <APP_LCD_story+0x2b42>
			__ticks --;
		}
		return;
	}
	else
		__ticks = (uint16_t)__tmp;
    667a:	8e 01       	movw	r16, r28
    667c:	07 5a       	subi	r16, 0xA7	; 167
    667e:	1f 4f       	sbci	r17, 0xFF	; 255
    6680:	fe 01       	movw	r30, r28
    6682:	e5 5a       	subi	r30, 0xA5	; 165
    6684:	ff 4f       	sbci	r31, 0xFF	; 255
    6686:	60 81       	ld	r22, Z
    6688:	71 81       	ldd	r23, Z+1	; 0x01
    668a:	82 81       	ldd	r24, Z+2	; 0x02
    668c:	93 81       	ldd	r25, Z+3	; 0x03
    668e:	0e 94 49 00 	call	0x92	; 0x92 <__fixunssfsi>
    6692:	dc 01       	movw	r26, r24
    6694:	cb 01       	movw	r24, r22
    6696:	f8 01       	movw	r30, r16
    6698:	91 83       	std	Z+1, r25	; 0x01
    669a:	80 83       	st	Z, r24
    669c:	de 01       	movw	r26, r28
    669e:	ab 5a       	subi	r26, 0xAB	; 171
    66a0:	bf 4f       	sbci	r27, 0xFF	; 255
    66a2:	fe 01       	movw	r30, r28
    66a4:	e7 5a       	subi	r30, 0xA7	; 167
    66a6:	ff 4f       	sbci	r31, 0xFF	; 255
    66a8:	80 81       	ld	r24, Z
    66aa:	91 81       	ldd	r25, Z+1	; 0x01
    66ac:	8d 93       	st	X+, r24
    66ae:	9c 93       	st	X, r25
    66b0:	fe 01       	movw	r30, r28
    66b2:	eb 5a       	subi	r30, 0xAB	; 171
    66b4:	ff 4f       	sbci	r31, 0xFF	; 255
    66b6:	80 81       	ld	r24, Z
    66b8:	91 81       	ldd	r25, Z+1	; 0x01
    66ba:	01 97       	sbiw	r24, 0x01	; 1
    66bc:	f1 f7       	brne	.-4      	; 0x66ba <APP_LCD_story+0x2b34>
    66be:	fe 01       	movw	r30, r28
    66c0:	eb 5a       	subi	r30, 0xAB	; 171
    66c2:	ff 4f       	sbci	r31, 0xFF	; 255
    66c4:	91 83       	std	Z+1, r25	; 0x01
    66c6:	80 83       	st	Z, r24
				_delay_ms(2000);

				APP_LCD_ClearLine1();
    66c8:	0e 94 a7 36 	call	0x6d4e	; 0x6d4e <APP_LCD_ClearLine1>
				LCD_void_SendString((u8*)"Let me try to");
    66cc:	80 e3       	ldi	r24, 0x30	; 48
    66ce:	92 e0       	ldi	r25, 0x02	; 2
    66d0:	0e 94 88 19 	call	0x3310	; 0x3310 <LCD_void_SendString>
    66d4:	fe 01       	movw	r30, r28
    66d6:	ef 5a       	subi	r30, 0xAF	; 175
    66d8:	ff 4f       	sbci	r31, 0xFF	; 255
    66da:	80 e0       	ldi	r24, 0x00	; 0
    66dc:	90 e0       	ldi	r25, 0x00	; 0
    66de:	aa ef       	ldi	r26, 0xFA	; 250
    66e0:	b4 e4       	ldi	r27, 0x44	; 68
    66e2:	80 83       	st	Z, r24
    66e4:	91 83       	std	Z+1, r25	; 0x01
    66e6:	a2 83       	std	Z+2, r26	; 0x02
    66e8:	b3 83       	std	Z+3, r27	; 0x03
 */
void
_delay_ms(double __ms)
{
	uint16_t __ticks;
	double __tmp = ((F_CPU) / 4e3) * __ms;
    66ea:	8e 01       	movw	r16, r28
    66ec:	03 5b       	subi	r16, 0xB3	; 179
    66ee:	1f 4f       	sbci	r17, 0xFF	; 255
    66f0:	fe 01       	movw	r30, r28
    66f2:	ef 5a       	subi	r30, 0xAF	; 175
    66f4:	ff 4f       	sbci	r31, 0xFF	; 255
    66f6:	60 81       	ld	r22, Z
    66f8:	71 81       	ldd	r23, Z+1	; 0x01
    66fa:	82 81       	ldd	r24, Z+2	; 0x02
    66fc:	93 81       	ldd	r25, Z+3	; 0x03
    66fe:	20 e0       	ldi	r18, 0x00	; 0
    6700:	30 e0       	ldi	r19, 0x00	; 0
    6702:	4a ef       	ldi	r20, 0xFA	; 250
    6704:	54 e4       	ldi	r21, 0x44	; 68
    6706:	0e 94 1f 02 	call	0x43e	; 0x43e <__mulsf3>
    670a:	dc 01       	movw	r26, r24
    670c:	cb 01       	movw	r24, r22
    670e:	f8 01       	movw	r30, r16
    6710:	80 83       	st	Z, r24
    6712:	91 83       	std	Z+1, r25	; 0x01
    6714:	a2 83       	std	Z+2, r26	; 0x02
    6716:	b3 83       	std	Z+3, r27	; 0x03
	if (__tmp < 1.0)
    6718:	fe 01       	movw	r30, r28
    671a:	e3 5b       	subi	r30, 0xB3	; 179
    671c:	ff 4f       	sbci	r31, 0xFF	; 255
    671e:	60 81       	ld	r22, Z
    6720:	71 81       	ldd	r23, Z+1	; 0x01
    6722:	82 81       	ldd	r24, Z+2	; 0x02
    6724:	93 81       	ldd	r25, Z+3	; 0x03
    6726:	20 e0       	ldi	r18, 0x00	; 0
    6728:	30 e0       	ldi	r19, 0x00	; 0
    672a:	40 e8       	ldi	r20, 0x80	; 128
    672c:	5f e3       	ldi	r21, 0x3F	; 63
    672e:	0e 94 25 04 	call	0x84a	; 0x84a <__ltsf2>
    6732:	88 23       	and	r24, r24
    6734:	44 f4       	brge	.+16     	; 0x6746 <APP_LCD_story+0x2bc0>
		__ticks = 1;
    6736:	fe 01       	movw	r30, r28
    6738:	e5 5b       	subi	r30, 0xB5	; 181
    673a:	ff 4f       	sbci	r31, 0xFF	; 255
    673c:	81 e0       	ldi	r24, 0x01	; 1
    673e:	90 e0       	ldi	r25, 0x00	; 0
    6740:	91 83       	std	Z+1, r25	; 0x01
    6742:	80 83       	st	Z, r24
    6744:	64 c0       	rjmp	.+200    	; 0x680e <APP_LCD_story+0x2c88>
	else if (__tmp > 65535)
    6746:	fe 01       	movw	r30, r28
    6748:	e3 5b       	subi	r30, 0xB3	; 179
    674a:	ff 4f       	sbci	r31, 0xFF	; 255
    674c:	60 81       	ld	r22, Z
    674e:	71 81       	ldd	r23, Z+1	; 0x01
    6750:	82 81       	ldd	r24, Z+2	; 0x02
    6752:	93 81       	ldd	r25, Z+3	; 0x03
    6754:	20 e0       	ldi	r18, 0x00	; 0
    6756:	3f ef       	ldi	r19, 0xFF	; 255
    6758:	4f e7       	ldi	r20, 0x7F	; 127
    675a:	57 e4       	ldi	r21, 0x47	; 71
    675c:	0e 94 c5 03 	call	0x78a	; 0x78a <__gtsf2>
    6760:	18 16       	cp	r1, r24
    6762:	0c f0       	brlt	.+2      	; 0x6766 <APP_LCD_story+0x2be0>
    6764:	43 c0       	rjmp	.+134    	; 0x67ec <APP_LCD_story+0x2c66>
	{
		//	__ticks = requested delay in 1/10 ms
		__ticks = (uint16_t) (__ms * 10.0);
    6766:	fe 01       	movw	r30, r28
    6768:	ef 5a       	subi	r30, 0xAF	; 175
    676a:	ff 4f       	sbci	r31, 0xFF	; 255
    676c:	60 81       	ld	r22, Z
    676e:	71 81       	ldd	r23, Z+1	; 0x01
    6770:	82 81       	ldd	r24, Z+2	; 0x02
    6772:	93 81       	ldd	r25, Z+3	; 0x03
    6774:	20 e0       	ldi	r18, 0x00	; 0
    6776:	30 e0       	ldi	r19, 0x00	; 0
    6778:	40 e2       	ldi	r20, 0x20	; 32
    677a:	51 e4       	ldi	r21, 0x41	; 65
    677c:	0e 94 1f 02 	call	0x43e	; 0x43e <__mulsf3>
    6780:	dc 01       	movw	r26, r24
    6782:	cb 01       	movw	r24, r22
    6784:	8e 01       	movw	r16, r28
    6786:	05 5b       	subi	r16, 0xB5	; 181
    6788:	1f 4f       	sbci	r17, 0xFF	; 255
    678a:	bc 01       	movw	r22, r24
    678c:	cd 01       	movw	r24, r26
    678e:	0e 94 49 00 	call	0x92	; 0x92 <__fixunssfsi>
    6792:	dc 01       	movw	r26, r24
    6794:	cb 01       	movw	r24, r22
    6796:	f8 01       	movw	r30, r16
    6798:	91 83       	std	Z+1, r25	; 0x01
    679a:	80 83       	st	Z, r24
    679c:	1f c0       	rjmp	.+62     	; 0x67dc <APP_LCD_story+0x2c56>
    679e:	fe 01       	movw	r30, r28
    67a0:	e7 5b       	subi	r30, 0xB7	; 183
    67a2:	ff 4f       	sbci	r31, 0xFF	; 255
    67a4:	88 ec       	ldi	r24, 0xC8	; 200
    67a6:	90 e0       	ldi	r25, 0x00	; 0
    67a8:	91 83       	std	Z+1, r25	; 0x01
    67aa:	80 83       	st	Z, r24
    67ac:	fe 01       	movw	r30, r28
    67ae:	e7 5b       	subi	r30, 0xB7	; 183
    67b0:	ff 4f       	sbci	r31, 0xFF	; 255
    67b2:	80 81       	ld	r24, Z
    67b4:	91 81       	ldd	r25, Z+1	; 0x01
    67b6:	01 97       	sbiw	r24, 0x01	; 1
    67b8:	f1 f7       	brne	.-4      	; 0x67b6 <APP_LCD_story+0x2c30>
    67ba:	fe 01       	movw	r30, r28
    67bc:	e7 5b       	subi	r30, 0xB7	; 183
    67be:	ff 4f       	sbci	r31, 0xFF	; 255
    67c0:	91 83       	std	Z+1, r25	; 0x01
    67c2:	80 83       	st	Z, r24
		while(__ticks)
		{
			// wait 1/10 ms
			_delay_loop_2(((F_CPU) / 4e3) / 10);
			__ticks --;
    67c4:	de 01       	movw	r26, r28
    67c6:	a5 5b       	subi	r26, 0xB5	; 181
    67c8:	bf 4f       	sbci	r27, 0xFF	; 255
    67ca:	fe 01       	movw	r30, r28
    67cc:	e5 5b       	subi	r30, 0xB5	; 181
    67ce:	ff 4f       	sbci	r31, 0xFF	; 255
    67d0:	80 81       	ld	r24, Z
    67d2:	91 81       	ldd	r25, Z+1	; 0x01
    67d4:	01 97       	sbiw	r24, 0x01	; 1
    67d6:	11 96       	adiw	r26, 0x01	; 1
    67d8:	9c 93       	st	X, r25
    67da:	8e 93       	st	-X, r24
		__ticks = 1;
	else if (__tmp > 65535)
	{
		//	__ticks = requested delay in 1/10 ms
		__ticks = (uint16_t) (__ms * 10.0);
		while(__ticks)
    67dc:	fe 01       	movw	r30, r28
    67de:	e5 5b       	subi	r30, 0xB5	; 181
    67e0:	ff 4f       	sbci	r31, 0xFF	; 255
    67e2:	80 81       	ld	r24, Z
    67e4:	91 81       	ldd	r25, Z+1	; 0x01
    67e6:	00 97       	sbiw	r24, 0x00	; 0
    67e8:	d1 f6       	brne	.-76     	; 0x679e <APP_LCD_story+0x2c18>
    67ea:	27 c0       	rjmp	.+78     	; 0x683a <APP_LCD_story+0x2cb4>
			__ticks --;
		}
		return;
	}
	else
		__ticks = (uint16_t)__tmp;
    67ec:	8e 01       	movw	r16, r28
    67ee:	05 5b       	subi	r16, 0xB5	; 181
    67f0:	1f 4f       	sbci	r17, 0xFF	; 255
    67f2:	fe 01       	movw	r30, r28
    67f4:	e3 5b       	subi	r30, 0xB3	; 179
    67f6:	ff 4f       	sbci	r31, 0xFF	; 255
    67f8:	60 81       	ld	r22, Z
    67fa:	71 81       	ldd	r23, Z+1	; 0x01
    67fc:	82 81       	ldd	r24, Z+2	; 0x02
    67fe:	93 81       	ldd	r25, Z+3	; 0x03
    6800:	0e 94 49 00 	call	0x92	; 0x92 <__fixunssfsi>
    6804:	dc 01       	movw	r26, r24
    6806:	cb 01       	movw	r24, r22
    6808:	f8 01       	movw	r30, r16
    680a:	91 83       	std	Z+1, r25	; 0x01
    680c:	80 83       	st	Z, r24
    680e:	de 01       	movw	r26, r28
    6810:	a9 5b       	subi	r26, 0xB9	; 185
    6812:	bf 4f       	sbci	r27, 0xFF	; 255
    6814:	fe 01       	movw	r30, r28
    6816:	e5 5b       	subi	r30, 0xB5	; 181
    6818:	ff 4f       	sbci	r31, 0xFF	; 255
    681a:	80 81       	ld	r24, Z
    681c:	91 81       	ldd	r25, Z+1	; 0x01
    681e:	8d 93       	st	X+, r24
    6820:	9c 93       	st	X, r25
    6822:	fe 01       	movw	r30, r28
    6824:	e9 5b       	subi	r30, 0xB9	; 185
    6826:	ff 4f       	sbci	r31, 0xFF	; 255
    6828:	80 81       	ld	r24, Z
    682a:	91 81       	ldd	r25, Z+1	; 0x01
    682c:	01 97       	sbiw	r24, 0x01	; 1
    682e:	f1 f7       	brne	.-4      	; 0x682c <APP_LCD_story+0x2ca6>
    6830:	fe 01       	movw	r30, r28
    6832:	e9 5b       	subi	r30, 0xB9	; 185
    6834:	ff 4f       	sbci	r31, 0xFF	; 255
    6836:	91 83       	std	Z+1, r25	; 0x01
    6838:	80 83       	st	Z, r24
				_delay_ms(2000);

				APP_LCD_ClearLine1();
    683a:	0e 94 a7 36 	call	0x6d4e	; 0x6d4e <APP_LCD_ClearLine1>
				LCD_void_SendString((u8*)"fix it again");
    683e:	8e e3       	ldi	r24, 0x3E	; 62
    6840:	92 e0       	ldi	r25, 0x02	; 2
    6842:	0e 94 88 19 	call	0x3310	; 0x3310 <LCD_void_SendString>
    6846:	fe 01       	movw	r30, r28
    6848:	ed 5b       	subi	r30, 0xBD	; 189
    684a:	ff 4f       	sbci	r31, 0xFF	; 255
    684c:	80 e0       	ldi	r24, 0x00	; 0
    684e:	90 e0       	ldi	r25, 0x00	; 0
    6850:	aa ef       	ldi	r26, 0xFA	; 250
    6852:	b4 e4       	ldi	r27, 0x44	; 68
    6854:	80 83       	st	Z, r24
    6856:	91 83       	std	Z+1, r25	; 0x01
    6858:	a2 83       	std	Z+2, r26	; 0x02
    685a:	b3 83       	std	Z+3, r27	; 0x03
 */
void
_delay_ms(double __ms)
{
	uint16_t __ticks;
	double __tmp = ((F_CPU) / 4e3) * __ms;
    685c:	8e 01       	movw	r16, r28
    685e:	01 5c       	subi	r16, 0xC1	; 193
    6860:	1f 4f       	sbci	r17, 0xFF	; 255
    6862:	fe 01       	movw	r30, r28
    6864:	ed 5b       	subi	r30, 0xBD	; 189
    6866:	ff 4f       	sbci	r31, 0xFF	; 255
    6868:	60 81       	ld	r22, Z
    686a:	71 81       	ldd	r23, Z+1	; 0x01
    686c:	82 81       	ldd	r24, Z+2	; 0x02
    686e:	93 81       	ldd	r25, Z+3	; 0x03
    6870:	20 e0       	ldi	r18, 0x00	; 0
    6872:	30 e0       	ldi	r19, 0x00	; 0
    6874:	4a ef       	ldi	r20, 0xFA	; 250
    6876:	54 e4       	ldi	r21, 0x44	; 68
    6878:	0e 94 1f 02 	call	0x43e	; 0x43e <__mulsf3>
    687c:	dc 01       	movw	r26, r24
    687e:	cb 01       	movw	r24, r22
    6880:	f8 01       	movw	r30, r16
    6882:	80 83       	st	Z, r24
    6884:	91 83       	std	Z+1, r25	; 0x01
    6886:	a2 83       	std	Z+2, r26	; 0x02
    6888:	b3 83       	std	Z+3, r27	; 0x03
	if (__tmp < 1.0)
    688a:	fe 01       	movw	r30, r28
    688c:	ff 96       	adiw	r30, 0x3f	; 63
    688e:	60 81       	ld	r22, Z
    6890:	71 81       	ldd	r23, Z+1	; 0x01
    6892:	82 81       	ldd	r24, Z+2	; 0x02
    6894:	93 81       	ldd	r25, Z+3	; 0x03
    6896:	20 e0       	ldi	r18, 0x00	; 0
    6898:	30 e0       	ldi	r19, 0x00	; 0
    689a:	40 e8       	ldi	r20, 0x80	; 128
    689c:	5f e3       	ldi	r21, 0x3F	; 63
    689e:	0e 94 25 04 	call	0x84a	; 0x84a <__ltsf2>
    68a2:	88 23       	and	r24, r24
    68a4:	2c f4       	brge	.+10     	; 0x68b0 <APP_LCD_story+0x2d2a>
		__ticks = 1;
    68a6:	81 e0       	ldi	r24, 0x01	; 1
    68a8:	90 e0       	ldi	r25, 0x00	; 0
    68aa:	9e af       	std	Y+62, r25	; 0x3e
    68ac:	8d af       	std	Y+61, r24	; 0x3d
    68ae:	46 c0       	rjmp	.+140    	; 0x693c <APP_LCD_story+0x2db6>
	else if (__tmp > 65535)
    68b0:	fe 01       	movw	r30, r28
    68b2:	ff 96       	adiw	r30, 0x3f	; 63
    68b4:	60 81       	ld	r22, Z
    68b6:	71 81       	ldd	r23, Z+1	; 0x01
    68b8:	82 81       	ldd	r24, Z+2	; 0x02
    68ba:	93 81       	ldd	r25, Z+3	; 0x03
    68bc:	20 e0       	ldi	r18, 0x00	; 0
    68be:	3f ef       	ldi	r19, 0xFF	; 255
    68c0:	4f e7       	ldi	r20, 0x7F	; 127
    68c2:	57 e4       	ldi	r21, 0x47	; 71
    68c4:	0e 94 c5 03 	call	0x78a	; 0x78a <__gtsf2>
    68c8:	18 16       	cp	r1, r24
    68ca:	64 f5       	brge	.+88     	; 0x6924 <APP_LCD_story+0x2d9e>
	{
		//	__ticks = requested delay in 1/10 ms
		__ticks = (uint16_t) (__ms * 10.0);
    68cc:	fe 01       	movw	r30, r28
    68ce:	ed 5b       	subi	r30, 0xBD	; 189
    68d0:	ff 4f       	sbci	r31, 0xFF	; 255
    68d2:	60 81       	ld	r22, Z
    68d4:	71 81       	ldd	r23, Z+1	; 0x01
    68d6:	82 81       	ldd	r24, Z+2	; 0x02
    68d8:	93 81       	ldd	r25, Z+3	; 0x03
    68da:	20 e0       	ldi	r18, 0x00	; 0
    68dc:	30 e0       	ldi	r19, 0x00	; 0
    68de:	40 e2       	ldi	r20, 0x20	; 32
    68e0:	51 e4       	ldi	r21, 0x41	; 65
    68e2:	0e 94 1f 02 	call	0x43e	; 0x43e <__mulsf3>
    68e6:	dc 01       	movw	r26, r24
    68e8:	cb 01       	movw	r24, r22
    68ea:	bc 01       	movw	r22, r24
    68ec:	cd 01       	movw	r24, r26
    68ee:	0e 94 49 00 	call	0x92	; 0x92 <__fixunssfsi>
    68f2:	dc 01       	movw	r26, r24
    68f4:	cb 01       	movw	r24, r22
    68f6:	9e af       	std	Y+62, r25	; 0x3e
    68f8:	8d af       	std	Y+61, r24	; 0x3d
    68fa:	0f c0       	rjmp	.+30     	; 0x691a <APP_LCD_story+0x2d94>
    68fc:	88 ec       	ldi	r24, 0xC8	; 200
    68fe:	90 e0       	ldi	r25, 0x00	; 0
    6900:	9c af       	std	Y+60, r25	; 0x3c
    6902:	8b af       	std	Y+59, r24	; 0x3b
    6904:	8b ad       	ldd	r24, Y+59	; 0x3b
    6906:	9c ad       	ldd	r25, Y+60	; 0x3c
    6908:	01 97       	sbiw	r24, 0x01	; 1
    690a:	f1 f7       	brne	.-4      	; 0x6908 <APP_LCD_story+0x2d82>
    690c:	9c af       	std	Y+60, r25	; 0x3c
    690e:	8b af       	std	Y+59, r24	; 0x3b
		while(__ticks)
		{
			// wait 1/10 ms
			_delay_loop_2(((F_CPU) / 4e3) / 10);
			__ticks --;
    6910:	8d ad       	ldd	r24, Y+61	; 0x3d
    6912:	9e ad       	ldd	r25, Y+62	; 0x3e
    6914:	01 97       	sbiw	r24, 0x01	; 1
    6916:	9e af       	std	Y+62, r25	; 0x3e
    6918:	8d af       	std	Y+61, r24	; 0x3d
		__ticks = 1;
	else if (__tmp > 65535)
	{
		//	__ticks = requested delay in 1/10 ms
		__ticks = (uint16_t) (__ms * 10.0);
		while(__ticks)
    691a:	8d ad       	ldd	r24, Y+61	; 0x3d
    691c:	9e ad       	ldd	r25, Y+62	; 0x3e
    691e:	00 97       	sbiw	r24, 0x00	; 0
    6920:	69 f7       	brne	.-38     	; 0x68fc <APP_LCD_story+0x2d76>
    6922:	16 c0       	rjmp	.+44     	; 0x6950 <APP_LCD_story+0x2dca>
			__ticks --;
		}
		return;
	}
	else
		__ticks = (uint16_t)__tmp;
    6924:	fe 01       	movw	r30, r28
    6926:	ff 96       	adiw	r30, 0x3f	; 63
    6928:	60 81       	ld	r22, Z
    692a:	71 81       	ldd	r23, Z+1	; 0x01
    692c:	82 81       	ldd	r24, Z+2	; 0x02
    692e:	93 81       	ldd	r25, Z+3	; 0x03
    6930:	0e 94 49 00 	call	0x92	; 0x92 <__fixunssfsi>
    6934:	dc 01       	movw	r26, r24
    6936:	cb 01       	movw	r24, r22
    6938:	9e af       	std	Y+62, r25	; 0x3e
    693a:	8d af       	std	Y+61, r24	; 0x3d
    693c:	8d ad       	ldd	r24, Y+61	; 0x3d
    693e:	9e ad       	ldd	r25, Y+62	; 0x3e
    6940:	9a af       	std	Y+58, r25	; 0x3a
    6942:	89 af       	std	Y+57, r24	; 0x39
    6944:	89 ad       	ldd	r24, Y+57	; 0x39
    6946:	9a ad       	ldd	r25, Y+58	; 0x3a
    6948:	01 97       	sbiw	r24, 0x01	; 1
    694a:	f1 f7       	brne	.-4      	; 0x6948 <APP_LCD_story+0x2dc2>
    694c:	9a af       	std	Y+58, r25	; 0x3a
    694e:	89 af       	std	Y+57, r24	; 0x39
				_delay_ms(2000);
				game_statues=0;
    6950:	fe 01       	movw	r30, r28
    6952:	e3 52       	subi	r30, 0x23	; 35
    6954:	fe 4f       	sbci	r31, 0xFE	; 254
    6956:	10 82       	st	Z, r1
			}
			game_statues=APP_LCD_TMR2_BUZZER_Control_bar();
    6958:	0e 94 e9 39 	call	0x73d2	; 0x73d2 <APP_LCD_TMR2_BUZZER_Control_bar>
    695c:	fe 01       	movw	r30, r28
    695e:	e3 52       	subi	r30, 0x23	; 35
    6960:	fe 4f       	sbci	r31, 0xFE	; 254
    6962:	80 83       	st	Z, r24

		APP_LCD_ClearLine1();
		LCD_void_SendString((u8*)"Your turn !!");

		u8 game_statues=0;
		while(game_statues != 1)
    6964:	fe 01       	movw	r30, r28
    6966:	e3 52       	subi	r30, 0x23	; 35
    6968:	fe 4f       	sbci	r31, 0xFE	; 254
    696a:	80 81       	ld	r24, Z
    696c:	81 30       	cpi	r24, 0x01	; 1
    696e:	09 f0       	breq	.+2      	; 0x6972 <APP_LCD_story+0x2dec>
    6970:	32 cd       	rjmp	.-1436   	; 0x63d6 <APP_LCD_story+0x2850>
				game_statues=0;
			}
			game_statues=APP_LCD_TMR2_BUZZER_Control_bar();
		}

		APP_LCD_ClearLine1();
    6972:	0e 94 a7 36 	call	0x6d4e	; 0x6d4e <APP_LCD_ClearLine1>
		LCD_void_SendString((u8*)"Welldone !!");
    6976:	8b e4       	ldi	r24, 0x4B	; 75
    6978:	92 e0       	ldi	r25, 0x02	; 2
    697a:	0e 94 88 19 	call	0x3310	; 0x3310 <LCD_void_SendString>
    697e:	80 e0       	ldi	r24, 0x00	; 0
    6980:	90 e0       	ldi	r25, 0x00	; 0
    6982:	aa ef       	ldi	r26, 0xFA	; 250
    6984:	b4 e4       	ldi	r27, 0x44	; 68
    6986:	8d ab       	std	Y+53, r24	; 0x35
    6988:	9e ab       	std	Y+54, r25	; 0x36
    698a:	af ab       	std	Y+55, r26	; 0x37
    698c:	b8 af       	std	Y+56, r27	; 0x38
 */
void
_delay_ms(double __ms)
{
	uint16_t __ticks;
	double __tmp = ((F_CPU) / 4e3) * __ms;
    698e:	6d a9       	ldd	r22, Y+53	; 0x35
    6990:	7e a9       	ldd	r23, Y+54	; 0x36
    6992:	8f a9       	ldd	r24, Y+55	; 0x37
    6994:	98 ad       	ldd	r25, Y+56	; 0x38
    6996:	20 e0       	ldi	r18, 0x00	; 0
    6998:	30 e0       	ldi	r19, 0x00	; 0
    699a:	4a ef       	ldi	r20, 0xFA	; 250
    699c:	54 e4       	ldi	r21, 0x44	; 68
    699e:	0e 94 1f 02 	call	0x43e	; 0x43e <__mulsf3>
    69a2:	dc 01       	movw	r26, r24
    69a4:	cb 01       	movw	r24, r22
    69a6:	89 ab       	std	Y+49, r24	; 0x31
    69a8:	9a ab       	std	Y+50, r25	; 0x32
    69aa:	ab ab       	std	Y+51, r26	; 0x33
    69ac:	bc ab       	std	Y+52, r27	; 0x34
	if (__tmp < 1.0)
    69ae:	69 a9       	ldd	r22, Y+49	; 0x31
    69b0:	7a a9       	ldd	r23, Y+50	; 0x32
    69b2:	8b a9       	ldd	r24, Y+51	; 0x33
    69b4:	9c a9       	ldd	r25, Y+52	; 0x34
    69b6:	20 e0       	ldi	r18, 0x00	; 0
    69b8:	30 e0       	ldi	r19, 0x00	; 0
    69ba:	40 e8       	ldi	r20, 0x80	; 128
    69bc:	5f e3       	ldi	r21, 0x3F	; 63
    69be:	0e 94 25 04 	call	0x84a	; 0x84a <__ltsf2>
    69c2:	88 23       	and	r24, r24
    69c4:	2c f4       	brge	.+10     	; 0x69d0 <APP_LCD_story+0x2e4a>
		__ticks = 1;
    69c6:	81 e0       	ldi	r24, 0x01	; 1
    69c8:	90 e0       	ldi	r25, 0x00	; 0
    69ca:	98 ab       	std	Y+48, r25	; 0x30
    69cc:	8f a7       	std	Y+47, r24	; 0x2f
    69ce:	3f c0       	rjmp	.+126    	; 0x6a4e <APP_LCD_story+0x2ec8>
	else if (__tmp > 65535)
    69d0:	69 a9       	ldd	r22, Y+49	; 0x31
    69d2:	7a a9       	ldd	r23, Y+50	; 0x32
    69d4:	8b a9       	ldd	r24, Y+51	; 0x33
    69d6:	9c a9       	ldd	r25, Y+52	; 0x34
    69d8:	20 e0       	ldi	r18, 0x00	; 0
    69da:	3f ef       	ldi	r19, 0xFF	; 255
    69dc:	4f e7       	ldi	r20, 0x7F	; 127
    69de:	57 e4       	ldi	r21, 0x47	; 71
    69e0:	0e 94 c5 03 	call	0x78a	; 0x78a <__gtsf2>
    69e4:	18 16       	cp	r1, r24
    69e6:	4c f5       	brge	.+82     	; 0x6a3a <APP_LCD_story+0x2eb4>
	{
		//	__ticks = requested delay in 1/10 ms
		__ticks = (uint16_t) (__ms * 10.0);
    69e8:	6d a9       	ldd	r22, Y+53	; 0x35
    69ea:	7e a9       	ldd	r23, Y+54	; 0x36
    69ec:	8f a9       	ldd	r24, Y+55	; 0x37
    69ee:	98 ad       	ldd	r25, Y+56	; 0x38
    69f0:	20 e0       	ldi	r18, 0x00	; 0
    69f2:	30 e0       	ldi	r19, 0x00	; 0
    69f4:	40 e2       	ldi	r20, 0x20	; 32
    69f6:	51 e4       	ldi	r21, 0x41	; 65
    69f8:	0e 94 1f 02 	call	0x43e	; 0x43e <__mulsf3>
    69fc:	dc 01       	movw	r26, r24
    69fe:	cb 01       	movw	r24, r22
    6a00:	bc 01       	movw	r22, r24
    6a02:	cd 01       	movw	r24, r26
    6a04:	0e 94 49 00 	call	0x92	; 0x92 <__fixunssfsi>
    6a08:	dc 01       	movw	r26, r24
    6a0a:	cb 01       	movw	r24, r22
    6a0c:	98 ab       	std	Y+48, r25	; 0x30
    6a0e:	8f a7       	std	Y+47, r24	; 0x2f
    6a10:	0f c0       	rjmp	.+30     	; 0x6a30 <APP_LCD_story+0x2eaa>
    6a12:	88 ec       	ldi	r24, 0xC8	; 200
    6a14:	90 e0       	ldi	r25, 0x00	; 0
    6a16:	9e a7       	std	Y+46, r25	; 0x2e
    6a18:	8d a7       	std	Y+45, r24	; 0x2d
    6a1a:	8d a5       	ldd	r24, Y+45	; 0x2d
    6a1c:	9e a5       	ldd	r25, Y+46	; 0x2e
    6a1e:	01 97       	sbiw	r24, 0x01	; 1
    6a20:	f1 f7       	brne	.-4      	; 0x6a1e <APP_LCD_story+0x2e98>
    6a22:	9e a7       	std	Y+46, r25	; 0x2e
    6a24:	8d a7       	std	Y+45, r24	; 0x2d
		while(__ticks)
		{
			// wait 1/10 ms
			_delay_loop_2(((F_CPU) / 4e3) / 10);
			__ticks --;
    6a26:	8f a5       	ldd	r24, Y+47	; 0x2f
    6a28:	98 a9       	ldd	r25, Y+48	; 0x30
    6a2a:	01 97       	sbiw	r24, 0x01	; 1
    6a2c:	98 ab       	std	Y+48, r25	; 0x30
    6a2e:	8f a7       	std	Y+47, r24	; 0x2f
		__ticks = 1;
	else if (__tmp > 65535)
	{
		//	__ticks = requested delay in 1/10 ms
		__ticks = (uint16_t) (__ms * 10.0);
		while(__ticks)
    6a30:	8f a5       	ldd	r24, Y+47	; 0x2f
    6a32:	98 a9       	ldd	r25, Y+48	; 0x30
    6a34:	00 97       	sbiw	r24, 0x00	; 0
    6a36:	69 f7       	brne	.-38     	; 0x6a12 <APP_LCD_story+0x2e8c>
    6a38:	14 c0       	rjmp	.+40     	; 0x6a62 <APP_LCD_story+0x2edc>
			__ticks --;
		}
		return;
	}
	else
		__ticks = (uint16_t)__tmp;
    6a3a:	69 a9       	ldd	r22, Y+49	; 0x31
    6a3c:	7a a9       	ldd	r23, Y+50	; 0x32
    6a3e:	8b a9       	ldd	r24, Y+51	; 0x33
    6a40:	9c a9       	ldd	r25, Y+52	; 0x34
    6a42:	0e 94 49 00 	call	0x92	; 0x92 <__fixunssfsi>
    6a46:	dc 01       	movw	r26, r24
    6a48:	cb 01       	movw	r24, r22
    6a4a:	98 ab       	std	Y+48, r25	; 0x30
    6a4c:	8f a7       	std	Y+47, r24	; 0x2f
    6a4e:	8f a5       	ldd	r24, Y+47	; 0x2f
    6a50:	98 a9       	ldd	r25, Y+48	; 0x30
    6a52:	9c a7       	std	Y+44, r25	; 0x2c
    6a54:	8b a7       	std	Y+43, r24	; 0x2b
    6a56:	8b a5       	ldd	r24, Y+43	; 0x2b
    6a58:	9c a5       	ldd	r25, Y+44	; 0x2c
    6a5a:	01 97       	sbiw	r24, 0x01	; 1
    6a5c:	f1 f7       	brne	.-4      	; 0x6a5a <APP_LCD_story+0x2ed4>
    6a5e:	9c a7       	std	Y+44, r25	; 0x2c
    6a60:	8b a7       	std	Y+43, r24	; 0x2b
		_delay_ms(2000);

		APP_LCD_ClearLine1();
    6a62:	0e 94 a7 36 	call	0x6d4e	; 0x6d4e <APP_LCD_ClearLine1>
		LCD_void_SendString((u8*)"i feel sleepy");
    6a66:	87 e5       	ldi	r24, 0x57	; 87
    6a68:	92 e0       	ldi	r25, 0x02	; 2
    6a6a:	0e 94 88 19 	call	0x3310	; 0x3310 <LCD_void_SendString>
    6a6e:	80 e0       	ldi	r24, 0x00	; 0
    6a70:	90 e0       	ldi	r25, 0x00	; 0
    6a72:	aa ef       	ldi	r26, 0xFA	; 250
    6a74:	b4 e4       	ldi	r27, 0x44	; 68
    6a76:	8f a3       	std	Y+39, r24	; 0x27
    6a78:	98 a7       	std	Y+40, r25	; 0x28
    6a7a:	a9 a7       	std	Y+41, r26	; 0x29
    6a7c:	ba a7       	std	Y+42, r27	; 0x2a
 */
void
_delay_ms(double __ms)
{
	uint16_t __ticks;
	double __tmp = ((F_CPU) / 4e3) * __ms;
    6a7e:	6f a1       	ldd	r22, Y+39	; 0x27
    6a80:	78 a5       	ldd	r23, Y+40	; 0x28
    6a82:	89 a5       	ldd	r24, Y+41	; 0x29
    6a84:	9a a5       	ldd	r25, Y+42	; 0x2a
    6a86:	20 e0       	ldi	r18, 0x00	; 0
    6a88:	30 e0       	ldi	r19, 0x00	; 0
    6a8a:	4a ef       	ldi	r20, 0xFA	; 250
    6a8c:	54 e4       	ldi	r21, 0x44	; 68
    6a8e:	0e 94 1f 02 	call	0x43e	; 0x43e <__mulsf3>
    6a92:	dc 01       	movw	r26, r24
    6a94:	cb 01       	movw	r24, r22
    6a96:	8b a3       	std	Y+35, r24	; 0x23
    6a98:	9c a3       	std	Y+36, r25	; 0x24
    6a9a:	ad a3       	std	Y+37, r26	; 0x25
    6a9c:	be a3       	std	Y+38, r27	; 0x26
	if (__tmp < 1.0)
    6a9e:	6b a1       	ldd	r22, Y+35	; 0x23
    6aa0:	7c a1       	ldd	r23, Y+36	; 0x24
    6aa2:	8d a1       	ldd	r24, Y+37	; 0x25
    6aa4:	9e a1       	ldd	r25, Y+38	; 0x26
    6aa6:	20 e0       	ldi	r18, 0x00	; 0
    6aa8:	30 e0       	ldi	r19, 0x00	; 0
    6aaa:	40 e8       	ldi	r20, 0x80	; 128
    6aac:	5f e3       	ldi	r21, 0x3F	; 63
    6aae:	0e 94 25 04 	call	0x84a	; 0x84a <__ltsf2>
    6ab2:	88 23       	and	r24, r24
    6ab4:	2c f4       	brge	.+10     	; 0x6ac0 <APP_LCD_story+0x2f3a>
		__ticks = 1;
    6ab6:	81 e0       	ldi	r24, 0x01	; 1
    6ab8:	90 e0       	ldi	r25, 0x00	; 0
    6aba:	9a a3       	std	Y+34, r25	; 0x22
    6abc:	89 a3       	std	Y+33, r24	; 0x21
    6abe:	3f c0       	rjmp	.+126    	; 0x6b3e <APP_LCD_story+0x2fb8>
	else if (__tmp > 65535)
    6ac0:	6b a1       	ldd	r22, Y+35	; 0x23
    6ac2:	7c a1       	ldd	r23, Y+36	; 0x24
    6ac4:	8d a1       	ldd	r24, Y+37	; 0x25
    6ac6:	9e a1       	ldd	r25, Y+38	; 0x26
    6ac8:	20 e0       	ldi	r18, 0x00	; 0
    6aca:	3f ef       	ldi	r19, 0xFF	; 255
    6acc:	4f e7       	ldi	r20, 0x7F	; 127
    6ace:	57 e4       	ldi	r21, 0x47	; 71
    6ad0:	0e 94 c5 03 	call	0x78a	; 0x78a <__gtsf2>
    6ad4:	18 16       	cp	r1, r24
    6ad6:	4c f5       	brge	.+82     	; 0x6b2a <APP_LCD_story+0x2fa4>
	{
		//	__ticks = requested delay in 1/10 ms
		__ticks = (uint16_t) (__ms * 10.0);
    6ad8:	6f a1       	ldd	r22, Y+39	; 0x27
    6ada:	78 a5       	ldd	r23, Y+40	; 0x28
    6adc:	89 a5       	ldd	r24, Y+41	; 0x29
    6ade:	9a a5       	ldd	r25, Y+42	; 0x2a
    6ae0:	20 e0       	ldi	r18, 0x00	; 0
    6ae2:	30 e0       	ldi	r19, 0x00	; 0
    6ae4:	40 e2       	ldi	r20, 0x20	; 32
    6ae6:	51 e4       	ldi	r21, 0x41	; 65
    6ae8:	0e 94 1f 02 	call	0x43e	; 0x43e <__mulsf3>
    6aec:	dc 01       	movw	r26, r24
    6aee:	cb 01       	movw	r24, r22
    6af0:	bc 01       	movw	r22, r24
    6af2:	cd 01       	movw	r24, r26
    6af4:	0e 94 49 00 	call	0x92	; 0x92 <__fixunssfsi>
    6af8:	dc 01       	movw	r26, r24
    6afa:	cb 01       	movw	r24, r22
    6afc:	9a a3       	std	Y+34, r25	; 0x22
    6afe:	89 a3       	std	Y+33, r24	; 0x21
    6b00:	0f c0       	rjmp	.+30     	; 0x6b20 <APP_LCD_story+0x2f9a>
    6b02:	88 ec       	ldi	r24, 0xC8	; 200
    6b04:	90 e0       	ldi	r25, 0x00	; 0
    6b06:	98 a3       	std	Y+32, r25	; 0x20
    6b08:	8f 8f       	std	Y+31, r24	; 0x1f
    6b0a:	8f 8d       	ldd	r24, Y+31	; 0x1f
    6b0c:	98 a1       	ldd	r25, Y+32	; 0x20
    6b0e:	01 97       	sbiw	r24, 0x01	; 1
    6b10:	f1 f7       	brne	.-4      	; 0x6b0e <APP_LCD_story+0x2f88>
    6b12:	98 a3       	std	Y+32, r25	; 0x20
    6b14:	8f 8f       	std	Y+31, r24	; 0x1f
		while(__ticks)
		{
			// wait 1/10 ms
			_delay_loop_2(((F_CPU) / 4e3) / 10);
			__ticks --;
    6b16:	89 a1       	ldd	r24, Y+33	; 0x21
    6b18:	9a a1       	ldd	r25, Y+34	; 0x22
    6b1a:	01 97       	sbiw	r24, 0x01	; 1
    6b1c:	9a a3       	std	Y+34, r25	; 0x22
    6b1e:	89 a3       	std	Y+33, r24	; 0x21
		__ticks = 1;
	else if (__tmp > 65535)
	{
		//	__ticks = requested delay in 1/10 ms
		__ticks = (uint16_t) (__ms * 10.0);
		while(__ticks)
    6b20:	89 a1       	ldd	r24, Y+33	; 0x21
    6b22:	9a a1       	ldd	r25, Y+34	; 0x22
    6b24:	00 97       	sbiw	r24, 0x00	; 0
    6b26:	69 f7       	brne	.-38     	; 0x6b02 <APP_LCD_story+0x2f7c>
    6b28:	14 c0       	rjmp	.+40     	; 0x6b52 <APP_LCD_story+0x2fcc>
			__ticks --;
		}
		return;
	}
	else
		__ticks = (uint16_t)__tmp;
    6b2a:	6b a1       	ldd	r22, Y+35	; 0x23
    6b2c:	7c a1       	ldd	r23, Y+36	; 0x24
    6b2e:	8d a1       	ldd	r24, Y+37	; 0x25
    6b30:	9e a1       	ldd	r25, Y+38	; 0x26
    6b32:	0e 94 49 00 	call	0x92	; 0x92 <__fixunssfsi>
    6b36:	dc 01       	movw	r26, r24
    6b38:	cb 01       	movw	r24, r22
    6b3a:	9a a3       	std	Y+34, r25	; 0x22
    6b3c:	89 a3       	std	Y+33, r24	; 0x21
    6b3e:	89 a1       	ldd	r24, Y+33	; 0x21
    6b40:	9a a1       	ldd	r25, Y+34	; 0x22
    6b42:	9e 8f       	std	Y+30, r25	; 0x1e
    6b44:	8d 8f       	std	Y+29, r24	; 0x1d
    6b46:	8d 8d       	ldd	r24, Y+29	; 0x1d
    6b48:	9e 8d       	ldd	r25, Y+30	; 0x1e
    6b4a:	01 97       	sbiw	r24, 0x01	; 1
    6b4c:	f1 f7       	brne	.-4      	; 0x6b4a <APP_LCD_story+0x2fc4>
    6b4e:	9e 8f       	std	Y+30, r25	; 0x1e
    6b50:	8d 8f       	std	Y+29, r24	; 0x1d
		_delay_ms(2000);

		APP_LCD_ClearLine1();
    6b52:	0e 94 a7 36 	call	0x6d4e	; 0x6d4e <APP_LCD_ClearLine1>
		LCD_void_SendString((u8*)"i feel sleepy");
    6b56:	87 e5       	ldi	r24, 0x57	; 87
    6b58:	92 e0       	ldi	r25, 0x02	; 2
    6b5a:	0e 94 88 19 	call	0x3310	; 0x3310 <LCD_void_SendString>
    6b5e:	80 e0       	ldi	r24, 0x00	; 0
    6b60:	90 e0       	ldi	r25, 0x00	; 0
    6b62:	aa ef       	ldi	r26, 0xFA	; 250
    6b64:	b4 e4       	ldi	r27, 0x44	; 68
    6b66:	89 8f       	std	Y+25, r24	; 0x19
    6b68:	9a 8f       	std	Y+26, r25	; 0x1a
    6b6a:	ab 8f       	std	Y+27, r26	; 0x1b
    6b6c:	bc 8f       	std	Y+28, r27	; 0x1c
 */
void
_delay_ms(double __ms)
{
	uint16_t __ticks;
	double __tmp = ((F_CPU) / 4e3) * __ms;
    6b6e:	69 8d       	ldd	r22, Y+25	; 0x19
    6b70:	7a 8d       	ldd	r23, Y+26	; 0x1a
    6b72:	8b 8d       	ldd	r24, Y+27	; 0x1b
    6b74:	9c 8d       	ldd	r25, Y+28	; 0x1c
    6b76:	20 e0       	ldi	r18, 0x00	; 0
    6b78:	30 e0       	ldi	r19, 0x00	; 0
    6b7a:	4a ef       	ldi	r20, 0xFA	; 250
    6b7c:	54 e4       	ldi	r21, 0x44	; 68
    6b7e:	0e 94 1f 02 	call	0x43e	; 0x43e <__mulsf3>
    6b82:	dc 01       	movw	r26, r24
    6b84:	cb 01       	movw	r24, r22
    6b86:	8d 8b       	std	Y+21, r24	; 0x15
    6b88:	9e 8b       	std	Y+22, r25	; 0x16
    6b8a:	af 8b       	std	Y+23, r26	; 0x17
    6b8c:	b8 8f       	std	Y+24, r27	; 0x18
	if (__tmp < 1.0)
    6b8e:	6d 89       	ldd	r22, Y+21	; 0x15
    6b90:	7e 89       	ldd	r23, Y+22	; 0x16
    6b92:	8f 89       	ldd	r24, Y+23	; 0x17
    6b94:	98 8d       	ldd	r25, Y+24	; 0x18
    6b96:	20 e0       	ldi	r18, 0x00	; 0
    6b98:	30 e0       	ldi	r19, 0x00	; 0
    6b9a:	40 e8       	ldi	r20, 0x80	; 128
    6b9c:	5f e3       	ldi	r21, 0x3F	; 63
    6b9e:	0e 94 25 04 	call	0x84a	; 0x84a <__ltsf2>
    6ba2:	88 23       	and	r24, r24
    6ba4:	2c f4       	brge	.+10     	; 0x6bb0 <APP_LCD_story+0x302a>
		__ticks = 1;
    6ba6:	81 e0       	ldi	r24, 0x01	; 1
    6ba8:	90 e0       	ldi	r25, 0x00	; 0
    6baa:	9c 8b       	std	Y+20, r25	; 0x14
    6bac:	8b 8b       	std	Y+19, r24	; 0x13
    6bae:	3f c0       	rjmp	.+126    	; 0x6c2e <APP_LCD_story+0x30a8>
	else if (__tmp > 65535)
    6bb0:	6d 89       	ldd	r22, Y+21	; 0x15
    6bb2:	7e 89       	ldd	r23, Y+22	; 0x16
    6bb4:	8f 89       	ldd	r24, Y+23	; 0x17
    6bb6:	98 8d       	ldd	r25, Y+24	; 0x18
    6bb8:	20 e0       	ldi	r18, 0x00	; 0
    6bba:	3f ef       	ldi	r19, 0xFF	; 255
    6bbc:	4f e7       	ldi	r20, 0x7F	; 127
    6bbe:	57 e4       	ldi	r21, 0x47	; 71
    6bc0:	0e 94 c5 03 	call	0x78a	; 0x78a <__gtsf2>
    6bc4:	18 16       	cp	r1, r24
    6bc6:	4c f5       	brge	.+82     	; 0x6c1a <APP_LCD_story+0x3094>
	{
		//	__ticks = requested delay in 1/10 ms
		__ticks = (uint16_t) (__ms * 10.0);
    6bc8:	69 8d       	ldd	r22, Y+25	; 0x19
    6bca:	7a 8d       	ldd	r23, Y+26	; 0x1a
    6bcc:	8b 8d       	ldd	r24, Y+27	; 0x1b
    6bce:	9c 8d       	ldd	r25, Y+28	; 0x1c
    6bd0:	20 e0       	ldi	r18, 0x00	; 0
    6bd2:	30 e0       	ldi	r19, 0x00	; 0
    6bd4:	40 e2       	ldi	r20, 0x20	; 32
    6bd6:	51 e4       	ldi	r21, 0x41	; 65
    6bd8:	0e 94 1f 02 	call	0x43e	; 0x43e <__mulsf3>
    6bdc:	dc 01       	movw	r26, r24
    6bde:	cb 01       	movw	r24, r22
    6be0:	bc 01       	movw	r22, r24
    6be2:	cd 01       	movw	r24, r26
    6be4:	0e 94 49 00 	call	0x92	; 0x92 <__fixunssfsi>
    6be8:	dc 01       	movw	r26, r24
    6bea:	cb 01       	movw	r24, r22
    6bec:	9c 8b       	std	Y+20, r25	; 0x14
    6bee:	8b 8b       	std	Y+19, r24	; 0x13
    6bf0:	0f c0       	rjmp	.+30     	; 0x6c10 <APP_LCD_story+0x308a>
    6bf2:	88 ec       	ldi	r24, 0xC8	; 200
    6bf4:	90 e0       	ldi	r25, 0x00	; 0
    6bf6:	9a 8b       	std	Y+18, r25	; 0x12
    6bf8:	89 8b       	std	Y+17, r24	; 0x11
    6bfa:	89 89       	ldd	r24, Y+17	; 0x11
    6bfc:	9a 89       	ldd	r25, Y+18	; 0x12
    6bfe:	01 97       	sbiw	r24, 0x01	; 1
    6c00:	f1 f7       	brne	.-4      	; 0x6bfe <APP_LCD_story+0x3078>
    6c02:	9a 8b       	std	Y+18, r25	; 0x12
    6c04:	89 8b       	std	Y+17, r24	; 0x11
		while(__ticks)
		{
			// wait 1/10 ms
			_delay_loop_2(((F_CPU) / 4e3) / 10);
			__ticks --;
    6c06:	8b 89       	ldd	r24, Y+19	; 0x13
    6c08:	9c 89       	ldd	r25, Y+20	; 0x14
    6c0a:	01 97       	sbiw	r24, 0x01	; 1
    6c0c:	9c 8b       	std	Y+20, r25	; 0x14
    6c0e:	8b 8b       	std	Y+19, r24	; 0x13
		__ticks = 1;
	else if (__tmp > 65535)
	{
		//	__ticks = requested delay in 1/10 ms
		__ticks = (uint16_t) (__ms * 10.0);
		while(__ticks)
    6c10:	8b 89       	ldd	r24, Y+19	; 0x13
    6c12:	9c 89       	ldd	r25, Y+20	; 0x14
    6c14:	00 97       	sbiw	r24, 0x00	; 0
    6c16:	69 f7       	brne	.-38     	; 0x6bf2 <APP_LCD_story+0x306c>
    6c18:	14 c0       	rjmp	.+40     	; 0x6c42 <APP_LCD_story+0x30bc>
			__ticks --;
		}
		return;
	}
	else
		__ticks = (uint16_t)__tmp;
    6c1a:	6d 89       	ldd	r22, Y+21	; 0x15
    6c1c:	7e 89       	ldd	r23, Y+22	; 0x16
    6c1e:	8f 89       	ldd	r24, Y+23	; 0x17
    6c20:	98 8d       	ldd	r25, Y+24	; 0x18
    6c22:	0e 94 49 00 	call	0x92	; 0x92 <__fixunssfsi>
    6c26:	dc 01       	movw	r26, r24
    6c28:	cb 01       	movw	r24, r22
    6c2a:	9c 8b       	std	Y+20, r25	; 0x14
    6c2c:	8b 8b       	std	Y+19, r24	; 0x13
    6c2e:	8b 89       	ldd	r24, Y+19	; 0x13
    6c30:	9c 89       	ldd	r25, Y+20	; 0x14
    6c32:	98 8b       	std	Y+16, r25	; 0x10
    6c34:	8f 87       	std	Y+15, r24	; 0x0f
    6c36:	8f 85       	ldd	r24, Y+15	; 0x0f
    6c38:	98 89       	ldd	r25, Y+16	; 0x10
    6c3a:	01 97       	sbiw	r24, 0x01	; 1
    6c3c:	f1 f7       	brne	.-4      	; 0x6c3a <APP_LCD_story+0x30b4>
    6c3e:	98 8b       	std	Y+16, r25	; 0x10
    6c40:	8f 87       	std	Y+15, r24	; 0x0f
		_delay_ms(2000);

		APP_LCD_ClearLine1();
    6c42:	0e 94 a7 36 	call	0x6d4e	; 0x6d4e <APP_LCD_ClearLine1>
		LCD_void_SendString((u8*)"see u next game");
    6c46:	85 e6       	ldi	r24, 0x65	; 101
    6c48:	92 e0       	ldi	r25, 0x02	; 2
    6c4a:	0e 94 88 19 	call	0x3310	; 0x3310 <LCD_void_SendString>
    6c4e:	80 e0       	ldi	r24, 0x00	; 0
    6c50:	90 e0       	ldi	r25, 0x00	; 0
    6c52:	aa ef       	ldi	r26, 0xFA	; 250
    6c54:	b4 e4       	ldi	r27, 0x44	; 68
    6c56:	8b 87       	std	Y+11, r24	; 0x0b
    6c58:	9c 87       	std	Y+12, r25	; 0x0c
    6c5a:	ad 87       	std	Y+13, r26	; 0x0d
    6c5c:	be 87       	std	Y+14, r27	; 0x0e
 */
void
_delay_ms(double __ms)
{
	uint16_t __ticks;
	double __tmp = ((F_CPU) / 4e3) * __ms;
    6c5e:	6b 85       	ldd	r22, Y+11	; 0x0b
    6c60:	7c 85       	ldd	r23, Y+12	; 0x0c
    6c62:	8d 85       	ldd	r24, Y+13	; 0x0d
    6c64:	9e 85       	ldd	r25, Y+14	; 0x0e
    6c66:	20 e0       	ldi	r18, 0x00	; 0
    6c68:	30 e0       	ldi	r19, 0x00	; 0
    6c6a:	4a ef       	ldi	r20, 0xFA	; 250
    6c6c:	54 e4       	ldi	r21, 0x44	; 68
    6c6e:	0e 94 1f 02 	call	0x43e	; 0x43e <__mulsf3>
    6c72:	dc 01       	movw	r26, r24
    6c74:	cb 01       	movw	r24, r22
    6c76:	8f 83       	std	Y+7, r24	; 0x07
    6c78:	98 87       	std	Y+8, r25	; 0x08
    6c7a:	a9 87       	std	Y+9, r26	; 0x09
    6c7c:	ba 87       	std	Y+10, r27	; 0x0a
	if (__tmp < 1.0)
    6c7e:	6f 81       	ldd	r22, Y+7	; 0x07
    6c80:	78 85       	ldd	r23, Y+8	; 0x08
    6c82:	89 85       	ldd	r24, Y+9	; 0x09
    6c84:	9a 85       	ldd	r25, Y+10	; 0x0a
    6c86:	20 e0       	ldi	r18, 0x00	; 0
    6c88:	30 e0       	ldi	r19, 0x00	; 0
    6c8a:	40 e8       	ldi	r20, 0x80	; 128
    6c8c:	5f e3       	ldi	r21, 0x3F	; 63
    6c8e:	0e 94 25 04 	call	0x84a	; 0x84a <__ltsf2>
    6c92:	88 23       	and	r24, r24
    6c94:	2c f4       	brge	.+10     	; 0x6ca0 <APP_LCD_story+0x311a>
		__ticks = 1;
    6c96:	81 e0       	ldi	r24, 0x01	; 1
    6c98:	90 e0       	ldi	r25, 0x00	; 0
    6c9a:	9e 83       	std	Y+6, r25	; 0x06
    6c9c:	8d 83       	std	Y+5, r24	; 0x05
    6c9e:	3f c0       	rjmp	.+126    	; 0x6d1e <APP_LCD_story+0x3198>
	else if (__tmp > 65535)
    6ca0:	6f 81       	ldd	r22, Y+7	; 0x07
    6ca2:	78 85       	ldd	r23, Y+8	; 0x08
    6ca4:	89 85       	ldd	r24, Y+9	; 0x09
    6ca6:	9a 85       	ldd	r25, Y+10	; 0x0a
    6ca8:	20 e0       	ldi	r18, 0x00	; 0
    6caa:	3f ef       	ldi	r19, 0xFF	; 255
    6cac:	4f e7       	ldi	r20, 0x7F	; 127
    6cae:	57 e4       	ldi	r21, 0x47	; 71
    6cb0:	0e 94 c5 03 	call	0x78a	; 0x78a <__gtsf2>
    6cb4:	18 16       	cp	r1, r24
    6cb6:	4c f5       	brge	.+82     	; 0x6d0a <APP_LCD_story+0x3184>
	{
		//	__ticks = requested delay in 1/10 ms
		__ticks = (uint16_t) (__ms * 10.0);
    6cb8:	6b 85       	ldd	r22, Y+11	; 0x0b
    6cba:	7c 85       	ldd	r23, Y+12	; 0x0c
    6cbc:	8d 85       	ldd	r24, Y+13	; 0x0d
    6cbe:	9e 85       	ldd	r25, Y+14	; 0x0e
    6cc0:	20 e0       	ldi	r18, 0x00	; 0
    6cc2:	30 e0       	ldi	r19, 0x00	; 0
    6cc4:	40 e2       	ldi	r20, 0x20	; 32
    6cc6:	51 e4       	ldi	r21, 0x41	; 65
    6cc8:	0e 94 1f 02 	call	0x43e	; 0x43e <__mulsf3>
    6ccc:	dc 01       	movw	r26, r24
    6cce:	cb 01       	movw	r24, r22
    6cd0:	bc 01       	movw	r22, r24
    6cd2:	cd 01       	movw	r24, r26
    6cd4:	0e 94 49 00 	call	0x92	; 0x92 <__fixunssfsi>
    6cd8:	dc 01       	movw	r26, r24
    6cda:	cb 01       	movw	r24, r22
    6cdc:	9e 83       	std	Y+6, r25	; 0x06
    6cde:	8d 83       	std	Y+5, r24	; 0x05
    6ce0:	0f c0       	rjmp	.+30     	; 0x6d00 <APP_LCD_story+0x317a>
    6ce2:	88 ec       	ldi	r24, 0xC8	; 200
    6ce4:	90 e0       	ldi	r25, 0x00	; 0
    6ce6:	9c 83       	std	Y+4, r25	; 0x04
    6ce8:	8b 83       	std	Y+3, r24	; 0x03
    6cea:	8b 81       	ldd	r24, Y+3	; 0x03
    6cec:	9c 81       	ldd	r25, Y+4	; 0x04
    6cee:	01 97       	sbiw	r24, 0x01	; 1
    6cf0:	f1 f7       	brne	.-4      	; 0x6cee <APP_LCD_story+0x3168>
    6cf2:	9c 83       	std	Y+4, r25	; 0x04
    6cf4:	8b 83       	std	Y+3, r24	; 0x03
		while(__ticks)
		{
			// wait 1/10 ms
			_delay_loop_2(((F_CPU) / 4e3) / 10);
			__ticks --;
    6cf6:	8d 81       	ldd	r24, Y+5	; 0x05
    6cf8:	9e 81       	ldd	r25, Y+6	; 0x06
    6cfa:	01 97       	sbiw	r24, 0x01	; 1
    6cfc:	9e 83       	std	Y+6, r25	; 0x06
    6cfe:	8d 83       	std	Y+5, r24	; 0x05
		__ticks = 1;
	else if (__tmp > 65535)
	{
		//	__ticks = requested delay in 1/10 ms
		__ticks = (uint16_t) (__ms * 10.0);
		while(__ticks)
    6d00:	8d 81       	ldd	r24, Y+5	; 0x05
    6d02:	9e 81       	ldd	r25, Y+6	; 0x06
    6d04:	00 97       	sbiw	r24, 0x00	; 0
    6d06:	69 f7       	brne	.-38     	; 0x6ce2 <APP_LCD_story+0x315c>
    6d08:	14 c0       	rjmp	.+40     	; 0x6d32 <APP_LCD_story+0x31ac>
			__ticks --;
		}
		return;
	}
	else
		__ticks = (uint16_t)__tmp;
    6d0a:	6f 81       	ldd	r22, Y+7	; 0x07
    6d0c:	78 85       	ldd	r23, Y+8	; 0x08
    6d0e:	89 85       	ldd	r24, Y+9	; 0x09
    6d10:	9a 85       	ldd	r25, Y+10	; 0x0a
    6d12:	0e 94 49 00 	call	0x92	; 0x92 <__fixunssfsi>
    6d16:	dc 01       	movw	r26, r24
    6d18:	cb 01       	movw	r24, r22
    6d1a:	9e 83       	std	Y+6, r25	; 0x06
    6d1c:	8d 83       	std	Y+5, r24	; 0x05
    6d1e:	8d 81       	ldd	r24, Y+5	; 0x05
    6d20:	9e 81       	ldd	r25, Y+6	; 0x06
    6d22:	9a 83       	std	Y+2, r25	; 0x02
    6d24:	89 83       	std	Y+1, r24	; 0x01
    6d26:	89 81       	ldd	r24, Y+1	; 0x01
    6d28:	9a 81       	ldd	r25, Y+2	; 0x02
    6d2a:	01 97       	sbiw	r24, 0x01	; 1
    6d2c:	f1 f7       	brne	.-4      	; 0x6d2a <APP_LCD_story+0x31a4>
    6d2e:	9a 83       	std	Y+2, r25	; 0x02
    6d30:	89 83       	std	Y+1, r24	; 0x01
		_delay_ms(2000);

		LCD_Off();
    6d32:	0e 94 58 1a 	call	0x34b0	; 0x34b0 <LCD_Off>
}
    6d36:	c3 52       	subi	r28, 0x23	; 35
    6d38:	de 4f       	sbci	r29, 0xFE	; 254
    6d3a:	0f b6       	in	r0, 0x3f	; 63
    6d3c:	f8 94       	cli
    6d3e:	de bf       	out	0x3e, r29	; 62
    6d40:	0f be       	out	0x3f, r0	; 63
    6d42:	cd bf       	out	0x3d, r28	; 61
    6d44:	cf 91       	pop	r28
    6d46:	df 91       	pop	r29
    6d48:	1f 91       	pop	r17
    6d4a:	0f 91       	pop	r16
    6d4c:	08 95       	ret

00006d4e <APP_LCD_ClearLine1>:
void APP_LCD_ClearLine1(void)
{
    6d4e:	df 93       	push	r29
    6d50:	cf 93       	push	r28
    6d52:	cd b7       	in	r28, 0x3d	; 61
    6d54:	de b7       	in	r29, 0x3e	; 62
	LCD_GoTO(1,1);
    6d56:	81 e0       	ldi	r24, 0x01	; 1
    6d58:	61 e0       	ldi	r22, 0x01	; 1
    6d5a:	0e 94 a4 19 	call	0x3348	; 0x3348 <LCD_GoTO>
	LCD_void_SendString((u8*)"                     ");
    6d5e:	85 e7       	ldi	r24, 0x75	; 117
    6d60:	92 e0       	ldi	r25, 0x02	; 2
    6d62:	0e 94 88 19 	call	0x3310	; 0x3310 <LCD_void_SendString>
	LCD_GoTO(1,1);
    6d66:	81 e0       	ldi	r24, 0x01	; 1
    6d68:	61 e0       	ldi	r22, 0x01	; 1
    6d6a:	0e 94 a4 19 	call	0x3348	; 0x3348 <LCD_GoTO>
}
    6d6e:	cf 91       	pop	r28
    6d70:	df 91       	pop	r29
    6d72:	08 95       	ret

00006d74 <APP_LCD_Hi>:
void APP_LCD_Hi(void)
{
    6d74:	df 93       	push	r29
    6d76:	cf 93       	push	r28
    6d78:	cd b7       	in	r28, 0x3d	; 61
    6d7a:	de b7       	in	r29, 0x3e	; 62
    6d7c:	e8 97       	sbiw	r28, 0x38	; 56
    6d7e:	0f b6       	in	r0, 0x3f	; 63
    6d80:	f8 94       	cli
    6d82:	de bf       	out	0x3e, r29	; 62
    6d84:	0f be       	out	0x3f, r0	; 63
    6d86:	cd bf       	out	0x3d, r28	; 61
	LCD_GoTO(Stickman_position,2);
    6d88:	80 91 12 04 	lds	r24, 0x0412
    6d8c:	62 e0       	ldi	r22, 0x02	; 2
    6d8e:	0e 94 a4 19 	call	0x3348	; 0x3348 <LCD_GoTO>
	LCD_void_Data(0x00);
    6d92:	80 e0       	ldi	r24, 0x00	; 0
    6d94:	0e 94 63 16 	call	0x2cc6	; 0x2cc6 <LCD_void_Data>
    6d98:	80 e0       	ldi	r24, 0x00	; 0
    6d9a:	90 e0       	ldi	r25, 0x00	; 0
    6d9c:	aa e7       	ldi	r26, 0x7A	; 122
    6d9e:	b4 e4       	ldi	r27, 0x44	; 68
    6da0:	8d ab       	std	Y+53, r24	; 0x35
    6da2:	9e ab       	std	Y+54, r25	; 0x36
    6da4:	af ab       	std	Y+55, r26	; 0x37
    6da6:	b8 af       	std	Y+56, r27	; 0x38
 */
void
_delay_ms(double __ms)
{
	uint16_t __ticks;
	double __tmp = ((F_CPU) / 4e3) * __ms;
    6da8:	6d a9       	ldd	r22, Y+53	; 0x35
    6daa:	7e a9       	ldd	r23, Y+54	; 0x36
    6dac:	8f a9       	ldd	r24, Y+55	; 0x37
    6dae:	98 ad       	ldd	r25, Y+56	; 0x38
    6db0:	20 e0       	ldi	r18, 0x00	; 0
    6db2:	30 e0       	ldi	r19, 0x00	; 0
    6db4:	4a ef       	ldi	r20, 0xFA	; 250
    6db6:	54 e4       	ldi	r21, 0x44	; 68
    6db8:	0e 94 1f 02 	call	0x43e	; 0x43e <__mulsf3>
    6dbc:	dc 01       	movw	r26, r24
    6dbe:	cb 01       	movw	r24, r22
    6dc0:	89 ab       	std	Y+49, r24	; 0x31
    6dc2:	9a ab       	std	Y+50, r25	; 0x32
    6dc4:	ab ab       	std	Y+51, r26	; 0x33
    6dc6:	bc ab       	std	Y+52, r27	; 0x34
	if (__tmp < 1.0)
    6dc8:	69 a9       	ldd	r22, Y+49	; 0x31
    6dca:	7a a9       	ldd	r23, Y+50	; 0x32
    6dcc:	8b a9       	ldd	r24, Y+51	; 0x33
    6dce:	9c a9       	ldd	r25, Y+52	; 0x34
    6dd0:	20 e0       	ldi	r18, 0x00	; 0
    6dd2:	30 e0       	ldi	r19, 0x00	; 0
    6dd4:	40 e8       	ldi	r20, 0x80	; 128
    6dd6:	5f e3       	ldi	r21, 0x3F	; 63
    6dd8:	0e 94 25 04 	call	0x84a	; 0x84a <__ltsf2>
    6ddc:	88 23       	and	r24, r24
    6dde:	2c f4       	brge	.+10     	; 0x6dea <APP_LCD_Hi+0x76>
		__ticks = 1;
    6de0:	81 e0       	ldi	r24, 0x01	; 1
    6de2:	90 e0       	ldi	r25, 0x00	; 0
    6de4:	98 ab       	std	Y+48, r25	; 0x30
    6de6:	8f a7       	std	Y+47, r24	; 0x2f
    6de8:	3f c0       	rjmp	.+126    	; 0x6e68 <APP_LCD_Hi+0xf4>
	else if (__tmp > 65535)
    6dea:	69 a9       	ldd	r22, Y+49	; 0x31
    6dec:	7a a9       	ldd	r23, Y+50	; 0x32
    6dee:	8b a9       	ldd	r24, Y+51	; 0x33
    6df0:	9c a9       	ldd	r25, Y+52	; 0x34
    6df2:	20 e0       	ldi	r18, 0x00	; 0
    6df4:	3f ef       	ldi	r19, 0xFF	; 255
    6df6:	4f e7       	ldi	r20, 0x7F	; 127
    6df8:	57 e4       	ldi	r21, 0x47	; 71
    6dfa:	0e 94 c5 03 	call	0x78a	; 0x78a <__gtsf2>
    6dfe:	18 16       	cp	r1, r24
    6e00:	4c f5       	brge	.+82     	; 0x6e54 <APP_LCD_Hi+0xe0>
	{
		//	__ticks = requested delay in 1/10 ms
		__ticks = (uint16_t) (__ms * 10.0);
    6e02:	6d a9       	ldd	r22, Y+53	; 0x35
    6e04:	7e a9       	ldd	r23, Y+54	; 0x36
    6e06:	8f a9       	ldd	r24, Y+55	; 0x37
    6e08:	98 ad       	ldd	r25, Y+56	; 0x38
    6e0a:	20 e0       	ldi	r18, 0x00	; 0
    6e0c:	30 e0       	ldi	r19, 0x00	; 0
    6e0e:	40 e2       	ldi	r20, 0x20	; 32
    6e10:	51 e4       	ldi	r21, 0x41	; 65
    6e12:	0e 94 1f 02 	call	0x43e	; 0x43e <__mulsf3>
    6e16:	dc 01       	movw	r26, r24
    6e18:	cb 01       	movw	r24, r22
    6e1a:	bc 01       	movw	r22, r24
    6e1c:	cd 01       	movw	r24, r26
    6e1e:	0e 94 49 00 	call	0x92	; 0x92 <__fixunssfsi>
    6e22:	dc 01       	movw	r26, r24
    6e24:	cb 01       	movw	r24, r22
    6e26:	98 ab       	std	Y+48, r25	; 0x30
    6e28:	8f a7       	std	Y+47, r24	; 0x2f
    6e2a:	0f c0       	rjmp	.+30     	; 0x6e4a <APP_LCD_Hi+0xd6>
    6e2c:	88 ec       	ldi	r24, 0xC8	; 200
    6e2e:	90 e0       	ldi	r25, 0x00	; 0
    6e30:	9e a7       	std	Y+46, r25	; 0x2e
    6e32:	8d a7       	std	Y+45, r24	; 0x2d
    6e34:	8d a5       	ldd	r24, Y+45	; 0x2d
    6e36:	9e a5       	ldd	r25, Y+46	; 0x2e
    6e38:	01 97       	sbiw	r24, 0x01	; 1
    6e3a:	f1 f7       	brne	.-4      	; 0x6e38 <APP_LCD_Hi+0xc4>
    6e3c:	9e a7       	std	Y+46, r25	; 0x2e
    6e3e:	8d a7       	std	Y+45, r24	; 0x2d
		while(__ticks)
		{
			// wait 1/10 ms
			_delay_loop_2(((F_CPU) / 4e3) / 10);
			__ticks --;
    6e40:	8f a5       	ldd	r24, Y+47	; 0x2f
    6e42:	98 a9       	ldd	r25, Y+48	; 0x30
    6e44:	01 97       	sbiw	r24, 0x01	; 1
    6e46:	98 ab       	std	Y+48, r25	; 0x30
    6e48:	8f a7       	std	Y+47, r24	; 0x2f
		__ticks = 1;
	else if (__tmp > 65535)
	{
		//	__ticks = requested delay in 1/10 ms
		__ticks = (uint16_t) (__ms * 10.0);
		while(__ticks)
    6e4a:	8f a5       	ldd	r24, Y+47	; 0x2f
    6e4c:	98 a9       	ldd	r25, Y+48	; 0x30
    6e4e:	00 97       	sbiw	r24, 0x00	; 0
    6e50:	69 f7       	brne	.-38     	; 0x6e2c <APP_LCD_Hi+0xb8>
    6e52:	14 c0       	rjmp	.+40     	; 0x6e7c <APP_LCD_Hi+0x108>
			__ticks --;
		}
		return;
	}
	else
		__ticks = (uint16_t)__tmp;
    6e54:	69 a9       	ldd	r22, Y+49	; 0x31
    6e56:	7a a9       	ldd	r23, Y+50	; 0x32
    6e58:	8b a9       	ldd	r24, Y+51	; 0x33
    6e5a:	9c a9       	ldd	r25, Y+52	; 0x34
    6e5c:	0e 94 49 00 	call	0x92	; 0x92 <__fixunssfsi>
    6e60:	dc 01       	movw	r26, r24
    6e62:	cb 01       	movw	r24, r22
    6e64:	98 ab       	std	Y+48, r25	; 0x30
    6e66:	8f a7       	std	Y+47, r24	; 0x2f
    6e68:	8f a5       	ldd	r24, Y+47	; 0x2f
    6e6a:	98 a9       	ldd	r25, Y+48	; 0x30
    6e6c:	9c a7       	std	Y+44, r25	; 0x2c
    6e6e:	8b a7       	std	Y+43, r24	; 0x2b
    6e70:	8b a5       	ldd	r24, Y+43	; 0x2b
    6e72:	9c a5       	ldd	r25, Y+44	; 0x2c
    6e74:	01 97       	sbiw	r24, 0x01	; 1
    6e76:	f1 f7       	brne	.-4      	; 0x6e74 <APP_LCD_Hi+0x100>
    6e78:	9c a7       	std	Y+44, r25	; 0x2c
    6e7a:	8b a7       	std	Y+43, r24	; 0x2b
	_delay_ms(1000);
	LCD_GoTO(Stickman_position,2);
    6e7c:	80 91 12 04 	lds	r24, 0x0412
    6e80:	62 e0       	ldi	r22, 0x02	; 2
    6e82:	0e 94 a4 19 	call	0x3348	; 0x3348 <LCD_GoTO>
	LCD_void_Data(0x01);
    6e86:	81 e0       	ldi	r24, 0x01	; 1
    6e88:	0e 94 63 16 	call	0x2cc6	; 0x2cc6 <LCD_void_Data>
    6e8c:	80 e0       	ldi	r24, 0x00	; 0
    6e8e:	90 e0       	ldi	r25, 0x00	; 0
    6e90:	aa e7       	ldi	r26, 0x7A	; 122
    6e92:	b4 e4       	ldi	r27, 0x44	; 68
    6e94:	8f a3       	std	Y+39, r24	; 0x27
    6e96:	98 a7       	std	Y+40, r25	; 0x28
    6e98:	a9 a7       	std	Y+41, r26	; 0x29
    6e9a:	ba a7       	std	Y+42, r27	; 0x2a
 */
void
_delay_ms(double __ms)
{
	uint16_t __ticks;
	double __tmp = ((F_CPU) / 4e3) * __ms;
    6e9c:	6f a1       	ldd	r22, Y+39	; 0x27
    6e9e:	78 a5       	ldd	r23, Y+40	; 0x28
    6ea0:	89 a5       	ldd	r24, Y+41	; 0x29
    6ea2:	9a a5       	ldd	r25, Y+42	; 0x2a
    6ea4:	20 e0       	ldi	r18, 0x00	; 0
    6ea6:	30 e0       	ldi	r19, 0x00	; 0
    6ea8:	4a ef       	ldi	r20, 0xFA	; 250
    6eaa:	54 e4       	ldi	r21, 0x44	; 68
    6eac:	0e 94 1f 02 	call	0x43e	; 0x43e <__mulsf3>
    6eb0:	dc 01       	movw	r26, r24
    6eb2:	cb 01       	movw	r24, r22
    6eb4:	8b a3       	std	Y+35, r24	; 0x23
    6eb6:	9c a3       	std	Y+36, r25	; 0x24
    6eb8:	ad a3       	std	Y+37, r26	; 0x25
    6eba:	be a3       	std	Y+38, r27	; 0x26
	if (__tmp < 1.0)
    6ebc:	6b a1       	ldd	r22, Y+35	; 0x23
    6ebe:	7c a1       	ldd	r23, Y+36	; 0x24
    6ec0:	8d a1       	ldd	r24, Y+37	; 0x25
    6ec2:	9e a1       	ldd	r25, Y+38	; 0x26
    6ec4:	20 e0       	ldi	r18, 0x00	; 0
    6ec6:	30 e0       	ldi	r19, 0x00	; 0
    6ec8:	40 e8       	ldi	r20, 0x80	; 128
    6eca:	5f e3       	ldi	r21, 0x3F	; 63
    6ecc:	0e 94 25 04 	call	0x84a	; 0x84a <__ltsf2>
    6ed0:	88 23       	and	r24, r24
    6ed2:	2c f4       	brge	.+10     	; 0x6ede <APP_LCD_Hi+0x16a>
		__ticks = 1;
    6ed4:	81 e0       	ldi	r24, 0x01	; 1
    6ed6:	90 e0       	ldi	r25, 0x00	; 0
    6ed8:	9a a3       	std	Y+34, r25	; 0x22
    6eda:	89 a3       	std	Y+33, r24	; 0x21
    6edc:	3f c0       	rjmp	.+126    	; 0x6f5c <APP_LCD_Hi+0x1e8>
	else if (__tmp > 65535)
    6ede:	6b a1       	ldd	r22, Y+35	; 0x23
    6ee0:	7c a1       	ldd	r23, Y+36	; 0x24
    6ee2:	8d a1       	ldd	r24, Y+37	; 0x25
    6ee4:	9e a1       	ldd	r25, Y+38	; 0x26
    6ee6:	20 e0       	ldi	r18, 0x00	; 0
    6ee8:	3f ef       	ldi	r19, 0xFF	; 255
    6eea:	4f e7       	ldi	r20, 0x7F	; 127
    6eec:	57 e4       	ldi	r21, 0x47	; 71
    6eee:	0e 94 c5 03 	call	0x78a	; 0x78a <__gtsf2>
    6ef2:	18 16       	cp	r1, r24
    6ef4:	4c f5       	brge	.+82     	; 0x6f48 <APP_LCD_Hi+0x1d4>
	{
		//	__ticks = requested delay in 1/10 ms
		__ticks = (uint16_t) (__ms * 10.0);
    6ef6:	6f a1       	ldd	r22, Y+39	; 0x27
    6ef8:	78 a5       	ldd	r23, Y+40	; 0x28
    6efa:	89 a5       	ldd	r24, Y+41	; 0x29
    6efc:	9a a5       	ldd	r25, Y+42	; 0x2a
    6efe:	20 e0       	ldi	r18, 0x00	; 0
    6f00:	30 e0       	ldi	r19, 0x00	; 0
    6f02:	40 e2       	ldi	r20, 0x20	; 32
    6f04:	51 e4       	ldi	r21, 0x41	; 65
    6f06:	0e 94 1f 02 	call	0x43e	; 0x43e <__mulsf3>
    6f0a:	dc 01       	movw	r26, r24
    6f0c:	cb 01       	movw	r24, r22
    6f0e:	bc 01       	movw	r22, r24
    6f10:	cd 01       	movw	r24, r26
    6f12:	0e 94 49 00 	call	0x92	; 0x92 <__fixunssfsi>
    6f16:	dc 01       	movw	r26, r24
    6f18:	cb 01       	movw	r24, r22
    6f1a:	9a a3       	std	Y+34, r25	; 0x22
    6f1c:	89 a3       	std	Y+33, r24	; 0x21
    6f1e:	0f c0       	rjmp	.+30     	; 0x6f3e <APP_LCD_Hi+0x1ca>
    6f20:	88 ec       	ldi	r24, 0xC8	; 200
    6f22:	90 e0       	ldi	r25, 0x00	; 0
    6f24:	98 a3       	std	Y+32, r25	; 0x20
    6f26:	8f 8f       	std	Y+31, r24	; 0x1f
    6f28:	8f 8d       	ldd	r24, Y+31	; 0x1f
    6f2a:	98 a1       	ldd	r25, Y+32	; 0x20
    6f2c:	01 97       	sbiw	r24, 0x01	; 1
    6f2e:	f1 f7       	brne	.-4      	; 0x6f2c <APP_LCD_Hi+0x1b8>
    6f30:	98 a3       	std	Y+32, r25	; 0x20
    6f32:	8f 8f       	std	Y+31, r24	; 0x1f
		while(__ticks)
		{
			// wait 1/10 ms
			_delay_loop_2(((F_CPU) / 4e3) / 10);
			__ticks --;
    6f34:	89 a1       	ldd	r24, Y+33	; 0x21
    6f36:	9a a1       	ldd	r25, Y+34	; 0x22
    6f38:	01 97       	sbiw	r24, 0x01	; 1
    6f3a:	9a a3       	std	Y+34, r25	; 0x22
    6f3c:	89 a3       	std	Y+33, r24	; 0x21
		__ticks = 1;
	else if (__tmp > 65535)
	{
		//	__ticks = requested delay in 1/10 ms
		__ticks = (uint16_t) (__ms * 10.0);
		while(__ticks)
    6f3e:	89 a1       	ldd	r24, Y+33	; 0x21
    6f40:	9a a1       	ldd	r25, Y+34	; 0x22
    6f42:	00 97       	sbiw	r24, 0x00	; 0
    6f44:	69 f7       	brne	.-38     	; 0x6f20 <APP_LCD_Hi+0x1ac>
    6f46:	14 c0       	rjmp	.+40     	; 0x6f70 <APP_LCD_Hi+0x1fc>
			__ticks --;
		}
		return;
	}
	else
		__ticks = (uint16_t)__tmp;
    6f48:	6b a1       	ldd	r22, Y+35	; 0x23
    6f4a:	7c a1       	ldd	r23, Y+36	; 0x24
    6f4c:	8d a1       	ldd	r24, Y+37	; 0x25
    6f4e:	9e a1       	ldd	r25, Y+38	; 0x26
    6f50:	0e 94 49 00 	call	0x92	; 0x92 <__fixunssfsi>
    6f54:	dc 01       	movw	r26, r24
    6f56:	cb 01       	movw	r24, r22
    6f58:	9a a3       	std	Y+34, r25	; 0x22
    6f5a:	89 a3       	std	Y+33, r24	; 0x21
    6f5c:	89 a1       	ldd	r24, Y+33	; 0x21
    6f5e:	9a a1       	ldd	r25, Y+34	; 0x22
    6f60:	9e 8f       	std	Y+30, r25	; 0x1e
    6f62:	8d 8f       	std	Y+29, r24	; 0x1d
    6f64:	8d 8d       	ldd	r24, Y+29	; 0x1d
    6f66:	9e 8d       	ldd	r25, Y+30	; 0x1e
    6f68:	01 97       	sbiw	r24, 0x01	; 1
    6f6a:	f1 f7       	brne	.-4      	; 0x6f68 <APP_LCD_Hi+0x1f4>
    6f6c:	9e 8f       	std	Y+30, r25	; 0x1e
    6f6e:	8d 8f       	std	Y+29, r24	; 0x1d
	_delay_ms(1000);
	LCD_GoTO(Stickman_position,2);
    6f70:	80 91 12 04 	lds	r24, 0x0412
    6f74:	62 e0       	ldi	r22, 0x02	; 2
    6f76:	0e 94 a4 19 	call	0x3348	; 0x3348 <LCD_GoTO>
	LCD_void_Data(0x00);
    6f7a:	80 e0       	ldi	r24, 0x00	; 0
    6f7c:	0e 94 63 16 	call	0x2cc6	; 0x2cc6 <LCD_void_Data>
    6f80:	80 e0       	ldi	r24, 0x00	; 0
    6f82:	90 e0       	ldi	r25, 0x00	; 0
    6f84:	aa e7       	ldi	r26, 0x7A	; 122
    6f86:	b4 e4       	ldi	r27, 0x44	; 68
    6f88:	89 8f       	std	Y+25, r24	; 0x19
    6f8a:	9a 8f       	std	Y+26, r25	; 0x1a
    6f8c:	ab 8f       	std	Y+27, r26	; 0x1b
    6f8e:	bc 8f       	std	Y+28, r27	; 0x1c
 */
void
_delay_ms(double __ms)
{
	uint16_t __ticks;
	double __tmp = ((F_CPU) / 4e3) * __ms;
    6f90:	69 8d       	ldd	r22, Y+25	; 0x19
    6f92:	7a 8d       	ldd	r23, Y+26	; 0x1a
    6f94:	8b 8d       	ldd	r24, Y+27	; 0x1b
    6f96:	9c 8d       	ldd	r25, Y+28	; 0x1c
    6f98:	20 e0       	ldi	r18, 0x00	; 0
    6f9a:	30 e0       	ldi	r19, 0x00	; 0
    6f9c:	4a ef       	ldi	r20, 0xFA	; 250
    6f9e:	54 e4       	ldi	r21, 0x44	; 68
    6fa0:	0e 94 1f 02 	call	0x43e	; 0x43e <__mulsf3>
    6fa4:	dc 01       	movw	r26, r24
    6fa6:	cb 01       	movw	r24, r22
    6fa8:	8d 8b       	std	Y+21, r24	; 0x15
    6faa:	9e 8b       	std	Y+22, r25	; 0x16
    6fac:	af 8b       	std	Y+23, r26	; 0x17
    6fae:	b8 8f       	std	Y+24, r27	; 0x18
	if (__tmp < 1.0)
    6fb0:	6d 89       	ldd	r22, Y+21	; 0x15
    6fb2:	7e 89       	ldd	r23, Y+22	; 0x16
    6fb4:	8f 89       	ldd	r24, Y+23	; 0x17
    6fb6:	98 8d       	ldd	r25, Y+24	; 0x18
    6fb8:	20 e0       	ldi	r18, 0x00	; 0
    6fba:	30 e0       	ldi	r19, 0x00	; 0
    6fbc:	40 e8       	ldi	r20, 0x80	; 128
    6fbe:	5f e3       	ldi	r21, 0x3F	; 63
    6fc0:	0e 94 25 04 	call	0x84a	; 0x84a <__ltsf2>
    6fc4:	88 23       	and	r24, r24
    6fc6:	2c f4       	brge	.+10     	; 0x6fd2 <APP_LCD_Hi+0x25e>
		__ticks = 1;
    6fc8:	81 e0       	ldi	r24, 0x01	; 1
    6fca:	90 e0       	ldi	r25, 0x00	; 0
    6fcc:	9c 8b       	std	Y+20, r25	; 0x14
    6fce:	8b 8b       	std	Y+19, r24	; 0x13
    6fd0:	3f c0       	rjmp	.+126    	; 0x7050 <APP_LCD_Hi+0x2dc>
	else if (__tmp > 65535)
    6fd2:	6d 89       	ldd	r22, Y+21	; 0x15
    6fd4:	7e 89       	ldd	r23, Y+22	; 0x16
    6fd6:	8f 89       	ldd	r24, Y+23	; 0x17
    6fd8:	98 8d       	ldd	r25, Y+24	; 0x18
    6fda:	20 e0       	ldi	r18, 0x00	; 0
    6fdc:	3f ef       	ldi	r19, 0xFF	; 255
    6fde:	4f e7       	ldi	r20, 0x7F	; 127
    6fe0:	57 e4       	ldi	r21, 0x47	; 71
    6fe2:	0e 94 c5 03 	call	0x78a	; 0x78a <__gtsf2>
    6fe6:	18 16       	cp	r1, r24
    6fe8:	4c f5       	brge	.+82     	; 0x703c <APP_LCD_Hi+0x2c8>
	{
		//	__ticks = requested delay in 1/10 ms
		__ticks = (uint16_t) (__ms * 10.0);
    6fea:	69 8d       	ldd	r22, Y+25	; 0x19
    6fec:	7a 8d       	ldd	r23, Y+26	; 0x1a
    6fee:	8b 8d       	ldd	r24, Y+27	; 0x1b
    6ff0:	9c 8d       	ldd	r25, Y+28	; 0x1c
    6ff2:	20 e0       	ldi	r18, 0x00	; 0
    6ff4:	30 e0       	ldi	r19, 0x00	; 0
    6ff6:	40 e2       	ldi	r20, 0x20	; 32
    6ff8:	51 e4       	ldi	r21, 0x41	; 65
    6ffa:	0e 94 1f 02 	call	0x43e	; 0x43e <__mulsf3>
    6ffe:	dc 01       	movw	r26, r24
    7000:	cb 01       	movw	r24, r22
    7002:	bc 01       	movw	r22, r24
    7004:	cd 01       	movw	r24, r26
    7006:	0e 94 49 00 	call	0x92	; 0x92 <__fixunssfsi>
    700a:	dc 01       	movw	r26, r24
    700c:	cb 01       	movw	r24, r22
    700e:	9c 8b       	std	Y+20, r25	; 0x14
    7010:	8b 8b       	std	Y+19, r24	; 0x13
    7012:	0f c0       	rjmp	.+30     	; 0x7032 <APP_LCD_Hi+0x2be>
    7014:	88 ec       	ldi	r24, 0xC8	; 200
    7016:	90 e0       	ldi	r25, 0x00	; 0
    7018:	9a 8b       	std	Y+18, r25	; 0x12
    701a:	89 8b       	std	Y+17, r24	; 0x11
    701c:	89 89       	ldd	r24, Y+17	; 0x11
    701e:	9a 89       	ldd	r25, Y+18	; 0x12
    7020:	01 97       	sbiw	r24, 0x01	; 1
    7022:	f1 f7       	brne	.-4      	; 0x7020 <APP_LCD_Hi+0x2ac>
    7024:	9a 8b       	std	Y+18, r25	; 0x12
    7026:	89 8b       	std	Y+17, r24	; 0x11
		while(__ticks)
		{
			// wait 1/10 ms
			_delay_loop_2(((F_CPU) / 4e3) / 10);
			__ticks --;
    7028:	8b 89       	ldd	r24, Y+19	; 0x13
    702a:	9c 89       	ldd	r25, Y+20	; 0x14
    702c:	01 97       	sbiw	r24, 0x01	; 1
    702e:	9c 8b       	std	Y+20, r25	; 0x14
    7030:	8b 8b       	std	Y+19, r24	; 0x13
		__ticks = 1;
	else if (__tmp > 65535)
	{
		//	__ticks = requested delay in 1/10 ms
		__ticks = (uint16_t) (__ms * 10.0);
		while(__ticks)
    7032:	8b 89       	ldd	r24, Y+19	; 0x13
    7034:	9c 89       	ldd	r25, Y+20	; 0x14
    7036:	00 97       	sbiw	r24, 0x00	; 0
    7038:	69 f7       	brne	.-38     	; 0x7014 <APP_LCD_Hi+0x2a0>
    703a:	14 c0       	rjmp	.+40     	; 0x7064 <APP_LCD_Hi+0x2f0>
			__ticks --;
		}
		return;
	}
	else
		__ticks = (uint16_t)__tmp;
    703c:	6d 89       	ldd	r22, Y+21	; 0x15
    703e:	7e 89       	ldd	r23, Y+22	; 0x16
    7040:	8f 89       	ldd	r24, Y+23	; 0x17
    7042:	98 8d       	ldd	r25, Y+24	; 0x18
    7044:	0e 94 49 00 	call	0x92	; 0x92 <__fixunssfsi>
    7048:	dc 01       	movw	r26, r24
    704a:	cb 01       	movw	r24, r22
    704c:	9c 8b       	std	Y+20, r25	; 0x14
    704e:	8b 8b       	std	Y+19, r24	; 0x13
    7050:	8b 89       	ldd	r24, Y+19	; 0x13
    7052:	9c 89       	ldd	r25, Y+20	; 0x14
    7054:	98 8b       	std	Y+16, r25	; 0x10
    7056:	8f 87       	std	Y+15, r24	; 0x0f
    7058:	8f 85       	ldd	r24, Y+15	; 0x0f
    705a:	98 89       	ldd	r25, Y+16	; 0x10
    705c:	01 97       	sbiw	r24, 0x01	; 1
    705e:	f1 f7       	brne	.-4      	; 0x705c <APP_LCD_Hi+0x2e8>
    7060:	98 8b       	std	Y+16, r25	; 0x10
    7062:	8f 87       	std	Y+15, r24	; 0x0f
	_delay_ms(1000);
	LCD_GoTO(Stickman_position,2);
    7064:	80 91 12 04 	lds	r24, 0x0412
    7068:	62 e0       	ldi	r22, 0x02	; 2
    706a:	0e 94 a4 19 	call	0x3348	; 0x3348 <LCD_GoTO>
	LCD_void_Data(0x01);
    706e:	81 e0       	ldi	r24, 0x01	; 1
    7070:	0e 94 63 16 	call	0x2cc6	; 0x2cc6 <LCD_void_Data>
    7074:	80 e0       	ldi	r24, 0x00	; 0
    7076:	90 e0       	ldi	r25, 0x00	; 0
    7078:	aa e7       	ldi	r26, 0x7A	; 122
    707a:	b4 e4       	ldi	r27, 0x44	; 68
    707c:	8b 87       	std	Y+11, r24	; 0x0b
    707e:	9c 87       	std	Y+12, r25	; 0x0c
    7080:	ad 87       	std	Y+13, r26	; 0x0d
    7082:	be 87       	std	Y+14, r27	; 0x0e
 */
void
_delay_ms(double __ms)
{
	uint16_t __ticks;
	double __tmp = ((F_CPU) / 4e3) * __ms;
    7084:	6b 85       	ldd	r22, Y+11	; 0x0b
    7086:	7c 85       	ldd	r23, Y+12	; 0x0c
    7088:	8d 85       	ldd	r24, Y+13	; 0x0d
    708a:	9e 85       	ldd	r25, Y+14	; 0x0e
    708c:	20 e0       	ldi	r18, 0x00	; 0
    708e:	30 e0       	ldi	r19, 0x00	; 0
    7090:	4a ef       	ldi	r20, 0xFA	; 250
    7092:	54 e4       	ldi	r21, 0x44	; 68
    7094:	0e 94 1f 02 	call	0x43e	; 0x43e <__mulsf3>
    7098:	dc 01       	movw	r26, r24
    709a:	cb 01       	movw	r24, r22
    709c:	8f 83       	std	Y+7, r24	; 0x07
    709e:	98 87       	std	Y+8, r25	; 0x08
    70a0:	a9 87       	std	Y+9, r26	; 0x09
    70a2:	ba 87       	std	Y+10, r27	; 0x0a
	if (__tmp < 1.0)
    70a4:	6f 81       	ldd	r22, Y+7	; 0x07
    70a6:	78 85       	ldd	r23, Y+8	; 0x08
    70a8:	89 85       	ldd	r24, Y+9	; 0x09
    70aa:	9a 85       	ldd	r25, Y+10	; 0x0a
    70ac:	20 e0       	ldi	r18, 0x00	; 0
    70ae:	30 e0       	ldi	r19, 0x00	; 0
    70b0:	40 e8       	ldi	r20, 0x80	; 128
    70b2:	5f e3       	ldi	r21, 0x3F	; 63
    70b4:	0e 94 25 04 	call	0x84a	; 0x84a <__ltsf2>
    70b8:	88 23       	and	r24, r24
    70ba:	2c f4       	brge	.+10     	; 0x70c6 <APP_LCD_Hi+0x352>
		__ticks = 1;
    70bc:	81 e0       	ldi	r24, 0x01	; 1
    70be:	90 e0       	ldi	r25, 0x00	; 0
    70c0:	9e 83       	std	Y+6, r25	; 0x06
    70c2:	8d 83       	std	Y+5, r24	; 0x05
    70c4:	3f c0       	rjmp	.+126    	; 0x7144 <APP_LCD_Hi+0x3d0>
	else if (__tmp > 65535)
    70c6:	6f 81       	ldd	r22, Y+7	; 0x07
    70c8:	78 85       	ldd	r23, Y+8	; 0x08
    70ca:	89 85       	ldd	r24, Y+9	; 0x09
    70cc:	9a 85       	ldd	r25, Y+10	; 0x0a
    70ce:	20 e0       	ldi	r18, 0x00	; 0
    70d0:	3f ef       	ldi	r19, 0xFF	; 255
    70d2:	4f e7       	ldi	r20, 0x7F	; 127
    70d4:	57 e4       	ldi	r21, 0x47	; 71
    70d6:	0e 94 c5 03 	call	0x78a	; 0x78a <__gtsf2>
    70da:	18 16       	cp	r1, r24
    70dc:	4c f5       	brge	.+82     	; 0x7130 <APP_LCD_Hi+0x3bc>
	{
		//	__ticks = requested delay in 1/10 ms
		__ticks = (uint16_t) (__ms * 10.0);
    70de:	6b 85       	ldd	r22, Y+11	; 0x0b
    70e0:	7c 85       	ldd	r23, Y+12	; 0x0c
    70e2:	8d 85       	ldd	r24, Y+13	; 0x0d
    70e4:	9e 85       	ldd	r25, Y+14	; 0x0e
    70e6:	20 e0       	ldi	r18, 0x00	; 0
    70e8:	30 e0       	ldi	r19, 0x00	; 0
    70ea:	40 e2       	ldi	r20, 0x20	; 32
    70ec:	51 e4       	ldi	r21, 0x41	; 65
    70ee:	0e 94 1f 02 	call	0x43e	; 0x43e <__mulsf3>
    70f2:	dc 01       	movw	r26, r24
    70f4:	cb 01       	movw	r24, r22
    70f6:	bc 01       	movw	r22, r24
    70f8:	cd 01       	movw	r24, r26
    70fa:	0e 94 49 00 	call	0x92	; 0x92 <__fixunssfsi>
    70fe:	dc 01       	movw	r26, r24
    7100:	cb 01       	movw	r24, r22
    7102:	9e 83       	std	Y+6, r25	; 0x06
    7104:	8d 83       	std	Y+5, r24	; 0x05
    7106:	0f c0       	rjmp	.+30     	; 0x7126 <APP_LCD_Hi+0x3b2>
    7108:	88 ec       	ldi	r24, 0xC8	; 200
    710a:	90 e0       	ldi	r25, 0x00	; 0
    710c:	9c 83       	std	Y+4, r25	; 0x04
    710e:	8b 83       	std	Y+3, r24	; 0x03
    7110:	8b 81       	ldd	r24, Y+3	; 0x03
    7112:	9c 81       	ldd	r25, Y+4	; 0x04
    7114:	01 97       	sbiw	r24, 0x01	; 1
    7116:	f1 f7       	brne	.-4      	; 0x7114 <APP_LCD_Hi+0x3a0>
    7118:	9c 83       	std	Y+4, r25	; 0x04
    711a:	8b 83       	std	Y+3, r24	; 0x03
		while(__ticks)
		{
			// wait 1/10 ms
			_delay_loop_2(((F_CPU) / 4e3) / 10);
			__ticks --;
    711c:	8d 81       	ldd	r24, Y+5	; 0x05
    711e:	9e 81       	ldd	r25, Y+6	; 0x06
    7120:	01 97       	sbiw	r24, 0x01	; 1
    7122:	9e 83       	std	Y+6, r25	; 0x06
    7124:	8d 83       	std	Y+5, r24	; 0x05
		__ticks = 1;
	else if (__tmp > 65535)
	{
		//	__ticks = requested delay in 1/10 ms
		__ticks = (uint16_t) (__ms * 10.0);
		while(__ticks)
    7126:	8d 81       	ldd	r24, Y+5	; 0x05
    7128:	9e 81       	ldd	r25, Y+6	; 0x06
    712a:	00 97       	sbiw	r24, 0x00	; 0
    712c:	69 f7       	brne	.-38     	; 0x7108 <APP_LCD_Hi+0x394>
    712e:	14 c0       	rjmp	.+40     	; 0x7158 <APP_LCD_Hi+0x3e4>
			__ticks --;
		}
		return;
	}
	else
		__ticks = (uint16_t)__tmp;
    7130:	6f 81       	ldd	r22, Y+7	; 0x07
    7132:	78 85       	ldd	r23, Y+8	; 0x08
    7134:	89 85       	ldd	r24, Y+9	; 0x09
    7136:	9a 85       	ldd	r25, Y+10	; 0x0a
    7138:	0e 94 49 00 	call	0x92	; 0x92 <__fixunssfsi>
    713c:	dc 01       	movw	r26, r24
    713e:	cb 01       	movw	r24, r22
    7140:	9e 83       	std	Y+6, r25	; 0x06
    7142:	8d 83       	std	Y+5, r24	; 0x05
    7144:	8d 81       	ldd	r24, Y+5	; 0x05
    7146:	9e 81       	ldd	r25, Y+6	; 0x06
    7148:	9a 83       	std	Y+2, r25	; 0x02
    714a:	89 83       	std	Y+1, r24	; 0x01
    714c:	89 81       	ldd	r24, Y+1	; 0x01
    714e:	9a 81       	ldd	r25, Y+2	; 0x02
    7150:	01 97       	sbiw	r24, 0x01	; 1
    7152:	f1 f7       	brne	.-4      	; 0x7150 <APP_LCD_Hi+0x3dc>
    7154:	9a 83       	std	Y+2, r25	; 0x02
    7156:	89 83       	std	Y+1, r24	; 0x01
	_delay_ms(1000);
}
    7158:	e8 96       	adiw	r28, 0x38	; 56
    715a:	0f b6       	in	r0, 0x3f	; 63
    715c:	f8 94       	cli
    715e:	de bf       	out	0x3e, r29	; 62
    7160:	0f be       	out	0x3f, r0	; 63
    7162:	cd bf       	out	0x3d, r28	; 61
    7164:	cf 91       	pop	r28
    7166:	df 91       	pop	r29
    7168:	08 95       	ret

0000716a <APP_LCD_Draw_bar>:
void APP_LCD_Draw_bar(u8 num)
{
    716a:	df 93       	push	r29
    716c:	cf 93       	push	r28
    716e:	cd b7       	in	r28, 0x3d	; 61
    7170:	de b7       	in	r29, 0x3e	; 62
    7172:	c3 54       	subi	r28, 0x43	; 67
    7174:	d0 40       	sbci	r29, 0x00	; 0
    7176:	0f b6       	in	r0, 0x3f	; 63
    7178:	f8 94       	cli
    717a:	de bf       	out	0x3e, r29	; 62
    717c:	0f be       	out	0x3f, r0	; 63
    717e:	cd bf       	out	0x3d, r28	; 61
    7180:	8a a7       	std	Y+42, r24	; 0x2a
	  0B11111,
	  0B11111,
	  0B11111,
	  0B11111,
	  0B11111
	};
    7182:	ce 01       	movw	r24, r28
    7184:	02 96       	adiw	r24, 0x02	; 2
    7186:	9c a7       	std	Y+44, r25	; 0x2c
    7188:	8b a7       	std	Y+43, r24	; 0x2b
    718a:	e4 e7       	ldi	r30, 0x74	; 116
    718c:	f4 e0       	ldi	r31, 0x04	; 4
    718e:	fe a7       	std	Y+46, r31	; 0x2e
    7190:	ed a7       	std	Y+45, r30	; 0x2d
    7192:	f8 e0       	ldi	r31, 0x08	; 8
    7194:	ff a7       	std	Y+47, r31	; 0x2f
    7196:	ed a5       	ldd	r30, Y+45	; 0x2d
    7198:	fe a5       	ldd	r31, Y+46	; 0x2e
    719a:	00 80       	ld	r0, Z
    719c:	8d a5       	ldd	r24, Y+45	; 0x2d
    719e:	9e a5       	ldd	r25, Y+46	; 0x2e
    71a0:	01 96       	adiw	r24, 0x01	; 1
    71a2:	9e a7       	std	Y+46, r25	; 0x2e
    71a4:	8d a7       	std	Y+45, r24	; 0x2d
    71a6:	eb a5       	ldd	r30, Y+43	; 0x2b
    71a8:	fc a5       	ldd	r31, Y+44	; 0x2c
    71aa:	00 82       	st	Z, r0
    71ac:	8b a5       	ldd	r24, Y+43	; 0x2b
    71ae:	9c a5       	ldd	r25, Y+44	; 0x2c
    71b0:	01 96       	adiw	r24, 0x01	; 1
    71b2:	9c a7       	std	Y+44, r25	; 0x2c
    71b4:	8b a7       	std	Y+43, r24	; 0x2b
    71b6:	9f a5       	ldd	r25, Y+47	; 0x2f
    71b8:	91 50       	subi	r25, 0x01	; 1
    71ba:	9f a7       	std	Y+47, r25	; 0x2f
    71bc:	ef a5       	ldd	r30, Y+47	; 0x2f
    71be:	ee 23       	and	r30, r30
    71c0:	51 f7       	brne	.-44     	; 0x7196 <APP_LCD_Draw_bar+0x2c>
	  0B11110,
	  0B11110,
	  0B11110,
	  0B11110,
	  0B11110
	};
    71c2:	ce 01       	movw	r24, r28
    71c4:	0a 96       	adiw	r24, 0x0a	; 10
    71c6:	99 ab       	std	Y+49, r25	; 0x31
    71c8:	88 ab       	std	Y+48, r24	; 0x30
    71ca:	ec e6       	ldi	r30, 0x6C	; 108
    71cc:	f4 e0       	ldi	r31, 0x04	; 4
    71ce:	fb ab       	std	Y+51, r31	; 0x33
    71d0:	ea ab       	std	Y+50, r30	; 0x32
    71d2:	f8 e0       	ldi	r31, 0x08	; 8
    71d4:	fc ab       	std	Y+52, r31	; 0x34
    71d6:	ea a9       	ldd	r30, Y+50	; 0x32
    71d8:	fb a9       	ldd	r31, Y+51	; 0x33
    71da:	00 80       	ld	r0, Z
    71dc:	8a a9       	ldd	r24, Y+50	; 0x32
    71de:	9b a9       	ldd	r25, Y+51	; 0x33
    71e0:	01 96       	adiw	r24, 0x01	; 1
    71e2:	9b ab       	std	Y+51, r25	; 0x33
    71e4:	8a ab       	std	Y+50, r24	; 0x32
    71e6:	e8 a9       	ldd	r30, Y+48	; 0x30
    71e8:	f9 a9       	ldd	r31, Y+49	; 0x31
    71ea:	00 82       	st	Z, r0
    71ec:	88 a9       	ldd	r24, Y+48	; 0x30
    71ee:	99 a9       	ldd	r25, Y+49	; 0x31
    71f0:	01 96       	adiw	r24, 0x01	; 1
    71f2:	99 ab       	std	Y+49, r25	; 0x31
    71f4:	88 ab       	std	Y+48, r24	; 0x30
    71f6:	9c a9       	ldd	r25, Y+52	; 0x34
    71f8:	91 50       	subi	r25, 0x01	; 1
    71fa:	9c ab       	std	Y+52, r25	; 0x34
    71fc:	ec a9       	ldd	r30, Y+52	; 0x34
    71fe:	ee 23       	and	r30, r30
    7200:	51 f7       	brne	.-44     	; 0x71d6 <APP_LCD_Draw_bar+0x6c>
	  0B11100,
	  0B11100,
	  0B11100,
	  0B11100,
	  0B11100
	};
    7202:	ce 01       	movw	r24, r28
    7204:	42 96       	adiw	r24, 0x12	; 18
    7206:	9e ab       	std	Y+54, r25	; 0x36
    7208:	8d ab       	std	Y+53, r24	; 0x35
    720a:	e4 e6       	ldi	r30, 0x64	; 100
    720c:	f4 e0       	ldi	r31, 0x04	; 4
    720e:	f8 af       	std	Y+56, r31	; 0x38
    7210:	ef ab       	std	Y+55, r30	; 0x37
    7212:	f8 e0       	ldi	r31, 0x08	; 8
    7214:	f9 af       	std	Y+57, r31	; 0x39
    7216:	ef a9       	ldd	r30, Y+55	; 0x37
    7218:	f8 ad       	ldd	r31, Y+56	; 0x38
    721a:	00 80       	ld	r0, Z
    721c:	8f a9       	ldd	r24, Y+55	; 0x37
    721e:	98 ad       	ldd	r25, Y+56	; 0x38
    7220:	01 96       	adiw	r24, 0x01	; 1
    7222:	98 af       	std	Y+56, r25	; 0x38
    7224:	8f ab       	std	Y+55, r24	; 0x37
    7226:	ed a9       	ldd	r30, Y+53	; 0x35
    7228:	fe a9       	ldd	r31, Y+54	; 0x36
    722a:	00 82       	st	Z, r0
    722c:	8d a9       	ldd	r24, Y+53	; 0x35
    722e:	9e a9       	ldd	r25, Y+54	; 0x36
    7230:	01 96       	adiw	r24, 0x01	; 1
    7232:	9e ab       	std	Y+54, r25	; 0x36
    7234:	8d ab       	std	Y+53, r24	; 0x35
    7236:	99 ad       	ldd	r25, Y+57	; 0x39
    7238:	91 50       	subi	r25, 0x01	; 1
    723a:	99 af       	std	Y+57, r25	; 0x39
    723c:	e9 ad       	ldd	r30, Y+57	; 0x39
    723e:	ee 23       	and	r30, r30
    7240:	51 f7       	brne	.-44     	; 0x7216 <APP_LCD_Draw_bar+0xac>
	  0B11000,
	  0B11000,
	  0B11000,
	  0B11000,
	  0B11000
	};
    7242:	ce 01       	movw	r24, r28
    7244:	4a 96       	adiw	r24, 0x1a	; 26
    7246:	9b af       	std	Y+59, r25	; 0x3b
    7248:	8a af       	std	Y+58, r24	; 0x3a
    724a:	ec e5       	ldi	r30, 0x5C	; 92
    724c:	f4 e0       	ldi	r31, 0x04	; 4
    724e:	fd af       	std	Y+61, r31	; 0x3d
    7250:	ec af       	std	Y+60, r30	; 0x3c
    7252:	f8 e0       	ldi	r31, 0x08	; 8
    7254:	fe af       	std	Y+62, r31	; 0x3e
    7256:	ec ad       	ldd	r30, Y+60	; 0x3c
    7258:	fd ad       	ldd	r31, Y+61	; 0x3d
    725a:	00 80       	ld	r0, Z
    725c:	8c ad       	ldd	r24, Y+60	; 0x3c
    725e:	9d ad       	ldd	r25, Y+61	; 0x3d
    7260:	01 96       	adiw	r24, 0x01	; 1
    7262:	9d af       	std	Y+61, r25	; 0x3d
    7264:	8c af       	std	Y+60, r24	; 0x3c
    7266:	ea ad       	ldd	r30, Y+58	; 0x3a
    7268:	fb ad       	ldd	r31, Y+59	; 0x3b
    726a:	00 82       	st	Z, r0
    726c:	8a ad       	ldd	r24, Y+58	; 0x3a
    726e:	9b ad       	ldd	r25, Y+59	; 0x3b
    7270:	01 96       	adiw	r24, 0x01	; 1
    7272:	9b af       	std	Y+59, r25	; 0x3b
    7274:	8a af       	std	Y+58, r24	; 0x3a
    7276:	9e ad       	ldd	r25, Y+62	; 0x3e
    7278:	91 50       	subi	r25, 0x01	; 1
    727a:	9e af       	std	Y+62, r25	; 0x3e
    727c:	ee ad       	ldd	r30, Y+62	; 0x3e
    727e:	ee 23       	and	r30, r30
    7280:	51 f7       	brne	.-44     	; 0x7256 <APP_LCD_Draw_bar+0xec>
	  0B10000,
	  0B10000,
	  0B10000,
	  0B10000,
	  0B10000
	};
    7282:	ce 01       	movw	r24, r28
    7284:	82 96       	adiw	r24, 0x22	; 34
    7286:	21 96       	adiw	r28, 0x01	; 1
    7288:	9f af       	std	Y+63, r25	; 0x3f
    728a:	8e af       	std	Y+62, r24	; 0x3e
    728c:	21 97       	sbiw	r28, 0x01	; 1
    728e:	e4 e5       	ldi	r30, 0x54	; 84
    7290:	f4 e0       	ldi	r31, 0x04	; 4
    7292:	23 96       	adiw	r28, 0x03	; 3
    7294:	ff af       	std	Y+63, r31	; 0x3f
    7296:	ee af       	std	Y+62, r30	; 0x3e
    7298:	23 97       	sbiw	r28, 0x03	; 3
    729a:	f8 e0       	ldi	r31, 0x08	; 8
    729c:	24 96       	adiw	r28, 0x04	; 4
    729e:	ff af       	std	Y+63, r31	; 0x3f
    72a0:	24 97       	sbiw	r28, 0x04	; 4
    72a2:	23 96       	adiw	r28, 0x03	; 3
    72a4:	ee ad       	ldd	r30, Y+62	; 0x3e
    72a6:	ff ad       	ldd	r31, Y+63	; 0x3f
    72a8:	23 97       	sbiw	r28, 0x03	; 3
    72aa:	00 80       	ld	r0, Z
    72ac:	23 96       	adiw	r28, 0x03	; 3
    72ae:	8e ad       	ldd	r24, Y+62	; 0x3e
    72b0:	9f ad       	ldd	r25, Y+63	; 0x3f
    72b2:	23 97       	sbiw	r28, 0x03	; 3
    72b4:	01 96       	adiw	r24, 0x01	; 1
    72b6:	23 96       	adiw	r28, 0x03	; 3
    72b8:	9f af       	std	Y+63, r25	; 0x3f
    72ba:	8e af       	std	Y+62, r24	; 0x3e
    72bc:	23 97       	sbiw	r28, 0x03	; 3
    72be:	21 96       	adiw	r28, 0x01	; 1
    72c0:	ee ad       	ldd	r30, Y+62	; 0x3e
    72c2:	ff ad       	ldd	r31, Y+63	; 0x3f
    72c4:	21 97       	sbiw	r28, 0x01	; 1
    72c6:	00 82       	st	Z, r0
    72c8:	21 96       	adiw	r28, 0x01	; 1
    72ca:	8e ad       	ldd	r24, Y+62	; 0x3e
    72cc:	9f ad       	ldd	r25, Y+63	; 0x3f
    72ce:	21 97       	sbiw	r28, 0x01	; 1
    72d0:	01 96       	adiw	r24, 0x01	; 1
    72d2:	21 96       	adiw	r28, 0x01	; 1
    72d4:	9f af       	std	Y+63, r25	; 0x3f
    72d6:	8e af       	std	Y+62, r24	; 0x3e
    72d8:	21 97       	sbiw	r28, 0x01	; 1
    72da:	24 96       	adiw	r28, 0x04	; 4
    72dc:	9f ad       	ldd	r25, Y+63	; 0x3f
    72de:	24 97       	sbiw	r28, 0x04	; 4
    72e0:	91 50       	subi	r25, 0x01	; 1
    72e2:	24 96       	adiw	r28, 0x04	; 4
    72e4:	9f af       	std	Y+63, r25	; 0x3f
    72e6:	24 97       	sbiw	r28, 0x04	; 4
    72e8:	24 96       	adiw	r28, 0x04	; 4
    72ea:	ef ad       	ldd	r30, Y+63	; 0x3f
    72ec:	24 97       	sbiw	r28, 0x04	; 4
    72ee:	ee 23       	and	r30, r30
    72f0:	c1 f6       	brne	.-80     	; 0x72a2 <APP_LCD_Draw_bar+0x138>

	LCD_Special_Char(customChar_Block0,3);
    72f2:	ce 01       	movw	r24, r28
    72f4:	02 96       	adiw	r24, 0x02	; 2
    72f6:	63 e0       	ldi	r22, 0x03	; 3
    72f8:	0e 94 76 1a 	call	0x34ec	; 0x34ec <LCD_Special_Char>
	LCD_Special_Char(customChar_Block1,4);
    72fc:	ce 01       	movw	r24, r28
    72fe:	0a 96       	adiw	r24, 0x0a	; 10
    7300:	64 e0       	ldi	r22, 0x04	; 4
    7302:	0e 94 76 1a 	call	0x34ec	; 0x34ec <LCD_Special_Char>
	LCD_Special_Char(customChar_Block2,5);
    7306:	ce 01       	movw	r24, r28
    7308:	42 96       	adiw	r24, 0x12	; 18
    730a:	65 e0       	ldi	r22, 0x05	; 5
    730c:	0e 94 76 1a 	call	0x34ec	; 0x34ec <LCD_Special_Char>
	LCD_Special_Char(customChar_Block3,6);
    7310:	ce 01       	movw	r24, r28
    7312:	4a 96       	adiw	r24, 0x1a	; 26
    7314:	66 e0       	ldi	r22, 0x06	; 6
    7316:	0e 94 76 1a 	call	0x34ec	; 0x34ec <LCD_Special_Char>
	LCD_Special_Char(customChar_Block4,7);
    731a:	ce 01       	movw	r24, r28
    731c:	82 96       	adiw	r24, 0x22	; 34
    731e:	67 e0       	ldi	r22, 0x07	; 7
    7320:	0e 94 76 1a 	call	0x34ec	; 0x34ec <LCD_Special_Char>

	LCD_GoTO(1,1);
    7324:	81 e0       	ldi	r24, 0x01	; 1
    7326:	61 e0       	ldi	r22, 0x01	; 1
    7328:	0e 94 a4 19 	call	0x3348	; 0x3348 <LCD_GoTO>
	LCD_void_Data(' ');
    732c:	80 e2       	ldi	r24, 0x20	; 32
    732e:	0e 94 63 16 	call	0x2cc6	; 0x2cc6 <LCD_void_Data>
	LCD_void_Data(' ');
    7332:	80 e2       	ldi	r24, 0x20	; 32
    7334:	0e 94 63 16 	call	0x2cc6	; 0x2cc6 <LCD_void_Data>
	LCD_void_Data('z'+5);
    7338:	8f e7       	ldi	r24, 0x7F	; 127
    733a:	0e 94 63 16 	call	0x2cc6	; 0x2cc6 <LCD_void_Data>

	u8 i =0;
    733e:	19 82       	std	Y+1, r1	; 0x01
	for(i=0;i<10;i++)
    7340:	19 82       	std	Y+1, r1	; 0x01
    7342:	31 c0       	rjmp	.+98     	; 0x73a6 <APP_LCD_Draw_bar+0x23c>
	{
		if(num>=10)
    7344:	8a a5       	ldd	r24, Y+42	; 0x2a
    7346:	8a 30       	cpi	r24, 0x0A	; 10
    7348:	38 f0       	brcs	.+14     	; 0x7358 <APP_LCD_Draw_bar+0x1ee>
		{
			LCD_void_Data(0x03);
    734a:	83 e0       	ldi	r24, 0x03	; 3
    734c:	0e 94 63 16 	call	0x2cc6	; 0x2cc6 <LCD_void_Data>
			num=num-10;
    7350:	8a a5       	ldd	r24, Y+42	; 0x2a
    7352:	8a 50       	subi	r24, 0x0A	; 10
    7354:	8a a7       	std	Y+42, r24	; 0x2a
    7356:	24 c0       	rjmp	.+72     	; 0x73a0 <APP_LCD_Draw_bar+0x236>
		}
		else if(num >=8)
    7358:	8a a5       	ldd	r24, Y+42	; 0x2a
    735a:	88 30       	cpi	r24, 0x08	; 8
    735c:	28 f0       	brcs	.+10     	; 0x7368 <APP_LCD_Draw_bar+0x1fe>
		{
			LCD_void_Data(0x04);
    735e:	84 e0       	ldi	r24, 0x04	; 4
    7360:	0e 94 63 16 	call	0x2cc6	; 0x2cc6 <LCD_void_Data>
			num=0;
    7364:	1a a6       	std	Y+42, r1	; 0x2a
    7366:	1c c0       	rjmp	.+56     	; 0x73a0 <APP_LCD_Draw_bar+0x236>
		}
		else if(num >=6)
    7368:	8a a5       	ldd	r24, Y+42	; 0x2a
    736a:	86 30       	cpi	r24, 0x06	; 6
    736c:	28 f0       	brcs	.+10     	; 0x7378 <APP_LCD_Draw_bar+0x20e>
		{
			LCD_void_Data(0x05);
    736e:	85 e0       	ldi	r24, 0x05	; 5
    7370:	0e 94 63 16 	call	0x2cc6	; 0x2cc6 <LCD_void_Data>
			num=0;
    7374:	1a a6       	std	Y+42, r1	; 0x2a
    7376:	14 c0       	rjmp	.+40     	; 0x73a0 <APP_LCD_Draw_bar+0x236>
		}
		else if(num >=4)
    7378:	8a a5       	ldd	r24, Y+42	; 0x2a
    737a:	84 30       	cpi	r24, 0x04	; 4
    737c:	28 f0       	brcs	.+10     	; 0x7388 <APP_LCD_Draw_bar+0x21e>
		{
			LCD_void_Data(0x06);
    737e:	86 e0       	ldi	r24, 0x06	; 6
    7380:	0e 94 63 16 	call	0x2cc6	; 0x2cc6 <LCD_void_Data>
			num=0;
    7384:	1a a6       	std	Y+42, r1	; 0x2a
    7386:	0c c0       	rjmp	.+24     	; 0x73a0 <APP_LCD_Draw_bar+0x236>
		}
		else if(num >=2)
    7388:	8a a5       	ldd	r24, Y+42	; 0x2a
    738a:	82 30       	cpi	r24, 0x02	; 2
    738c:	28 f0       	brcs	.+10     	; 0x7398 <APP_LCD_Draw_bar+0x22e>
		{
			LCD_void_Data(0x07);
    738e:	87 e0       	ldi	r24, 0x07	; 7
    7390:	0e 94 63 16 	call	0x2cc6	; 0x2cc6 <LCD_void_Data>
			num=0;
    7394:	1a a6       	std	Y+42, r1	; 0x2a
    7396:	04 c0       	rjmp	.+8      	; 0x73a0 <APP_LCD_Draw_bar+0x236>
		}
		else
		{
			LCD_void_Data(' ');
    7398:	80 e2       	ldi	r24, 0x20	; 32
    739a:	0e 94 63 16 	call	0x2cc6	; 0x2cc6 <LCD_void_Data>
			num=0;
    739e:	1a a6       	std	Y+42, r1	; 0x2a
	LCD_void_Data(' ');
	LCD_void_Data(' ');
	LCD_void_Data('z'+5);

	u8 i =0;
	for(i=0;i<10;i++)
    73a0:	89 81       	ldd	r24, Y+1	; 0x01
    73a2:	8f 5f       	subi	r24, 0xFF	; 255
    73a4:	89 83       	std	Y+1, r24	; 0x01
    73a6:	89 81       	ldd	r24, Y+1	; 0x01
    73a8:	8a 30       	cpi	r24, 0x0A	; 10
    73aa:	60 f2       	brcs	.-104    	; 0x7344 <APP_LCD_Draw_bar+0x1da>
		{
			LCD_void_Data(' ');
			num=0;
		}
	}
	LCD_void_Data('z'+4);
    73ac:	8e e7       	ldi	r24, 0x7E	; 126
    73ae:	0e 94 63 16 	call	0x2cc6	; 0x2cc6 <LCD_void_Data>
	LCD_void_Data(' ');
    73b2:	80 e2       	ldi	r24, 0x20	; 32
    73b4:	0e 94 63 16 	call	0x2cc6	; 0x2cc6 <LCD_void_Data>
	LCD_void_Data(' ');
    73b8:	80 e2       	ldi	r24, 0x20	; 32
    73ba:	0e 94 63 16 	call	0x2cc6	; 0x2cc6 <LCD_void_Data>
}
    73be:	cd 5b       	subi	r28, 0xBD	; 189
    73c0:	df 4f       	sbci	r29, 0xFF	; 255
    73c2:	0f b6       	in	r0, 0x3f	; 63
    73c4:	f8 94       	cli
    73c6:	de bf       	out	0x3e, r29	; 62
    73c8:	0f be       	out	0x3f, r0	; 63
    73ca:	cd bf       	out	0x3d, r28	; 61
    73cc:	cf 91       	pop	r28
    73ce:	df 91       	pop	r29
    73d0:	08 95       	ret

000073d2 <APP_LCD_TMR2_BUZZER_Control_bar>:


u8 APP_LCD_TMR2_BUZZER_Control_bar(void)
{
    73d2:	df 93       	push	r29
    73d4:	cf 93       	push	r28
    73d6:	cd b7       	in	r28, 0x3d	; 61
    73d8:	de b7       	in	r29, 0x3e	; 62
    73da:	68 97       	sbiw	r28, 0x18	; 24
    73dc:	0f b6       	in	r0, 0x3f	; 63
    73de:	f8 94       	cli
    73e0:	de bf       	out	0x3e, r29	; 62
    73e2:	0f be       	out	0x3f, r0	; 63
    73e4:	cd bf       	out	0x3d, r28	; 61
	ADC_Init();
    73e6:	0e 94 75 07 	call	0xeea	; 0xeea <ADC_Init>
	u8 num=100;
    73ea:	84 e6       	ldi	r24, 0x64	; 100
    73ec:	88 8f       	std	Y+24, r24	; 0x18
	u16 adc_val=0;
    73ee:	1f 8a       	std	Y+23, r1	; 0x17
    73f0:	1e 8a       	std	Y+22, r1	; 0x16
	u16 adc_val_old=0;
    73f2:	1d 8a       	std	Y+21, r1	; 0x15
    73f4:	1c 8a       	std	Y+20, r1	; 0x14
	u8 pwm_val=0;
    73f6:	1b 8a       	std	Y+19, r1	; 0x13
	u8 statues=0;
    73f8:	1a 8a       	std	Y+18, r1	; 0x12
	u8 pattern1=0;
    73fa:	19 8a       	std	Y+17, r1	; 0x11
	u8 pattern2=0;
    73fc:	18 8a       	std	Y+16, r1	; 0x10
	u8 pattern3=0;
    73fe:	1f 86       	std	Y+15, r1	; 0x0f

	while(1)
	{
		 adc_val = ADC_Start();
    7400:	0e 94 17 09 	call	0x122e	; 0x122e <ADC_Start>
    7404:	9f 8b       	std	Y+23, r25	; 0x17
    7406:	8e 8b       	std	Y+22, r24	; 0x16
		 if(adc_val != adc_val_old)
    7408:	2e 89       	ldd	r18, Y+22	; 0x16
    740a:	3f 89       	ldd	r19, Y+23	; 0x17
    740c:	8c 89       	ldd	r24, Y+20	; 0x14
    740e:	9d 89       	ldd	r25, Y+21	; 0x15
    7410:	28 17       	cp	r18, r24
    7412:	39 07       	cpc	r19, r25
    7414:	19 f1       	breq	.+70     	; 0x745c <APP_LCD_TMR2_BUZZER_Control_bar+0x8a>
		 {
			adc_val_old=adc_val;
    7416:	8e 89       	ldd	r24, Y+22	; 0x16
    7418:	9f 89       	ldd	r25, Y+23	; 0x17
    741a:	9d 8b       	std	Y+21, r25	; 0x15
    741c:	8c 8b       	std	Y+20, r24	; 0x14
			num = adc_val/10;
    741e:	8e 89       	ldd	r24, Y+22	; 0x16
    7420:	9f 89       	ldd	r25, Y+23	; 0x17
    7422:	2a e0       	ldi	r18, 0x0A	; 10
    7424:	30 e0       	ldi	r19, 0x00	; 0
    7426:	b9 01       	movw	r22, r18
    7428:	0e 94 c2 3c 	call	0x7984	; 0x7984 <__udivmodhi4>
    742c:	cb 01       	movw	r24, r22
    742e:	88 8f       	std	Y+24, r24	; 0x18
			if(num>=100)
    7430:	88 8d       	ldd	r24, Y+24	; 0x18
    7432:	84 36       	cpi	r24, 0x64	; 100
    7434:	10 f0       	brcs	.+4      	; 0x743a <APP_LCD_TMR2_BUZZER_Control_bar+0x68>
				num=100;
    7436:	84 e6       	ldi	r24, 0x64	; 100
    7438:	88 8f       	std	Y+24, r24	; 0x18
			pwm_val = adc_val/4;
    743a:	8e 89       	ldd	r24, Y+22	; 0x16
    743c:	9f 89       	ldd	r25, Y+23	; 0x17
    743e:	96 95       	lsr	r25
    7440:	87 95       	ror	r24
    7442:	96 95       	lsr	r25
    7444:	87 95       	ror	r24
    7446:	8b 8b       	std	Y+19, r24	; 0x13
			APP_LCD_Draw_bar(100-num);
    7448:	94 e6       	ldi	r25, 0x64	; 100
    744a:	88 8d       	ldd	r24, Y+24	; 0x18
    744c:	29 2f       	mov	r18, r25
    744e:	28 1b       	sub	r18, r24
    7450:	82 2f       	mov	r24, r18
    7452:	0e 94 b5 38 	call	0x716a	; 0x716a <APP_LCD_Draw_bar>
			APP_play_tune(pwm_val);
    7456:	8b 89       	ldd	r24, Y+19	; 0x13
    7458:	0e 94 ff 3a 	call	0x75fe	; 0x75fe <APP_play_tune>
		 }
		 if(num<65 && num>55 && pattern1 ==0)
    745c:	88 8d       	ldd	r24, Y+24	; 0x18
    745e:	81 34       	cpi	r24, 0x41	; 65
    7460:	80 f4       	brcc	.+32     	; 0x7482 <APP_LCD_TMR2_BUZZER_Control_bar+0xb0>
    7462:	88 8d       	ldd	r24, Y+24	; 0x18
    7464:	88 33       	cpi	r24, 0x38	; 56
    7466:	68 f0       	brcs	.+26     	; 0x7482 <APP_LCD_TMR2_BUZZER_Control_bar+0xb0>
    7468:	89 89       	ldd	r24, Y+17	; 0x11
    746a:	88 23       	and	r24, r24
    746c:	51 f4       	brne	.+20     	; 0x7482 <APP_LCD_TMR2_BUZZER_Control_bar+0xb0>
		 {
			 pattern1=1;
    746e:	81 e0       	ldi	r24, 0x01	; 1
    7470:	89 8b       	std	Y+17, r24	; 0x11
			 LCD_GoTO(1,2);
    7472:	81 e0       	ldi	r24, 0x01	; 1
    7474:	62 e0       	ldi	r22, 0x02	; 2
    7476:	0e 94 a4 19 	call	0x3348	; 0x3348 <LCD_GoTO>
			 LCD_void_Data(0x07);
    747a:	87 e0       	ldi	r24, 0x07	; 7
    747c:	0e 94 63 16 	call	0x2cc6	; 0x2cc6 <LCD_void_Data>
    7480:	3f c0       	rjmp	.+126    	; 0x7500 <APP_LCD_TMR2_BUZZER_Control_bar+0x12e>
		 }
		 else if(num<25 && num>15 && pattern1 ==1)
    7482:	88 8d       	ldd	r24, Y+24	; 0x18
    7484:	89 31       	cpi	r24, 0x19	; 25
    7486:	80 f4       	brcc	.+32     	; 0x74a8 <APP_LCD_TMR2_BUZZER_Control_bar+0xd6>
    7488:	88 8d       	ldd	r24, Y+24	; 0x18
    748a:	80 31       	cpi	r24, 0x10	; 16
    748c:	68 f0       	brcs	.+26     	; 0x74a8 <APP_LCD_TMR2_BUZZER_Control_bar+0xd6>
    748e:	89 89       	ldd	r24, Y+17	; 0x11
    7490:	81 30       	cpi	r24, 0x01	; 1
    7492:	51 f4       	brne	.+20     	; 0x74a8 <APP_LCD_TMR2_BUZZER_Control_bar+0xd6>
		 {
			 pattern2=1;
    7494:	81 e0       	ldi	r24, 0x01	; 1
    7496:	88 8b       	std	Y+16, r24	; 0x10
			 LCD_GoTO(1,2);
    7498:	81 e0       	ldi	r24, 0x01	; 1
    749a:	62 e0       	ldi	r22, 0x02	; 2
    749c:	0e 94 a4 19 	call	0x3348	; 0x3348 <LCD_GoTO>
			 LCD_void_Data(0x06);
    74a0:	86 e0       	ldi	r24, 0x06	; 6
    74a2:	0e 94 63 16 	call	0x2cc6	; 0x2cc6 <LCD_void_Data>
    74a6:	2c c0       	rjmp	.+88     	; 0x7500 <APP_LCD_TMR2_BUZZER_Control_bar+0x12e>
		 }
		 else if(num<85 && num>75 && pattern2 ==1)
    74a8:	88 8d       	ldd	r24, Y+24	; 0x18
    74aa:	85 35       	cpi	r24, 0x55	; 85
    74ac:	80 f4       	brcc	.+32     	; 0x74ce <APP_LCD_TMR2_BUZZER_Control_bar+0xfc>
    74ae:	88 8d       	ldd	r24, Y+24	; 0x18
    74b0:	8c 34       	cpi	r24, 0x4C	; 76
    74b2:	68 f0       	brcs	.+26     	; 0x74ce <APP_LCD_TMR2_BUZZER_Control_bar+0xfc>
    74b4:	88 89       	ldd	r24, Y+16	; 0x10
    74b6:	81 30       	cpi	r24, 0x01	; 1
    74b8:	51 f4       	brne	.+20     	; 0x74ce <APP_LCD_TMR2_BUZZER_Control_bar+0xfc>
		 {
			 pattern3=1;
    74ba:	81 e0       	ldi	r24, 0x01	; 1
    74bc:	8f 87       	std	Y+15, r24	; 0x0f
			 LCD_GoTO(1,2);
    74be:	81 e0       	ldi	r24, 0x01	; 1
    74c0:	62 e0       	ldi	r22, 0x02	; 2
    74c2:	0e 94 a4 19 	call	0x3348	; 0x3348 <LCD_GoTO>
			 LCD_void_Data(0x05);
    74c6:	85 e0       	ldi	r24, 0x05	; 5
    74c8:	0e 94 63 16 	call	0x2cc6	; 0x2cc6 <LCD_void_Data>
    74cc:	19 c0       	rjmp	.+50     	; 0x7500 <APP_LCD_TMR2_BUZZER_Control_bar+0x12e>
		 }
		 else if(num<65 && num>55 && pattern3 ==1)
    74ce:	88 8d       	ldd	r24, Y+24	; 0x18
    74d0:	81 34       	cpi	r24, 0x41	; 65
    74d2:	80 f4       	brcc	.+32     	; 0x74f4 <APP_LCD_TMR2_BUZZER_Control_bar+0x122>
    74d4:	88 8d       	ldd	r24, Y+24	; 0x18
    74d6:	88 33       	cpi	r24, 0x38	; 56
    74d8:	68 f0       	brcs	.+26     	; 0x74f4 <APP_LCD_TMR2_BUZZER_Control_bar+0x122>
    74da:	8f 85       	ldd	r24, Y+15	; 0x0f
    74dc:	81 30       	cpi	r24, 0x01	; 1
    74de:	51 f4       	brne	.+20     	; 0x74f4 <APP_LCD_TMR2_BUZZER_Control_bar+0x122>
		 {
			 statues=1;
    74e0:	81 e0       	ldi	r24, 0x01	; 1
    74e2:	8a 8b       	std	Y+18, r24	; 0x12
			 LCD_GoTO(1,2);
    74e4:	81 e0       	ldi	r24, 0x01	; 1
    74e6:	62 e0       	ldi	r22, 0x02	; 2
    74e8:	0e 94 a4 19 	call	0x3348	; 0x3348 <LCD_GoTO>
			 LCD_void_Data(0x03);
    74ec:	83 e0       	ldi	r24, 0x03	; 3
    74ee:	0e 94 63 16 	call	0x2cc6	; 0x2cc6 <LCD_void_Data>
    74f2:	79 c0       	rjmp	.+242    	; 0x75e6 <APP_LCD_TMR2_BUZZER_Control_bar+0x214>
			 break;
		 }
		 else if (num <5)
    74f4:	88 8d       	ldd	r24, Y+24	; 0x18
    74f6:	85 30       	cpi	r24, 0x05	; 5
    74f8:	18 f4       	brcc	.+6      	; 0x7500 <APP_LCD_TMR2_BUZZER_Control_bar+0x12e>
		 {
			 statues=2;
    74fa:	82 e0       	ldi	r24, 0x02	; 2
    74fc:	8a 8b       	std	Y+18, r24	; 0x12
    74fe:	73 c0       	rjmp	.+230    	; 0x75e6 <APP_LCD_TMR2_BUZZER_Control_bar+0x214>
			 break;
    7500:	80 e0       	ldi	r24, 0x00	; 0
    7502:	90 e0       	ldi	r25, 0x00	; 0
    7504:	a0 ea       	ldi	r26, 0xA0	; 160
    7506:	b0 e4       	ldi	r27, 0x40	; 64
    7508:	8b 87       	std	Y+11, r24	; 0x0b
    750a:	9c 87       	std	Y+12, r25	; 0x0c
    750c:	ad 87       	std	Y+13, r26	; 0x0d
    750e:	be 87       	std	Y+14, r27	; 0x0e
 */
void
_delay_ms(double __ms)
{
	uint16_t __ticks;
	double __tmp = ((F_CPU) / 4e3) * __ms;
    7510:	6b 85       	ldd	r22, Y+11	; 0x0b
    7512:	7c 85       	ldd	r23, Y+12	; 0x0c
    7514:	8d 85       	ldd	r24, Y+13	; 0x0d
    7516:	9e 85       	ldd	r25, Y+14	; 0x0e
    7518:	20 e0       	ldi	r18, 0x00	; 0
    751a:	30 e0       	ldi	r19, 0x00	; 0
    751c:	4a ef       	ldi	r20, 0xFA	; 250
    751e:	54 e4       	ldi	r21, 0x44	; 68
    7520:	0e 94 1f 02 	call	0x43e	; 0x43e <__mulsf3>
    7524:	dc 01       	movw	r26, r24
    7526:	cb 01       	movw	r24, r22
    7528:	8f 83       	std	Y+7, r24	; 0x07
    752a:	98 87       	std	Y+8, r25	; 0x08
    752c:	a9 87       	std	Y+9, r26	; 0x09
    752e:	ba 87       	std	Y+10, r27	; 0x0a
	if (__tmp < 1.0)
    7530:	6f 81       	ldd	r22, Y+7	; 0x07
    7532:	78 85       	ldd	r23, Y+8	; 0x08
    7534:	89 85       	ldd	r24, Y+9	; 0x09
    7536:	9a 85       	ldd	r25, Y+10	; 0x0a
    7538:	20 e0       	ldi	r18, 0x00	; 0
    753a:	30 e0       	ldi	r19, 0x00	; 0
    753c:	40 e8       	ldi	r20, 0x80	; 128
    753e:	5f e3       	ldi	r21, 0x3F	; 63
    7540:	0e 94 25 04 	call	0x84a	; 0x84a <__ltsf2>
    7544:	88 23       	and	r24, r24
    7546:	2c f4       	brge	.+10     	; 0x7552 <APP_LCD_TMR2_BUZZER_Control_bar+0x180>
		__ticks = 1;
    7548:	81 e0       	ldi	r24, 0x01	; 1
    754a:	90 e0       	ldi	r25, 0x00	; 0
    754c:	9e 83       	std	Y+6, r25	; 0x06
    754e:	8d 83       	std	Y+5, r24	; 0x05
    7550:	3f c0       	rjmp	.+126    	; 0x75d0 <APP_LCD_TMR2_BUZZER_Control_bar+0x1fe>
	else if (__tmp > 65535)
    7552:	6f 81       	ldd	r22, Y+7	; 0x07
    7554:	78 85       	ldd	r23, Y+8	; 0x08
    7556:	89 85       	ldd	r24, Y+9	; 0x09
    7558:	9a 85       	ldd	r25, Y+10	; 0x0a
    755a:	20 e0       	ldi	r18, 0x00	; 0
    755c:	3f ef       	ldi	r19, 0xFF	; 255
    755e:	4f e7       	ldi	r20, 0x7F	; 127
    7560:	57 e4       	ldi	r21, 0x47	; 71
    7562:	0e 94 c5 03 	call	0x78a	; 0x78a <__gtsf2>
    7566:	18 16       	cp	r1, r24
    7568:	4c f5       	brge	.+82     	; 0x75bc <APP_LCD_TMR2_BUZZER_Control_bar+0x1ea>
	{
		//	__ticks = requested delay in 1/10 ms
		__ticks = (uint16_t) (__ms * 10.0);
    756a:	6b 85       	ldd	r22, Y+11	; 0x0b
    756c:	7c 85       	ldd	r23, Y+12	; 0x0c
    756e:	8d 85       	ldd	r24, Y+13	; 0x0d
    7570:	9e 85       	ldd	r25, Y+14	; 0x0e
    7572:	20 e0       	ldi	r18, 0x00	; 0
    7574:	30 e0       	ldi	r19, 0x00	; 0
    7576:	40 e2       	ldi	r20, 0x20	; 32
    7578:	51 e4       	ldi	r21, 0x41	; 65
    757a:	0e 94 1f 02 	call	0x43e	; 0x43e <__mulsf3>
    757e:	dc 01       	movw	r26, r24
    7580:	cb 01       	movw	r24, r22
    7582:	bc 01       	movw	r22, r24
    7584:	cd 01       	movw	r24, r26
    7586:	0e 94 49 00 	call	0x92	; 0x92 <__fixunssfsi>
    758a:	dc 01       	movw	r26, r24
    758c:	cb 01       	movw	r24, r22
    758e:	9e 83       	std	Y+6, r25	; 0x06
    7590:	8d 83       	std	Y+5, r24	; 0x05
    7592:	0f c0       	rjmp	.+30     	; 0x75b2 <APP_LCD_TMR2_BUZZER_Control_bar+0x1e0>
    7594:	88 ec       	ldi	r24, 0xC8	; 200
    7596:	90 e0       	ldi	r25, 0x00	; 0
    7598:	9c 83       	std	Y+4, r25	; 0x04
    759a:	8b 83       	std	Y+3, r24	; 0x03
    759c:	8b 81       	ldd	r24, Y+3	; 0x03
    759e:	9c 81       	ldd	r25, Y+4	; 0x04
    75a0:	01 97       	sbiw	r24, 0x01	; 1
    75a2:	f1 f7       	brne	.-4      	; 0x75a0 <APP_LCD_TMR2_BUZZER_Control_bar+0x1ce>
    75a4:	9c 83       	std	Y+4, r25	; 0x04
    75a6:	8b 83       	std	Y+3, r24	; 0x03
		while(__ticks)
		{
			// wait 1/10 ms
			_delay_loop_2(((F_CPU) / 4e3) / 10);
			__ticks --;
    75a8:	8d 81       	ldd	r24, Y+5	; 0x05
    75aa:	9e 81       	ldd	r25, Y+6	; 0x06
    75ac:	01 97       	sbiw	r24, 0x01	; 1
    75ae:	9e 83       	std	Y+6, r25	; 0x06
    75b0:	8d 83       	std	Y+5, r24	; 0x05
		__ticks = 1;
	else if (__tmp > 65535)
	{
		//	__ticks = requested delay in 1/10 ms
		__ticks = (uint16_t) (__ms * 10.0);
		while(__ticks)
    75b2:	8d 81       	ldd	r24, Y+5	; 0x05
    75b4:	9e 81       	ldd	r25, Y+6	; 0x06
    75b6:	00 97       	sbiw	r24, 0x00	; 0
    75b8:	69 f7       	brne	.-38     	; 0x7594 <APP_LCD_TMR2_BUZZER_Control_bar+0x1c2>
    75ba:	22 cf       	rjmp	.-444    	; 0x7400 <APP_LCD_TMR2_BUZZER_Control_bar+0x2e>
			__ticks --;
		}
		return;
	}
	else
		__ticks = (uint16_t)__tmp;
    75bc:	6f 81       	ldd	r22, Y+7	; 0x07
    75be:	78 85       	ldd	r23, Y+8	; 0x08
    75c0:	89 85       	ldd	r24, Y+9	; 0x09
    75c2:	9a 85       	ldd	r25, Y+10	; 0x0a
    75c4:	0e 94 49 00 	call	0x92	; 0x92 <__fixunssfsi>
    75c8:	dc 01       	movw	r26, r24
    75ca:	cb 01       	movw	r24, r22
    75cc:	9e 83       	std	Y+6, r25	; 0x06
    75ce:	8d 83       	std	Y+5, r24	; 0x05
    75d0:	8d 81       	ldd	r24, Y+5	; 0x05
    75d2:	9e 81       	ldd	r25, Y+6	; 0x06
    75d4:	9a 83       	std	Y+2, r25	; 0x02
    75d6:	89 83       	std	Y+1, r24	; 0x01
    75d8:	89 81       	ldd	r24, Y+1	; 0x01
    75da:	9a 81       	ldd	r25, Y+2	; 0x02
    75dc:	01 97       	sbiw	r24, 0x01	; 1
    75de:	f1 f7       	brne	.-4      	; 0x75dc <APP_LCD_TMR2_BUZZER_Control_bar+0x20a>
    75e0:	9a 83       	std	Y+2, r25	; 0x02
    75e2:	89 83       	std	Y+1, r24	; 0x01
    75e4:	0d cf       	rjmp	.-486    	; 0x7400 <APP_LCD_TMR2_BUZZER_Control_bar+0x2e>
		 }
		 _delay_ms(5);

	}
	TMR2_Disable();
    75e6:	0e 94 dd 0f 	call	0x1fba	; 0x1fba <TMR2_Disable>
	return statues;
    75ea:	8a 89       	ldd	r24, Y+18	; 0x12
}
    75ec:	68 96       	adiw	r28, 0x18	; 24
    75ee:	0f b6       	in	r0, 0x3f	; 63
    75f0:	f8 94       	cli
    75f2:	de bf       	out	0x3e, r29	; 62
    75f4:	0f be       	out	0x3f, r0	; 63
    75f6:	cd bf       	out	0x3d, r28	; 61
    75f8:	cf 91       	pop	r28
    75fa:	df 91       	pop	r29
    75fc:	08 95       	ret

000075fe <APP_play_tune>:
void APP_play_tune(u8 tone)
{
    75fe:	df 93       	push	r29
    7600:	cf 93       	push	r28
    7602:	cd b7       	in	r28, 0x3d	; 61
    7604:	de b7       	in	r29, 0x3e	; 62
    7606:	6d 97       	sbiw	r28, 0x1d	; 29
    7608:	0f b6       	in	r0, 0x3f	; 63
    760a:	f8 94       	cli
    760c:	de bf       	out	0x3e, r29	; 62
    760e:	0f be       	out	0x3f, r0	; 63
    7610:	cd bf       	out	0x3d, r28	; 61
    7612:	8d 8f       	std	Y+29, r24	; 0x1d
	TMR2_PWM(tone);
    7614:	8d 8d       	ldd	r24, Y+29	; 0x1d
    7616:	0e 94 fd 0f 	call	0x1ffa	; 0x1ffa <TMR2_PWM>
	_delay_ms(tone*5);
    761a:	8d 8d       	ldd	r24, Y+29	; 0x1d
    761c:	28 2f       	mov	r18, r24
    761e:	30 e0       	ldi	r19, 0x00	; 0
    7620:	c9 01       	movw	r24, r18
    7622:	88 0f       	add	r24, r24
    7624:	99 1f       	adc	r25, r25
    7626:	88 0f       	add	r24, r24
    7628:	99 1f       	adc	r25, r25
    762a:	82 0f       	add	r24, r18
    762c:	93 1f       	adc	r25, r19
    762e:	aa 27       	eor	r26, r26
    7630:	97 fd       	sbrc	r25, 7
    7632:	a0 95       	com	r26
    7634:	ba 2f       	mov	r27, r26
    7636:	bc 01       	movw	r22, r24
    7638:	cd 01       	movw	r24, r26
    763a:	0e 94 55 04 	call	0x8aa	; 0x8aa <__floatsisf>
    763e:	dc 01       	movw	r26, r24
    7640:	cb 01       	movw	r24, r22
    7642:	89 8f       	std	Y+25, r24	; 0x19
    7644:	9a 8f       	std	Y+26, r25	; 0x1a
    7646:	ab 8f       	std	Y+27, r26	; 0x1b
    7648:	bc 8f       	std	Y+28, r27	; 0x1c
 */
void
_delay_ms(double __ms)
{
	uint16_t __ticks;
	double __tmp = ((F_CPU) / 4e3) * __ms;
    764a:	69 8d       	ldd	r22, Y+25	; 0x19
    764c:	7a 8d       	ldd	r23, Y+26	; 0x1a
    764e:	8b 8d       	ldd	r24, Y+27	; 0x1b
    7650:	9c 8d       	ldd	r25, Y+28	; 0x1c
    7652:	20 e0       	ldi	r18, 0x00	; 0
    7654:	30 e0       	ldi	r19, 0x00	; 0
    7656:	4a ef       	ldi	r20, 0xFA	; 250
    7658:	54 e4       	ldi	r21, 0x44	; 68
    765a:	0e 94 1f 02 	call	0x43e	; 0x43e <__mulsf3>
    765e:	dc 01       	movw	r26, r24
    7660:	cb 01       	movw	r24, r22
    7662:	8d 8b       	std	Y+21, r24	; 0x15
    7664:	9e 8b       	std	Y+22, r25	; 0x16
    7666:	af 8b       	std	Y+23, r26	; 0x17
    7668:	b8 8f       	std	Y+24, r27	; 0x18
	if (__tmp < 1.0)
    766a:	6d 89       	ldd	r22, Y+21	; 0x15
    766c:	7e 89       	ldd	r23, Y+22	; 0x16
    766e:	8f 89       	ldd	r24, Y+23	; 0x17
    7670:	98 8d       	ldd	r25, Y+24	; 0x18
    7672:	20 e0       	ldi	r18, 0x00	; 0
    7674:	30 e0       	ldi	r19, 0x00	; 0
    7676:	40 e8       	ldi	r20, 0x80	; 128
    7678:	5f e3       	ldi	r21, 0x3F	; 63
    767a:	0e 94 25 04 	call	0x84a	; 0x84a <__ltsf2>
    767e:	88 23       	and	r24, r24
    7680:	2c f4       	brge	.+10     	; 0x768c <APP_play_tune+0x8e>
		__ticks = 1;
    7682:	81 e0       	ldi	r24, 0x01	; 1
    7684:	90 e0       	ldi	r25, 0x00	; 0
    7686:	9c 8b       	std	Y+20, r25	; 0x14
    7688:	8b 8b       	std	Y+19, r24	; 0x13
    768a:	3f c0       	rjmp	.+126    	; 0x770a <APP_play_tune+0x10c>
	else if (__tmp > 65535)
    768c:	6d 89       	ldd	r22, Y+21	; 0x15
    768e:	7e 89       	ldd	r23, Y+22	; 0x16
    7690:	8f 89       	ldd	r24, Y+23	; 0x17
    7692:	98 8d       	ldd	r25, Y+24	; 0x18
    7694:	20 e0       	ldi	r18, 0x00	; 0
    7696:	3f ef       	ldi	r19, 0xFF	; 255
    7698:	4f e7       	ldi	r20, 0x7F	; 127
    769a:	57 e4       	ldi	r21, 0x47	; 71
    769c:	0e 94 c5 03 	call	0x78a	; 0x78a <__gtsf2>
    76a0:	18 16       	cp	r1, r24
    76a2:	4c f5       	brge	.+82     	; 0x76f6 <APP_play_tune+0xf8>
	{
		//	__ticks = requested delay in 1/10 ms
		__ticks = (uint16_t) (__ms * 10.0);
    76a4:	69 8d       	ldd	r22, Y+25	; 0x19
    76a6:	7a 8d       	ldd	r23, Y+26	; 0x1a
    76a8:	8b 8d       	ldd	r24, Y+27	; 0x1b
    76aa:	9c 8d       	ldd	r25, Y+28	; 0x1c
    76ac:	20 e0       	ldi	r18, 0x00	; 0
    76ae:	30 e0       	ldi	r19, 0x00	; 0
    76b0:	40 e2       	ldi	r20, 0x20	; 32
    76b2:	51 e4       	ldi	r21, 0x41	; 65
    76b4:	0e 94 1f 02 	call	0x43e	; 0x43e <__mulsf3>
    76b8:	dc 01       	movw	r26, r24
    76ba:	cb 01       	movw	r24, r22
    76bc:	bc 01       	movw	r22, r24
    76be:	cd 01       	movw	r24, r26
    76c0:	0e 94 49 00 	call	0x92	; 0x92 <__fixunssfsi>
    76c4:	dc 01       	movw	r26, r24
    76c6:	cb 01       	movw	r24, r22
    76c8:	9c 8b       	std	Y+20, r25	; 0x14
    76ca:	8b 8b       	std	Y+19, r24	; 0x13
    76cc:	0f c0       	rjmp	.+30     	; 0x76ec <APP_play_tune+0xee>
    76ce:	88 ec       	ldi	r24, 0xC8	; 200
    76d0:	90 e0       	ldi	r25, 0x00	; 0
    76d2:	9a 8b       	std	Y+18, r25	; 0x12
    76d4:	89 8b       	std	Y+17, r24	; 0x11
    76d6:	89 89       	ldd	r24, Y+17	; 0x11
    76d8:	9a 89       	ldd	r25, Y+18	; 0x12
    76da:	01 97       	sbiw	r24, 0x01	; 1
    76dc:	f1 f7       	brne	.-4      	; 0x76da <APP_play_tune+0xdc>
    76de:	9a 8b       	std	Y+18, r25	; 0x12
    76e0:	89 8b       	std	Y+17, r24	; 0x11
		while(__ticks)
		{
			// wait 1/10 ms
			_delay_loop_2(((F_CPU) / 4e3) / 10);
			__ticks --;
    76e2:	8b 89       	ldd	r24, Y+19	; 0x13
    76e4:	9c 89       	ldd	r25, Y+20	; 0x14
    76e6:	01 97       	sbiw	r24, 0x01	; 1
    76e8:	9c 8b       	std	Y+20, r25	; 0x14
    76ea:	8b 8b       	std	Y+19, r24	; 0x13
		__ticks = 1;
	else if (__tmp > 65535)
	{
		//	__ticks = requested delay in 1/10 ms
		__ticks = (uint16_t) (__ms * 10.0);
		while(__ticks)
    76ec:	8b 89       	ldd	r24, Y+19	; 0x13
    76ee:	9c 89       	ldd	r25, Y+20	; 0x14
    76f0:	00 97       	sbiw	r24, 0x00	; 0
    76f2:	69 f7       	brne	.-38     	; 0x76ce <APP_play_tune+0xd0>
    76f4:	14 c0       	rjmp	.+40     	; 0x771e <APP_play_tune+0x120>
			__ticks --;
		}
		return;
	}
	else
		__ticks = (uint16_t)__tmp;
    76f6:	6d 89       	ldd	r22, Y+21	; 0x15
    76f8:	7e 89       	ldd	r23, Y+22	; 0x16
    76fa:	8f 89       	ldd	r24, Y+23	; 0x17
    76fc:	98 8d       	ldd	r25, Y+24	; 0x18
    76fe:	0e 94 49 00 	call	0x92	; 0x92 <__fixunssfsi>
    7702:	dc 01       	movw	r26, r24
    7704:	cb 01       	movw	r24, r22
    7706:	9c 8b       	std	Y+20, r25	; 0x14
    7708:	8b 8b       	std	Y+19, r24	; 0x13
    770a:	8b 89       	ldd	r24, Y+19	; 0x13
    770c:	9c 89       	ldd	r25, Y+20	; 0x14
    770e:	98 8b       	std	Y+16, r25	; 0x10
    7710:	8f 87       	std	Y+15, r24	; 0x0f
    7712:	8f 85       	ldd	r24, Y+15	; 0x0f
    7714:	98 89       	ldd	r25, Y+16	; 0x10
    7716:	01 97       	sbiw	r24, 0x01	; 1
    7718:	f1 f7       	brne	.-4      	; 0x7716 <APP_play_tune+0x118>
    771a:	98 8b       	std	Y+16, r25	; 0x10
    771c:	8f 87       	std	Y+15, r24	; 0x0f
	TMR2_Disable();
    771e:	0e 94 dd 0f 	call	0x1fba	; 0x1fba <TMR2_Disable>
	_delay_ms(tone*5);
    7722:	8d 8d       	ldd	r24, Y+29	; 0x1d
    7724:	28 2f       	mov	r18, r24
    7726:	30 e0       	ldi	r19, 0x00	; 0
    7728:	c9 01       	movw	r24, r18
    772a:	88 0f       	add	r24, r24
    772c:	99 1f       	adc	r25, r25
    772e:	88 0f       	add	r24, r24
    7730:	99 1f       	adc	r25, r25
    7732:	82 0f       	add	r24, r18
    7734:	93 1f       	adc	r25, r19
    7736:	aa 27       	eor	r26, r26
    7738:	97 fd       	sbrc	r25, 7
    773a:	a0 95       	com	r26
    773c:	ba 2f       	mov	r27, r26
    773e:	bc 01       	movw	r22, r24
    7740:	cd 01       	movw	r24, r26
    7742:	0e 94 55 04 	call	0x8aa	; 0x8aa <__floatsisf>
    7746:	dc 01       	movw	r26, r24
    7748:	cb 01       	movw	r24, r22
    774a:	8b 87       	std	Y+11, r24	; 0x0b
    774c:	9c 87       	std	Y+12, r25	; 0x0c
    774e:	ad 87       	std	Y+13, r26	; 0x0d
    7750:	be 87       	std	Y+14, r27	; 0x0e
 */
void
_delay_ms(double __ms)
{
	uint16_t __ticks;
	double __tmp = ((F_CPU) / 4e3) * __ms;
    7752:	6b 85       	ldd	r22, Y+11	; 0x0b
    7754:	7c 85       	ldd	r23, Y+12	; 0x0c
    7756:	8d 85       	ldd	r24, Y+13	; 0x0d
    7758:	9e 85       	ldd	r25, Y+14	; 0x0e
    775a:	20 e0       	ldi	r18, 0x00	; 0
    775c:	30 e0       	ldi	r19, 0x00	; 0
    775e:	4a ef       	ldi	r20, 0xFA	; 250
    7760:	54 e4       	ldi	r21, 0x44	; 68
    7762:	0e 94 1f 02 	call	0x43e	; 0x43e <__mulsf3>
    7766:	dc 01       	movw	r26, r24
    7768:	cb 01       	movw	r24, r22
    776a:	8f 83       	std	Y+7, r24	; 0x07
    776c:	98 87       	std	Y+8, r25	; 0x08
    776e:	a9 87       	std	Y+9, r26	; 0x09
    7770:	ba 87       	std	Y+10, r27	; 0x0a
	if (__tmp < 1.0)
    7772:	6f 81       	ldd	r22, Y+7	; 0x07
    7774:	78 85       	ldd	r23, Y+8	; 0x08
    7776:	89 85       	ldd	r24, Y+9	; 0x09
    7778:	9a 85       	ldd	r25, Y+10	; 0x0a
    777a:	20 e0       	ldi	r18, 0x00	; 0
    777c:	30 e0       	ldi	r19, 0x00	; 0
    777e:	40 e8       	ldi	r20, 0x80	; 128
    7780:	5f e3       	ldi	r21, 0x3F	; 63
    7782:	0e 94 25 04 	call	0x84a	; 0x84a <__ltsf2>
    7786:	88 23       	and	r24, r24
    7788:	2c f4       	brge	.+10     	; 0x7794 <APP_play_tune+0x196>
		__ticks = 1;
    778a:	81 e0       	ldi	r24, 0x01	; 1
    778c:	90 e0       	ldi	r25, 0x00	; 0
    778e:	9e 83       	std	Y+6, r25	; 0x06
    7790:	8d 83       	std	Y+5, r24	; 0x05
    7792:	3f c0       	rjmp	.+126    	; 0x7812 <APP_play_tune+0x214>
	else if (__tmp > 65535)
    7794:	6f 81       	ldd	r22, Y+7	; 0x07
    7796:	78 85       	ldd	r23, Y+8	; 0x08
    7798:	89 85       	ldd	r24, Y+9	; 0x09
    779a:	9a 85       	ldd	r25, Y+10	; 0x0a
    779c:	20 e0       	ldi	r18, 0x00	; 0
    779e:	3f ef       	ldi	r19, 0xFF	; 255
    77a0:	4f e7       	ldi	r20, 0x7F	; 127
    77a2:	57 e4       	ldi	r21, 0x47	; 71
    77a4:	0e 94 c5 03 	call	0x78a	; 0x78a <__gtsf2>
    77a8:	18 16       	cp	r1, r24
    77aa:	4c f5       	brge	.+82     	; 0x77fe <APP_play_tune+0x200>
	{
		//	__ticks = requested delay in 1/10 ms
		__ticks = (uint16_t) (__ms * 10.0);
    77ac:	6b 85       	ldd	r22, Y+11	; 0x0b
    77ae:	7c 85       	ldd	r23, Y+12	; 0x0c
    77b0:	8d 85       	ldd	r24, Y+13	; 0x0d
    77b2:	9e 85       	ldd	r25, Y+14	; 0x0e
    77b4:	20 e0       	ldi	r18, 0x00	; 0
    77b6:	30 e0       	ldi	r19, 0x00	; 0
    77b8:	40 e2       	ldi	r20, 0x20	; 32
    77ba:	51 e4       	ldi	r21, 0x41	; 65
    77bc:	0e 94 1f 02 	call	0x43e	; 0x43e <__mulsf3>
    77c0:	dc 01       	movw	r26, r24
    77c2:	cb 01       	movw	r24, r22
    77c4:	bc 01       	movw	r22, r24
    77c6:	cd 01       	movw	r24, r26
    77c8:	0e 94 49 00 	call	0x92	; 0x92 <__fixunssfsi>
    77cc:	dc 01       	movw	r26, r24
    77ce:	cb 01       	movw	r24, r22
    77d0:	9e 83       	std	Y+6, r25	; 0x06
    77d2:	8d 83       	std	Y+5, r24	; 0x05
    77d4:	0f c0       	rjmp	.+30     	; 0x77f4 <APP_play_tune+0x1f6>
    77d6:	88 ec       	ldi	r24, 0xC8	; 200
    77d8:	90 e0       	ldi	r25, 0x00	; 0
    77da:	9c 83       	std	Y+4, r25	; 0x04
    77dc:	8b 83       	std	Y+3, r24	; 0x03
    77de:	8b 81       	ldd	r24, Y+3	; 0x03
    77e0:	9c 81       	ldd	r25, Y+4	; 0x04
    77e2:	01 97       	sbiw	r24, 0x01	; 1
    77e4:	f1 f7       	brne	.-4      	; 0x77e2 <APP_play_tune+0x1e4>
    77e6:	9c 83       	std	Y+4, r25	; 0x04
    77e8:	8b 83       	std	Y+3, r24	; 0x03
		while(__ticks)
		{
			// wait 1/10 ms
			_delay_loop_2(((F_CPU) / 4e3) / 10);
			__ticks --;
    77ea:	8d 81       	ldd	r24, Y+5	; 0x05
    77ec:	9e 81       	ldd	r25, Y+6	; 0x06
    77ee:	01 97       	sbiw	r24, 0x01	; 1
    77f0:	9e 83       	std	Y+6, r25	; 0x06
    77f2:	8d 83       	std	Y+5, r24	; 0x05
		__ticks = 1;
	else if (__tmp > 65535)
	{
		//	__ticks = requested delay in 1/10 ms
		__ticks = (uint16_t) (__ms * 10.0);
		while(__ticks)
    77f4:	8d 81       	ldd	r24, Y+5	; 0x05
    77f6:	9e 81       	ldd	r25, Y+6	; 0x06
    77f8:	00 97       	sbiw	r24, 0x00	; 0
    77fa:	69 f7       	brne	.-38     	; 0x77d6 <APP_play_tune+0x1d8>
    77fc:	14 c0       	rjmp	.+40     	; 0x7826 <APP_play_tune+0x228>
			__ticks --;
		}
		return;
	}
	else
		__ticks = (uint16_t)__tmp;
    77fe:	6f 81       	ldd	r22, Y+7	; 0x07
    7800:	78 85       	ldd	r23, Y+8	; 0x08
    7802:	89 85       	ldd	r24, Y+9	; 0x09
    7804:	9a 85       	ldd	r25, Y+10	; 0x0a
    7806:	0e 94 49 00 	call	0x92	; 0x92 <__fixunssfsi>
    780a:	dc 01       	movw	r26, r24
    780c:	cb 01       	movw	r24, r22
    780e:	9e 83       	std	Y+6, r25	; 0x06
    7810:	8d 83       	std	Y+5, r24	; 0x05
    7812:	8d 81       	ldd	r24, Y+5	; 0x05
    7814:	9e 81       	ldd	r25, Y+6	; 0x06
    7816:	9a 83       	std	Y+2, r25	; 0x02
    7818:	89 83       	std	Y+1, r24	; 0x01
    781a:	89 81       	ldd	r24, Y+1	; 0x01
    781c:	9a 81       	ldd	r25, Y+2	; 0x02
    781e:	01 97       	sbiw	r24, 0x01	; 1
    7820:	f1 f7       	brne	.-4      	; 0x781e <APP_play_tune+0x220>
    7822:	9a 83       	std	Y+2, r25	; 0x02
    7824:	89 83       	std	Y+1, r24	; 0x01
}
    7826:	6d 96       	adiw	r28, 0x1d	; 29
    7828:	0f b6       	in	r0, 0x3f	; 63
    782a:	f8 94       	cli
    782c:	de bf       	out	0x3e, r29	; 62
    782e:	0f be       	out	0x3f, r0	; 63
    7830:	cd bf       	out	0x3d, r28	; 61
    7832:	cf 91       	pop	r28
    7834:	df 91       	pop	r29
    7836:	08 95       	ret

00007838 <itoa>:
u8 itoa(u16 value,u8 *ptr)
 {
    7838:	df 93       	push	r29
    783a:	cf 93       	push	r28
    783c:	cd b7       	in	r28, 0x3d	; 61
    783e:	de b7       	in	r29, 0x3e	; 62
    7840:	28 97       	sbiw	r28, 0x08	; 8
    7842:	0f b6       	in	r0, 0x3f	; 63
    7844:	f8 94       	cli
    7846:	de bf       	out	0x3e, r29	; 62
    7848:	0f be       	out	0x3f, r0	; 63
    784a:	cd bf       	out	0x3d, r28	; 61
    784c:	9d 83       	std	Y+5, r25	; 0x05
    784e:	8c 83       	std	Y+4, r24	; 0x04
    7850:	7f 83       	std	Y+7, r23	; 0x07
    7852:	6e 83       	std	Y+6, r22	; 0x06
	u8 count=0;
    7854:	1b 82       	std	Y+3, r1	; 0x03
	u16 temp;
	if(value==0)
    7856:	8c 81       	ldd	r24, Y+4	; 0x04
    7858:	9d 81       	ldd	r25, Y+5	; 0x05
    785a:	00 97       	sbiw	r24, 0x00	; 0
    785c:	39 f4       	brne	.+14     	; 0x786c <itoa+0x34>
	{
		*ptr='0';
    785e:	ee 81       	ldd	r30, Y+6	; 0x06
    7860:	ff 81       	ldd	r31, Y+7	; 0x07
    7862:	80 e3       	ldi	r24, 0x30	; 48
    7864:	80 83       	st	Z, r24
		return 1;
    7866:	81 e0       	ldi	r24, 0x01	; 1
    7868:	88 87       	std	Y+8, r24	; 0x08
    786a:	43 c0       	rjmp	.+134    	; 0x78f2 <itoa+0xba>
	{
		value*=(-1);
		*ptr++='-';
		count++;
	}*/
	for(temp=value;temp>0;temp/=10,ptr++);	//reaching end digit in array
    786c:	8c 81       	ldd	r24, Y+4	; 0x04
    786e:	9d 81       	ldd	r25, Y+5	; 0x05
    7870:	9a 83       	std	Y+2, r25	; 0x02
    7872:	89 83       	std	Y+1, r24	; 0x01
    7874:	0f c0       	rjmp	.+30     	; 0x7894 <itoa+0x5c>
    7876:	89 81       	ldd	r24, Y+1	; 0x01
    7878:	9a 81       	ldd	r25, Y+2	; 0x02
    787a:	2a e0       	ldi	r18, 0x0A	; 10
    787c:	30 e0       	ldi	r19, 0x00	; 0
    787e:	b9 01       	movw	r22, r18
    7880:	0e 94 c2 3c 	call	0x7984	; 0x7984 <__udivmodhi4>
    7884:	cb 01       	movw	r24, r22
    7886:	9a 83       	std	Y+2, r25	; 0x02
    7888:	89 83       	std	Y+1, r24	; 0x01
    788a:	8e 81       	ldd	r24, Y+6	; 0x06
    788c:	9f 81       	ldd	r25, Y+7	; 0x07
    788e:	01 96       	adiw	r24, 0x01	; 1
    7890:	9f 83       	std	Y+7, r25	; 0x07
    7892:	8e 83       	std	Y+6, r24	; 0x06
    7894:	89 81       	ldd	r24, Y+1	; 0x01
    7896:	9a 81       	ldd	r25, Y+2	; 0x02
    7898:	00 97       	sbiw	r24, 0x00	; 0
    789a:	69 f7       	brne	.-38     	; 0x7876 <itoa+0x3e>
	*ptr='\0';								//put string terminatorat last position		xxx\0
    789c:	ee 81       	ldd	r30, Y+6	; 0x06
    789e:	ff 81       	ldd	r31, Y+7	; 0x07
    78a0:	10 82       	st	Z, r1
	for(temp=value;temp>0;temp/=10)			//put numbers from last to first 			xx3\0
    78a2:	8c 81       	ldd	r24, Y+4	; 0x04
    78a4:	9d 81       	ldd	r25, Y+5	; 0x05
    78a6:	9a 83       	std	Y+2, r25	; 0x02
    78a8:	89 83       	std	Y+1, r24	; 0x01
    78aa:	1d c0       	rjmp	.+58     	; 0x78e6 <itoa+0xae>
	{										//											x23\0
		*--ptr=temp%10+'0';					//											123\0
    78ac:	8e 81       	ldd	r24, Y+6	; 0x06
    78ae:	9f 81       	ldd	r25, Y+7	; 0x07
    78b0:	01 97       	sbiw	r24, 0x01	; 1
    78b2:	9f 83       	std	Y+7, r25	; 0x07
    78b4:	8e 83       	std	Y+6, r24	; 0x06
    78b6:	89 81       	ldd	r24, Y+1	; 0x01
    78b8:	9a 81       	ldd	r25, Y+2	; 0x02
    78ba:	2a e0       	ldi	r18, 0x0A	; 10
    78bc:	30 e0       	ldi	r19, 0x00	; 0
    78be:	b9 01       	movw	r22, r18
    78c0:	0e 94 c2 3c 	call	0x7984	; 0x7984 <__udivmodhi4>
    78c4:	80 5d       	subi	r24, 0xD0	; 208
    78c6:	ee 81       	ldd	r30, Y+6	; 0x06
    78c8:	ff 81       	ldd	r31, Y+7	; 0x07
    78ca:	80 83       	st	Z, r24
		count++;
    78cc:	8b 81       	ldd	r24, Y+3	; 0x03
    78ce:	8f 5f       	subi	r24, 0xFF	; 255
    78d0:	8b 83       	std	Y+3, r24	; 0x03
		*ptr++='-';
		count++;
	}*/
	for(temp=value;temp>0;temp/=10,ptr++);	//reaching end digit in array
	*ptr='\0';								//put string terminatorat last position		xxx\0
	for(temp=value;temp>0;temp/=10)			//put numbers from last to first 			xx3\0
    78d2:	89 81       	ldd	r24, Y+1	; 0x01
    78d4:	9a 81       	ldd	r25, Y+2	; 0x02
    78d6:	2a e0       	ldi	r18, 0x0A	; 10
    78d8:	30 e0       	ldi	r19, 0x00	; 0
    78da:	b9 01       	movw	r22, r18
    78dc:	0e 94 c2 3c 	call	0x7984	; 0x7984 <__udivmodhi4>
    78e0:	cb 01       	movw	r24, r22
    78e2:	9a 83       	std	Y+2, r25	; 0x02
    78e4:	89 83       	std	Y+1, r24	; 0x01
    78e6:	89 81       	ldd	r24, Y+1	; 0x01
    78e8:	9a 81       	ldd	r25, Y+2	; 0x02
    78ea:	00 97       	sbiw	r24, 0x00	; 0
    78ec:	f9 f6       	brne	.-66     	; 0x78ac <itoa+0x74>
	{										//											x23\0
		*--ptr=temp%10+'0';					//											123\0
		count++;
	}
	return count;
    78ee:	8b 81       	ldd	r24, Y+3	; 0x03
    78f0:	88 87       	std	Y+8, r24	; 0x08
    78f2:	88 85       	ldd	r24, Y+8	; 0x08
 }
    78f4:	28 96       	adiw	r28, 0x08	; 8
    78f6:	0f b6       	in	r0, 0x3f	; 63
    78f8:	f8 94       	cli
    78fa:	de bf       	out	0x3e, r29	; 62
    78fc:	0f be       	out	0x3f, r0	; 63
    78fe:	cd bf       	out	0x3d, r28	; 61
    7900:	cf 91       	pop	r28
    7902:	df 91       	pop	r29
    7904:	08 95       	ret

00007906 <main>:




int main(void)
{
    7906:	df 93       	push	r29
    7908:	cf 93       	push	r28
    790a:	cd b7       	in	r28, 0x3d	; 61
    790c:	de b7       	in	r29, 0x3e	; 62
	DIO_Init();
    790e:	0e 94 49 09 	call	0x1292	; 0x1292 <DIO_Init>


	//APP_LCD_story();
	//APP_LCD_TMR2_BUZZER_Control_bar();

	TMR2_Init();
    7912:	0e 94 65 0e 	call	0x1cca	; 0x1cca <TMR2_Init>
    7916:	ff cf       	rjmp	.-2      	; 0x7916 <main+0x10>

00007918 <__vector_1>:




ISR(1)
{
    7918:	1f 92       	push	r1
    791a:	0f 92       	push	r0
    791c:	0f b6       	in	r0, 0x3f	; 63
    791e:	0f 92       	push	r0
    7920:	11 24       	eor	r1, r1
    7922:	2f 93       	push	r18
    7924:	3f 93       	push	r19
    7926:	4f 93       	push	r20
    7928:	5f 93       	push	r21
    792a:	6f 93       	push	r22
    792c:	7f 93       	push	r23
    792e:	8f 93       	push	r24
    7930:	9f 93       	push	r25
    7932:	af 93       	push	r26
    7934:	bf 93       	push	r27
    7936:	ef 93       	push	r30
    7938:	ff 93       	push	r31
    793a:	df 93       	push	r29
    793c:	cf 93       	push	r28
    793e:	cd b7       	in	r28, 0x3d	; 61
    7940:	de b7       	in	r29, 0x3e	; 62

	LED1_Toggle();
    7942:	0e 94 bb 1a 	call	0x3576	; 0x3576 <LED1_Toggle>

}
    7946:	cf 91       	pop	r28
    7948:	df 91       	pop	r29
    794a:	ff 91       	pop	r31
    794c:	ef 91       	pop	r30
    794e:	bf 91       	pop	r27
    7950:	af 91       	pop	r26
    7952:	9f 91       	pop	r25
    7954:	8f 91       	pop	r24
    7956:	7f 91       	pop	r23
    7958:	6f 91       	pop	r22
    795a:	5f 91       	pop	r21
    795c:	4f 91       	pop	r20
    795e:	3f 91       	pop	r19
    7960:	2f 91       	pop	r18
    7962:	0f 90       	pop	r0
    7964:	0f be       	out	0x3f, r0	; 63
    7966:	0f 90       	pop	r0
    7968:	1f 90       	pop	r1
    796a:	18 95       	reti

0000796c <__udivmodqi4>:
    796c:	99 1b       	sub	r25, r25
    796e:	79 e0       	ldi	r23, 0x09	; 9
    7970:	04 c0       	rjmp	.+8      	; 0x797a <__udivmodqi4_ep>

00007972 <__udivmodqi4_loop>:
    7972:	99 1f       	adc	r25, r25
    7974:	96 17       	cp	r25, r22
    7976:	08 f0       	brcs	.+2      	; 0x797a <__udivmodqi4_ep>
    7978:	96 1b       	sub	r25, r22

0000797a <__udivmodqi4_ep>:
    797a:	88 1f       	adc	r24, r24
    797c:	7a 95       	dec	r23
    797e:	c9 f7       	brne	.-14     	; 0x7972 <__udivmodqi4_loop>
    7980:	80 95       	com	r24
    7982:	08 95       	ret

00007984 <__udivmodhi4>:
    7984:	aa 1b       	sub	r26, r26
    7986:	bb 1b       	sub	r27, r27
    7988:	51 e1       	ldi	r21, 0x11	; 17
    798a:	07 c0       	rjmp	.+14     	; 0x799a <__udivmodhi4_ep>

0000798c <__udivmodhi4_loop>:
    798c:	aa 1f       	adc	r26, r26
    798e:	bb 1f       	adc	r27, r27
    7990:	a6 17       	cp	r26, r22
    7992:	b7 07       	cpc	r27, r23
    7994:	10 f0       	brcs	.+4      	; 0x799a <__udivmodhi4_ep>
    7996:	a6 1b       	sub	r26, r22
    7998:	b7 0b       	sbc	r27, r23

0000799a <__udivmodhi4_ep>:
    799a:	88 1f       	adc	r24, r24
    799c:	99 1f       	adc	r25, r25
    799e:	5a 95       	dec	r21
    79a0:	a9 f7       	brne	.-22     	; 0x798c <__udivmodhi4_loop>
    79a2:	80 95       	com	r24
    79a4:	90 95       	com	r25
    79a6:	bc 01       	movw	r22, r24
    79a8:	cd 01       	movw	r24, r26
    79aa:	08 95       	ret

000079ac <__prologue_saves__>:
    79ac:	2f 92       	push	r2
    79ae:	3f 92       	push	r3
    79b0:	4f 92       	push	r4
    79b2:	5f 92       	push	r5
    79b4:	6f 92       	push	r6
    79b6:	7f 92       	push	r7
    79b8:	8f 92       	push	r8
    79ba:	9f 92       	push	r9
    79bc:	af 92       	push	r10
    79be:	bf 92       	push	r11
    79c0:	cf 92       	push	r12
    79c2:	df 92       	push	r13
    79c4:	ef 92       	push	r14
    79c6:	ff 92       	push	r15
    79c8:	0f 93       	push	r16
    79ca:	1f 93       	push	r17
    79cc:	cf 93       	push	r28
    79ce:	df 93       	push	r29
    79d0:	cd b7       	in	r28, 0x3d	; 61
    79d2:	de b7       	in	r29, 0x3e	; 62
    79d4:	ca 1b       	sub	r28, r26
    79d6:	db 0b       	sbc	r29, r27
    79d8:	0f b6       	in	r0, 0x3f	; 63
    79da:	f8 94       	cli
    79dc:	de bf       	out	0x3e, r29	; 62
    79de:	0f be       	out	0x3f, r0	; 63
    79e0:	cd bf       	out	0x3d, r28	; 61
    79e2:	09 94       	ijmp

000079e4 <__epilogue_restores__>:
    79e4:	2a 88       	ldd	r2, Y+18	; 0x12
    79e6:	39 88       	ldd	r3, Y+17	; 0x11
    79e8:	48 88       	ldd	r4, Y+16	; 0x10
    79ea:	5f 84       	ldd	r5, Y+15	; 0x0f
    79ec:	6e 84       	ldd	r6, Y+14	; 0x0e
    79ee:	7d 84       	ldd	r7, Y+13	; 0x0d
    79f0:	8c 84       	ldd	r8, Y+12	; 0x0c
    79f2:	9b 84       	ldd	r9, Y+11	; 0x0b
    79f4:	aa 84       	ldd	r10, Y+10	; 0x0a
    79f6:	b9 84       	ldd	r11, Y+9	; 0x09
    79f8:	c8 84       	ldd	r12, Y+8	; 0x08
    79fa:	df 80       	ldd	r13, Y+7	; 0x07
    79fc:	ee 80       	ldd	r14, Y+6	; 0x06
    79fe:	fd 80       	ldd	r15, Y+5	; 0x05
    7a00:	0c 81       	ldd	r16, Y+4	; 0x04
    7a02:	1b 81       	ldd	r17, Y+3	; 0x03
    7a04:	aa 81       	ldd	r26, Y+2	; 0x02
    7a06:	b9 81       	ldd	r27, Y+1	; 0x01
    7a08:	ce 0f       	add	r28, r30
    7a0a:	d1 1d       	adc	r29, r1
    7a0c:	0f b6       	in	r0, 0x3f	; 63
    7a0e:	f8 94       	cli
    7a10:	de bf       	out	0x3e, r29	; 62
    7a12:	0f be       	out	0x3f, r0	; 63
    7a14:	cd bf       	out	0x3d, r28	; 61
    7a16:	ed 01       	movw	r28, r26
    7a18:	08 95       	ret

00007a1a <_exit>:
    7a1a:	f8 94       	cli

00007a1c <__stop_program>:
    7a1c:	ff cf       	rjmp	.-2      	; 0x7a1c <__stop_program>
